Archive member included to satisfy reference by file (symbol)

c:/intelfpga_lite/18.1/nios2eds/bin/gnu/h-x86_64-mingw32/bin/../lib/gcc/nios2-elf/5.3.0\libgcc.a(_floatdisf.o)
                              obj/default/osc.o (__floatdisf)
c:/intelfpga_lite/18.1/nios2eds/bin/gnu/h-x86_64-mingw32/bin/../lib/gcc/nios2-elf/5.3.0\libgcc.a(addsf3.o)
                              obj/default/osc.o (__addsf3)
c:/intelfpga_lite/18.1/nios2eds/bin/gnu/h-x86_64-mingw32/bin/../lib/gcc/nios2-elf/5.3.0\libgcc.a(mulsf3.o)
                              obj/default/osc.o (__mulsf3)
c:/intelfpga_lite/18.1/nios2eds/bin/gnu/h-x86_64-mingw32/bin/../lib/gcc/nios2-elf/5.3.0\libgcc.a(fixsfsi.o)
                              obj/default/osc.o (__fixsfsi)
c:/intelfpga_lite/18.1/nios2eds/bin/gnu/h-x86_64-mingw32/bin/../lib/gcc/nios2-elf/5.3.0\libgcc.a(floatsisf.o)
                              obj/default/osc.o (__floatsisf)
c:/intelfpga_lite/18.1/nios2eds/bin/gnu/h-x86_64-mingw32/bin/../lib/gcc/nios2-elf/5.3.0\libgcc.a(adddf3.o)
                              obj/default/osc.o (__adddf3)
c:/intelfpga_lite/18.1/nios2eds/bin/gnu/h-x86_64-mingw32/bin/../lib/gcc/nios2-elf/5.3.0\libgcc.a(divdf3.o)
                              obj/default/osc.o (__divdf3)
c:/intelfpga_lite/18.1/nios2eds/bin/gnu/h-x86_64-mingw32/bin/../lib/gcc/nios2-elf/5.3.0\libgcc.a(muldf3.o)
                              obj/default/osc.o (__muldf3)
c:/intelfpga_lite/18.1/nios2eds/bin/gnu/h-x86_64-mingw32/bin/../lib/gcc/nios2-elf/5.3.0\libgcc.a(floatsidf.o)
                              c:/intelfpga_lite/18.1/nios2eds/bin/gnu/h-x86_64-mingw32/bin/../lib/gcc/nios2-elf/5.3.0\libgcc.a(_floatdisf.o) (__floatsidf)
c:/intelfpga_lite/18.1/nios2eds/bin/gnu/h-x86_64-mingw32/bin/../lib/gcc/nios2-elf/5.3.0\libgcc.a(floatunsidf.o)
                              c:/intelfpga_lite/18.1/nios2eds/bin/gnu/h-x86_64-mingw32/bin/../lib/gcc/nios2-elf/5.3.0\libgcc.a(_floatdisf.o) (__floatunsidf)
c:/intelfpga_lite/18.1/nios2eds/bin/gnu/h-x86_64-mingw32/bin/../lib/gcc/nios2-elf/5.3.0\libgcc.a(extendsfdf2.o)
                              obj/default/osc.o (__extendsfdf2)
c:/intelfpga_lite/18.1/nios2eds/bin/gnu/h-x86_64-mingw32/bin/../lib/gcc/nios2-elf/5.3.0\libgcc.a(truncdfsf2.o)
                              obj/default/osc.o (__truncdfsf2)
c:/intelfpga_lite/18.1/nios2eds/bin/gnu/h-x86_64-mingw32/bin/../lib/gcc/nios2-elf/5.3.0\libgcc.a(_clzsi2.o)
                              c:/intelfpga_lite/18.1/nios2eds/bin/gnu/h-x86_64-mingw32/bin/../lib/gcc/nios2-elf/5.3.0\libgcc.a(addsf3.o) (__clzsi2)
c:/intelfpga_lite/18.1/nios2eds/bin/gnu/h-x86_64-mingw32/bin/../lib/gcc/nios2-elf/5.3.0\libgcc.a(lib2-divmod.o)
                              c:/intelfpga_lite/18.1/nios2eds/bin/gnu/h-x86_64-mingw32/bin/../lib/gcc/nios2-elf/5.3.0\libgcc.a(divdf3.o) (__udivsi3)
c:/intelfpga_lite/18.1/nios2eds/bin/gnu/h-x86_64-mingw32/bin/../lib/gcc/nios2-elf/5.3.0\libgcc.a(_clz.o)
                              c:/intelfpga_lite/18.1/nios2eds/bin/gnu/h-x86_64-mingw32/bin/../lib/gcc/nios2-elf/5.3.0\libgcc.a(_clzsi2.o) (__clz_tab)
c:/intelfpga_lite/18.1/nios2eds/bin/gnu/h-x86_64-mingw32/bin/../lib/gcc/nios2-elf/5.3.0/../../../../../H-x86_64-mingw32/nios2-elf/lib\libc.a(lib_a-calloc.o)
                              obj/default/osc.o (calloc)
c:/intelfpga_lite/18.1/nios2eds/bin/gnu/h-x86_64-mingw32/bin/../lib/gcc/nios2-elf/5.3.0/../../../../../H-x86_64-mingw32/nios2-elf/lib\libc.a(lib_a-callocr.o)
                              c:/intelfpga_lite/18.1/nios2eds/bin/gnu/h-x86_64-mingw32/bin/../lib/gcc/nios2-elf/5.3.0/../../../../../H-x86_64-mingw32/nios2-elf/lib\libc.a(lib_a-calloc.o) (_calloc_r)
c:/intelfpga_lite/18.1/nios2eds/bin/gnu/h-x86_64-mingw32/bin/../lib/gcc/nios2-elf/5.3.0/../../../../../H-x86_64-mingw32/nios2-elf/lib\libc.a(lib_a-fprintf.o)
                              obj/default/alt_error_handler.o (fprintf)
c:/intelfpga_lite/18.1/nios2eds/bin/gnu/h-x86_64-mingw32/bin/../lib/gcc/nios2-elf/5.3.0/../../../../../H-x86_64-mingw32/nios2-elf/lib\libc.a(lib_a-fwrite.o)
                              obj/default/alt_error_handler.o (fwrite)
c:/intelfpga_lite/18.1/nios2eds/bin/gnu/h-x86_64-mingw32/bin/../lib/gcc/nios2-elf/5.3.0/../../../../../H-x86_64-mingw32/nios2-elf/lib\libc.a(lib_a-impure.o)
                              obj/default/alt_error_handler.o (_impure_ptr)
c:/intelfpga_lite/18.1/nios2eds/bin/gnu/h-x86_64-mingw32/bin/../lib/gcc/nios2-elf/5.3.0/../../../../../H-x86_64-mingw32/nios2-elf/lib\libc.a(lib_a-malloc.o)
                              obj/default/osc.o (free)
c:/intelfpga_lite/18.1/nios2eds/bin/gnu/h-x86_64-mingw32/bin/../lib/gcc/nios2-elf/5.3.0/../../../../../H-x86_64-mingw32/nios2-elf/lib\libc.a(lib_a-mallocr.o)
                              c:/intelfpga_lite/18.1/nios2eds/bin/gnu/h-x86_64-mingw32/bin/../lib/gcc/nios2-elf/5.3.0/../../../../../H-x86_64-mingw32/nios2-elf/lib\libc.a(lib_a-callocr.o) (_malloc_r)
c:/intelfpga_lite/18.1/nios2eds/bin/gnu/h-x86_64-mingw32/bin/../lib/gcc/nios2-elf/5.3.0/../../../../../H-x86_64-mingw32/nios2-elf/lib\libc.a(lib_a-memcpy.o)
                              obj/default/osc.o (memcpy)
c:/intelfpga_lite/18.1/nios2eds/bin/gnu/h-x86_64-mingw32/bin/../lib/gcc/nios2-elf/5.3.0/../../../../../H-x86_64-mingw32/nios2-elf/lib\libc.a(lib_a-memset.o)
                              obj/default/SigmaStudioFW.o (memset)
c:/intelfpga_lite/18.1/nios2eds/bin/gnu/h-x86_64-mingw32/bin/../lib/gcc/nios2-elf/5.3.0/../../../../../H-x86_64-mingw32/nios2-elf/lib\libc.a(lib_a-perror.o)
                              obj/default/alt_error_handler.o (perror)
c:/intelfpga_lite/18.1/nios2eds/bin/gnu/h-x86_64-mingw32/bin/../lib/gcc/nios2-elf/5.3.0/../../../../../H-x86_64-mingw32/nios2-elf/lib\libc.a(lib_a-printf.o)
                              obj/default/SigmaStudioFW.o (printf)
c:/intelfpga_lite/18.1/nios2eds/bin/gnu/h-x86_64-mingw32/bin/../lib/gcc/nios2-elf/5.3.0/../../../../../H-x86_64-mingw32/nios2-elf/lib\libc.a(lib_a-puts.o)
                              obj/default/SigmaStudioFW.o (puts)
c:/intelfpga_lite/18.1/nios2eds/bin/gnu/h-x86_64-mingw32/bin/../lib/gcc/nios2-elf/5.3.0/../../../../../H-x86_64-mingw32/nios2-elf/lib\libc.a(lib_a-sbrkr.o)
                              c:/intelfpga_lite/18.1/nios2eds/bin/gnu/h-x86_64-mingw32/bin/../lib/gcc/nios2-elf/5.3.0/../../../../../H-x86_64-mingw32/nios2-elf/lib\libc.a(lib_a-mallocr.o) (_sbrk_r)
c:/intelfpga_lite/18.1/nios2eds/bin/gnu/h-x86_64-mingw32/bin/../lib/gcc/nios2-elf/5.3.0/../../../../../H-x86_64-mingw32/nios2-elf/lib\libc.a(lib_a-sprintf.o)
                              obj/default/osc.o (sprintf)
c:/intelfpga_lite/18.1/nios2eds/bin/gnu/h-x86_64-mingw32/bin/../lib/gcc/nios2-elf/5.3.0/../../../../../H-x86_64-mingw32/nios2-elf/lib\libc.a(lib_a-strchr.o)
                              obj/default/osc.o (strchr)
c:/intelfpga_lite/18.1/nios2eds/bin/gnu/h-x86_64-mingw32/bin/../lib/gcc/nios2-elf/5.3.0/../../../../../H-x86_64-mingw32/nios2-elf/lib\libc.a(lib_a-strcmp.o)
                              obj/default/osc.o (strcmp)
c:/intelfpga_lite/18.1/nios2eds/bin/gnu/h-x86_64-mingw32/bin/../lib/gcc/nios2-elf/5.3.0/../../../../../H-x86_64-mingw32/nios2-elf/lib\libc.a(lib_a-strerror.o)
                              c:/intelfpga_lite/18.1/nios2eds/bin/gnu/h-x86_64-mingw32/bin/../lib/gcc/nios2-elf/5.3.0/../../../../../H-x86_64-mingw32/nios2-elf/lib\libc.a(lib_a-perror.o) (_strerror_r)
c:/intelfpga_lite/18.1/nios2eds/bin/gnu/h-x86_64-mingw32/bin/../lib/gcc/nios2-elf/5.3.0/../../../../../H-x86_64-mingw32/nios2-elf/lib\libc.a(lib_a-strlen.o)
                              obj/default/osc.o (strlen)
c:/intelfpga_lite/18.1/nios2eds/bin/gnu/h-x86_64-mingw32/bin/../lib/gcc/nios2-elf/5.3.0/../../../../../H-x86_64-mingw32/nios2-elf/lib\libc.a(lib_a-svfprintf.o)
                              c:/intelfpga_lite/18.1/nios2eds/bin/gnu/h-x86_64-mingw32/bin/../lib/gcc/nios2-elf/5.3.0/../../../../../H-x86_64-mingw32/nios2-elf/lib\libc.a(lib_a-sprintf.o) (___svfprintf_internal_r)
c:/intelfpga_lite/18.1/nios2eds/bin/gnu/h-x86_64-mingw32/bin/../lib/gcc/nios2-elf/5.3.0/../../../../../H-x86_64-mingw32/nios2-elf/lib\libc.a(lib_a-u_strerr.o)
                              c:/intelfpga_lite/18.1/nios2eds/bin/gnu/h-x86_64-mingw32/bin/../lib/gcc/nios2-elf/5.3.0/../../../../../H-x86_64-mingw32/nios2-elf/lib\libc.a(lib_a-strerror.o) (_user_strerror)
c:/intelfpga_lite/18.1/nios2eds/bin/gnu/h-x86_64-mingw32/bin/../lib/gcc/nios2-elf/5.3.0/../../../../../H-x86_64-mingw32/nios2-elf/lib\libc.a(lib_a-vfprintf.o)
                              c:/intelfpga_lite/18.1/nios2eds/bin/gnu/h-x86_64-mingw32/bin/../lib/gcc/nios2-elf/5.3.0/../../../../../H-x86_64-mingw32/nios2-elf/lib\libc.a(lib_a-printf.o) (___vfprintf_internal_r)
c:/intelfpga_lite/18.1/nios2eds/bin/gnu/h-x86_64-mingw32/bin/../lib/gcc/nios2-elf/5.3.0/../../../../../H-x86_64-mingw32/nios2-elf/lib\libc.a(lib_a-wsetup.o)
                              c:/intelfpga_lite/18.1/nios2eds/bin/gnu/h-x86_64-mingw32/bin/../lib/gcc/nios2-elf/5.3.0/../../../../../H-x86_64-mingw32/nios2-elf/lib\libc.a(lib_a-vfprintf.o) (__swsetup_r)
c:/intelfpga_lite/18.1/nios2eds/bin/gnu/h-x86_64-mingw32/bin/../lib/gcc/nios2-elf/5.3.0/../../../../../H-x86_64-mingw32/nios2-elf/lib\libc.a(lib_a-dtoa.o)
                              c:/intelfpga_lite/18.1/nios2eds/bin/gnu/h-x86_64-mingw32/bin/../lib/gcc/nios2-elf/5.3.0/../../../../../H-x86_64-mingw32/nios2-elf/lib\libc.a(lib_a-svfprintf.o) (_dtoa_r)
c:/intelfpga_lite/18.1/nios2eds/bin/gnu/h-x86_64-mingw32/bin/../lib/gcc/nios2-elf/5.3.0/../../../../../H-x86_64-mingw32/nios2-elf/lib\libc.a(lib_a-fflush.o)
                              c:/intelfpga_lite/18.1/nios2eds/bin/gnu/h-x86_64-mingw32/bin/../lib/gcc/nios2-elf/5.3.0/../../../../../H-x86_64-mingw32/nios2-elf/lib\libc.a(lib_a-vfprintf.o) (_fflush_r)
c:/intelfpga_lite/18.1/nios2eds/bin/gnu/h-x86_64-mingw32/bin/../lib/gcc/nios2-elf/5.3.0/../../../../../H-x86_64-mingw32/nios2-elf/lib\libc.a(lib_a-findfp.o)
                              c:/intelfpga_lite/18.1/nios2eds/bin/gnu/h-x86_64-mingw32/bin/../lib/gcc/nios2-elf/5.3.0/../../../../../H-x86_64-mingw32/nios2-elf/lib\libc.a(lib_a-fwrite.o) (__sinit)
c:/intelfpga_lite/18.1/nios2eds/bin/gnu/h-x86_64-mingw32/bin/../lib/gcc/nios2-elf/5.3.0/../../../../../H-x86_64-mingw32/nios2-elf/lib\libc.a(lib_a-fputc.o)
                              c:/intelfpga_lite/18.1/nios2eds/bin/gnu/h-x86_64-mingw32/bin/../lib/gcc/nios2-elf/5.3.0/../../../../../H-x86_64-mingw32/nios2-elf/lib\libc.a(lib_a-perror.o) (fputc)
c:/intelfpga_lite/18.1/nios2eds/bin/gnu/h-x86_64-mingw32/bin/../lib/gcc/nios2-elf/5.3.0/../../../../../H-x86_64-mingw32/nios2-elf/lib\libc.a(lib_a-fputs.o)
                              c:/intelfpga_lite/18.1/nios2eds/bin/gnu/h-x86_64-mingw32/bin/../lib/gcc/nios2-elf/5.3.0/../../../../../H-x86_64-mingw32/nios2-elf/lib\libc.a(lib_a-perror.o) (fputs)
c:/intelfpga_lite/18.1/nios2eds/bin/gnu/h-x86_64-mingw32/bin/../lib/gcc/nios2-elf/5.3.0/../../../../../H-x86_64-mingw32/nios2-elf/lib\libc.a(lib_a-freer.o)
                              c:/intelfpga_lite/18.1/nios2eds/bin/gnu/h-x86_64-mingw32/bin/../lib/gcc/nios2-elf/5.3.0/../../../../../H-x86_64-mingw32/nios2-elf/lib\libc.a(lib_a-malloc.o) (_free_r)
c:/intelfpga_lite/18.1/nios2eds/bin/gnu/h-x86_64-mingw32/bin/../lib/gcc/nios2-elf/5.3.0/../../../../../H-x86_64-mingw32/nios2-elf/lib\libc.a(lib_a-fvwrite.o)
                              c:/intelfpga_lite/18.1/nios2eds/bin/gnu/h-x86_64-mingw32/bin/../lib/gcc/nios2-elf/5.3.0/../../../../../H-x86_64-mingw32/nios2-elf/lib\libc.a(lib_a-fwrite.o) (__sfvwrite_r)
c:/intelfpga_lite/18.1/nios2eds/bin/gnu/h-x86_64-mingw32/bin/../lib/gcc/nios2-elf/5.3.0/../../../../../H-x86_64-mingw32/nios2-elf/lib\libc.a(lib_a-fwalk.o)
                              c:/intelfpga_lite/18.1/nios2eds/bin/gnu/h-x86_64-mingw32/bin/../lib/gcc/nios2-elf/5.3.0/../../../../../H-x86_64-mingw32/nios2-elf/lib\libc.a(lib_a-findfp.o) (_fwalk)
c:/intelfpga_lite/18.1/nios2eds/bin/gnu/h-x86_64-mingw32/bin/../lib/gcc/nios2-elf/5.3.0/../../../../../H-x86_64-mingw32/nios2-elf/lib\libc.a(lib_a-int_errno.o)
                              c:/intelfpga_lite/18.1/nios2eds/bin/gnu/h-x86_64-mingw32/bin/../lib/gcc/nios2-elf/5.3.0/../../../../../H-x86_64-mingw32/nios2-elf/lib\libc.a(lib_a-sbrkr.o) (errno)
c:/intelfpga_lite/18.1/nios2eds/bin/gnu/h-x86_64-mingw32/bin/../lib/gcc/nios2-elf/5.3.0/../../../../../H-x86_64-mingw32/nios2-elf/lib\libc.a(lib_a-locale.o)
                              c:/intelfpga_lite/18.1/nios2eds/bin/gnu/h-x86_64-mingw32/bin/../lib/gcc/nios2-elf/5.3.0/../../../../../H-x86_64-mingw32/nios2-elf/lib\libc.a(lib_a-svfprintf.o) (_localeconv_r)
c:/intelfpga_lite/18.1/nios2eds/bin/gnu/h-x86_64-mingw32/bin/../lib/gcc/nios2-elf/5.3.0/../../../../../H-x86_64-mingw32/nios2-elf/lib\libc.a(lib_a-makebuf.o)
                              c:/intelfpga_lite/18.1/nios2eds/bin/gnu/h-x86_64-mingw32/bin/../lib/gcc/nios2-elf/5.3.0/../../../../../H-x86_64-mingw32/nios2-elf/lib\libc.a(lib_a-wsetup.o) (__smakebuf_r)
c:/intelfpga_lite/18.1/nios2eds/bin/gnu/h-x86_64-mingw32/bin/../lib/gcc/nios2-elf/5.3.0/../../../../../H-x86_64-mingw32/nios2-elf/lib\libc.a(lib_a-memchr.o)
                              c:/intelfpga_lite/18.1/nios2eds/bin/gnu/h-x86_64-mingw32/bin/../lib/gcc/nios2-elf/5.3.0/../../../../../H-x86_64-mingw32/nios2-elf/lib\libc.a(lib_a-svfprintf.o) (memchr)
c:/intelfpga_lite/18.1/nios2eds/bin/gnu/h-x86_64-mingw32/bin/../lib/gcc/nios2-elf/5.3.0/../../../../../H-x86_64-mingw32/nios2-elf/lib\libc.a(lib_a-memmove.o)
                              c:/intelfpga_lite/18.1/nios2eds/bin/gnu/h-x86_64-mingw32/bin/../lib/gcc/nios2-elf/5.3.0/../../../../../H-x86_64-mingw32/nios2-elf/lib\libc.a(lib_a-fvwrite.o) (memmove)
c:/intelfpga_lite/18.1/nios2eds/bin/gnu/h-x86_64-mingw32/bin/../lib/gcc/nios2-elf/5.3.0/../../../../../H-x86_64-mingw32/nios2-elf/lib\libc.a(lib_a-mprec.o)
                              c:/intelfpga_lite/18.1/nios2eds/bin/gnu/h-x86_64-mingw32/bin/../lib/gcc/nios2-elf/5.3.0/../../../../../H-x86_64-mingw32/nios2-elf/lib\libc.a(lib_a-dtoa.o) (_Balloc)
c:/intelfpga_lite/18.1/nios2eds/bin/gnu/h-x86_64-mingw32/bin/../lib/gcc/nios2-elf/5.3.0/../../../../../H-x86_64-mingw32/nios2-elf/lib\libc.a(lib_a-putc.o)
                              c:/intelfpga_lite/18.1/nios2eds/bin/gnu/h-x86_64-mingw32/bin/../lib/gcc/nios2-elf/5.3.0/../../../../../H-x86_64-mingw32/nios2-elf/lib\libc.a(lib_a-fputc.o) (_putc_r)
c:/intelfpga_lite/18.1/nios2eds/bin/gnu/h-x86_64-mingw32/bin/../lib/gcc/nios2-elf/5.3.0/../../../../../H-x86_64-mingw32/nios2-elf/lib\libc.a(lib_a-reallocr.o)
                              c:/intelfpga_lite/18.1/nios2eds/bin/gnu/h-x86_64-mingw32/bin/../lib/gcc/nios2-elf/5.3.0/../../../../../H-x86_64-mingw32/nios2-elf/lib\libc.a(lib_a-fvwrite.o) (_realloc_r)
c:/intelfpga_lite/18.1/nios2eds/bin/gnu/h-x86_64-mingw32/bin/../lib/gcc/nios2-elf/5.3.0/../../../../../H-x86_64-mingw32/nios2-elf/lib\libc.a(lib_a-s_fpclassify.o)
                              c:/intelfpga_lite/18.1/nios2eds/bin/gnu/h-x86_64-mingw32/bin/../lib/gcc/nios2-elf/5.3.0/../../../../../H-x86_64-mingw32/nios2-elf/lib\libc.a(lib_a-svfprintf.o) (__fpclassifyd)
c:/intelfpga_lite/18.1/nios2eds/bin/gnu/h-x86_64-mingw32/bin/../lib/gcc/nios2-elf/5.3.0/../../../../../H-x86_64-mingw32/nios2-elf/lib\libc.a(lib_a-stdio.o)
                              c:/intelfpga_lite/18.1/nios2eds/bin/gnu/h-x86_64-mingw32/bin/../lib/gcc/nios2-elf/5.3.0/../../../../../H-x86_64-mingw32/nios2-elf/lib\libc.a(lib_a-findfp.o) (__sread)
c:/intelfpga_lite/18.1/nios2eds/bin/gnu/h-x86_64-mingw32/bin/../lib/gcc/nios2-elf/5.3.0/../../../../../H-x86_64-mingw32/nios2-elf/lib\libc.a(lib_a-svfiprintf.o)
                              c:/intelfpga_lite/18.1/nios2eds/bin/gnu/h-x86_64-mingw32/bin/../lib/gcc/nios2-elf/5.3.0/../../../../../H-x86_64-mingw32/nios2-elf/lib\libc.a(lib_a-svfprintf.o) (__ssprint_r)
c:/intelfpga_lite/18.1/nios2eds/bin/gnu/h-x86_64-mingw32/bin/../lib/gcc/nios2-elf/5.3.0/../../../../../H-x86_64-mingw32/nios2-elf/lib\libc.a(lib_a-vfiprintf.o)
                              c:/intelfpga_lite/18.1/nios2eds/bin/gnu/h-x86_64-mingw32/bin/../lib/gcc/nios2-elf/5.3.0/../../../../../H-x86_64-mingw32/nios2-elf/lib\libc.a(lib_a-vfprintf.o) (__sprint_r)
c:/intelfpga_lite/18.1/nios2eds/bin/gnu/h-x86_64-mingw32/bin/../lib/gcc/nios2-elf/5.3.0/../../../../../H-x86_64-mingw32/nios2-elf/lib\libc.a(lib_a-wbuf.o)
                              c:/intelfpga_lite/18.1/nios2eds/bin/gnu/h-x86_64-mingw32/bin/../lib/gcc/nios2-elf/5.3.0/../../../../../H-x86_64-mingw32/nios2-elf/lib\libc.a(lib_a-putc.o) (__swbuf_r)
c:/intelfpga_lite/18.1/nios2eds/bin/gnu/h-x86_64-mingw32/bin/../lib/gcc/nios2-elf/5.3.0/../../../../../H-x86_64-mingw32/nios2-elf/lib\libc.a(lib_a-writer.o)
                              c:/intelfpga_lite/18.1/nios2eds/bin/gnu/h-x86_64-mingw32/bin/../lib/gcc/nios2-elf/5.3.0/../../../../../H-x86_64-mingw32/nios2-elf/lib\libc.a(lib_a-stdio.o) (_write_r)
c:/intelfpga_lite/18.1/nios2eds/bin/gnu/h-x86_64-mingw32/bin/../lib/gcc/nios2-elf/5.3.0/../../../../../H-x86_64-mingw32/nios2-elf/lib\libc.a(closer.o)
                              c:/intelfpga_lite/18.1/nios2eds/bin/gnu/h-x86_64-mingw32/bin/../lib/gcc/nios2-elf/5.3.0/../../../../../H-x86_64-mingw32/nios2-elf/lib\libc.a(lib_a-stdio.o) (_close_r)
c:/intelfpga_lite/18.1/nios2eds/bin/gnu/h-x86_64-mingw32/bin/../lib/gcc/nios2-elf/5.3.0/../../../../../H-x86_64-mingw32/nios2-elf/lib\libc.a(lib_a-fclose.o)
                              c:/intelfpga_lite/18.1/nios2eds/bin/gnu/h-x86_64-mingw32/bin/../lib/gcc/nios2-elf/5.3.0/../../../../../H-x86_64-mingw32/nios2-elf/lib\libc.a(lib_a-findfp.o) (_fclose_r)
c:/intelfpga_lite/18.1/nios2eds/bin/gnu/h-x86_64-mingw32/bin/../lib/gcc/nios2-elf/5.3.0/../../../../../H-x86_64-mingw32/nios2-elf/lib\libc.a(lib_a-fputwc.o)
                              c:/intelfpga_lite/18.1/nios2eds/bin/gnu/h-x86_64-mingw32/bin/../lib/gcc/nios2-elf/5.3.0/../../../../../H-x86_64-mingw32/nios2-elf/lib\libc.a(lib_a-vfiprintf.o) (_fputwc_r)
c:/intelfpga_lite/18.1/nios2eds/bin/gnu/h-x86_64-mingw32/bin/../lib/gcc/nios2-elf/5.3.0/../../../../../H-x86_64-mingw32/nios2-elf/lib\libc.a(lib_a-fstatr.o)
                              c:/intelfpga_lite/18.1/nios2eds/bin/gnu/h-x86_64-mingw32/bin/../lib/gcc/nios2-elf/5.3.0/../../../../../H-x86_64-mingw32/nios2-elf/lib\libc.a(lib_a-makebuf.o) (_fstat_r)
c:/intelfpga_lite/18.1/nios2eds/bin/gnu/h-x86_64-mingw32/bin/../lib/gcc/nios2-elf/5.3.0/../../../../../H-x86_64-mingw32/nios2-elf/lib\libc.a(lib_a-isattyr.o)
                              c:/intelfpga_lite/18.1/nios2eds/bin/gnu/h-x86_64-mingw32/bin/../lib/gcc/nios2-elf/5.3.0/../../../../../H-x86_64-mingw32/nios2-elf/lib\libc.a(lib_a-makebuf.o) (_isatty_r)
c:/intelfpga_lite/18.1/nios2eds/bin/gnu/h-x86_64-mingw32/bin/../lib/gcc/nios2-elf/5.3.0/../../../../../H-x86_64-mingw32/nios2-elf/lib\libc.a(lib_a-lseekr.o)
                              c:/intelfpga_lite/18.1/nios2eds/bin/gnu/h-x86_64-mingw32/bin/../lib/gcc/nios2-elf/5.3.0/../../../../../H-x86_64-mingw32/nios2-elf/lib\libc.a(lib_a-stdio.o) (_lseek_r)
c:/intelfpga_lite/18.1/nios2eds/bin/gnu/h-x86_64-mingw32/bin/../lib/gcc/nios2-elf/5.3.0/../../../../../H-x86_64-mingw32/nios2-elf/lib\libc.a(lib_a-readr.o)
                              c:/intelfpga_lite/18.1/nios2eds/bin/gnu/h-x86_64-mingw32/bin/../lib/gcc/nios2-elf/5.3.0/../../../../../H-x86_64-mingw32/nios2-elf/lib\libc.a(lib_a-stdio.o) (_read_r)
c:/intelfpga_lite/18.1/nios2eds/bin/gnu/h-x86_64-mingw32/bin/../lib/gcc/nios2-elf/5.3.0/../../../../../H-x86_64-mingw32/nios2-elf/lib\libc.a(lib_a-wcrtomb.o)
                              c:/intelfpga_lite/18.1/nios2eds/bin/gnu/h-x86_64-mingw32/bin/../lib/gcc/nios2-elf/5.3.0/../../../../../H-x86_64-mingw32/nios2-elf/lib\libc.a(lib_a-fputwc.o) (_wcrtomb_r)
c:/intelfpga_lite/18.1/nios2eds/bin/gnu/h-x86_64-mingw32/bin/../lib/gcc/nios2-elf/5.3.0/../../../../../H-x86_64-mingw32/nios2-elf/lib\libc.a(lib_a-wctomb_r.o)
                              c:/intelfpga_lite/18.1/nios2eds/bin/gnu/h-x86_64-mingw32/bin/../lib/gcc/nios2-elf/5.3.0/../../../../../H-x86_64-mingw32/nios2-elf/lib\libc.a(lib_a-wcrtomb.o) (__wctomb)
c:/intelfpga_lite/18.1/nios2eds/bin/gnu/h-x86_64-mingw32/bin/../lib/gcc/nios2-elf/5.3.0\libgcc.a(_udivdi3.o)
                              c:/intelfpga_lite/18.1/nios2eds/bin/gnu/h-x86_64-mingw32/bin/../lib/gcc/nios2-elf/5.3.0/../../../../../H-x86_64-mingw32/nios2-elf/lib\libc.a(lib_a-svfprintf.o) (__udivdi3)
c:/intelfpga_lite/18.1/nios2eds/bin/gnu/h-x86_64-mingw32/bin/../lib/gcc/nios2-elf/5.3.0\libgcc.a(_umoddi3.o)
                              c:/intelfpga_lite/18.1/nios2eds/bin/gnu/h-x86_64-mingw32/bin/../lib/gcc/nios2-elf/5.3.0/../../../../../H-x86_64-mingw32/nios2-elf/lib\libc.a(lib_a-svfprintf.o) (__umoddi3)
c:/intelfpga_lite/18.1/nios2eds/bin/gnu/h-x86_64-mingw32/bin/../lib/gcc/nios2-elf/5.3.0\libgcc.a(eqdf2.o)
                              c:/intelfpga_lite/18.1/nios2eds/bin/gnu/h-x86_64-mingw32/bin/../lib/gcc/nios2-elf/5.3.0/../../../../../H-x86_64-mingw32/nios2-elf/lib\libc.a(lib_a-svfprintf.o) (__eqdf2)
c:/intelfpga_lite/18.1/nios2eds/bin/gnu/h-x86_64-mingw32/bin/../lib/gcc/nios2-elf/5.3.0\libgcc.a(gedf2.o)
                              c:/intelfpga_lite/18.1/nios2eds/bin/gnu/h-x86_64-mingw32/bin/../lib/gcc/nios2-elf/5.3.0/../../../../../H-x86_64-mingw32/nios2-elf/lib\libc.a(lib_a-dtoa.o) (__gedf2)
c:/intelfpga_lite/18.1/nios2eds/bin/gnu/h-x86_64-mingw32/bin/../lib/gcc/nios2-elf/5.3.0\libgcc.a(ledf2.o)
                              c:/intelfpga_lite/18.1/nios2eds/bin/gnu/h-x86_64-mingw32/bin/../lib/gcc/nios2-elf/5.3.0/../../../../../H-x86_64-mingw32/nios2-elf/lib\libc.a(lib_a-svfprintf.o) (__ltdf2)
c:/intelfpga_lite/18.1/nios2eds/bin/gnu/h-x86_64-mingw32/bin/../lib/gcc/nios2-elf/5.3.0\libgcc.a(subdf3.o)
                              c:/intelfpga_lite/18.1/nios2eds/bin/gnu/h-x86_64-mingw32/bin/../lib/gcc/nios2-elf/5.3.0/../../../../../H-x86_64-mingw32/nios2-elf/lib\libc.a(lib_a-dtoa.o) (__subdf3)
c:/intelfpga_lite/18.1/nios2eds/bin/gnu/h-x86_64-mingw32/bin/../lib/gcc/nios2-elf/5.3.0\libgcc.a(fixdfsi.o)
                              c:/intelfpga_lite/18.1/nios2eds/bin/gnu/h-x86_64-mingw32/bin/../lib/gcc/nios2-elf/5.3.0/../../../../../H-x86_64-mingw32/nios2-elf/lib\libc.a(lib_a-dtoa.o) (__fixdfsi)
../candy_avb_sss_bsp/\libucosii_bsp.a(alt_fstat.o)
                              c:/intelfpga_lite/18.1/nios2eds/bin/gnu/h-x86_64-mingw32/bin/../lib/gcc/nios2-elf/5.3.0/../../../../../H-x86_64-mingw32/nios2-elf/lib\libc.a(lib_a-fstatr.o) (fstat)
../candy_avb_sss_bsp/\libucosii_bsp.a(alt_isatty.o)
                              c:/intelfpga_lite/18.1/nios2eds/bin/gnu/h-x86_64-mingw32/bin/../lib/gcc/nios2-elf/5.3.0/../../../../../H-x86_64-mingw32/nios2-elf/lib\libc.a(lib_a-isattyr.o) (isatty)
../candy_avb_sss_bsp/\libucosii_bsp.a(alt_lseek.o)
                              c:/intelfpga_lite/18.1/nios2eds/bin/gnu/h-x86_64-mingw32/bin/../lib/gcc/nios2-elf/5.3.0/../../../../../H-x86_64-mingw32/nios2-elf/lib\libc.a(lib_a-lseekr.o) (lseek)
../candy_avb_sss_bsp/\libucosii_bsp.a(alt_main.o)
                              ../candy_avb_sss_bsp//obj/HAL/src/crt0.o (alt_main)
../candy_avb_sss_bsp/\libucosii_bsp.a(alt_sbrk.o)
                              c:/intelfpga_lite/18.1/nios2eds/bin/gnu/h-x86_64-mingw32/bin/../lib/gcc/nios2-elf/5.3.0/../../../../../H-x86_64-mingw32/nios2-elf/lib\libc.a(lib_a-sbrkr.o) (sbrk)
../candy_avb_sss_bsp/\libucosii_bsp.a(alt_usleep.o)
                              obj/default/SigmaStudioFW.o (usleep)
../candy_avb_sss_bsp/\libucosii_bsp.a(alt_env_lock.o)
                              ../candy_avb_sss_bsp/\libucosii_bsp.a(alt_main.o) (alt_envsem)
../candy_avb_sss_bsp/\libucosii_bsp.a(alt_malloc_lock.o)
                              ../candy_avb_sss_bsp/\libucosii_bsp.a(alt_main.o) (alt_heapsem)
../candy_avb_sss_bsp/\libucosii_bsp.a(os_core.o)
                              ../candy_avb_sss_bsp/\libucosii_bsp.a(alt_usleep.o) (OSRunning)
../candy_avb_sss_bsp/\libucosii_bsp.a(os_dbg.o)
                              ../candy_avb_sss_bsp/\libucosii_bsp.a(os_core.o) (OSDebugInit)
../candy_avb_sss_bsp/\libucosii_bsp.a(os_flag.o)
                              obj/default/osc_server.o (OSFlagCreate)
../candy_avb_sss_bsp/\libucosii_bsp.a(os_mem.o)
                              ../candy_avb_sss_bsp/\libucosii_bsp.a(os_core.o) (OS_MemInit)
../candy_avb_sss_bsp/\libucosii_bsp.a(os_q.o)
                              obj/default/osc_server.o (OSQCreate)
../candy_avb_sss_bsp/\libucosii_bsp.a(os_sem.o)
                              obj/default/osc_server.o (OSSemCreate)
../candy_avb_sss_bsp/\libucosii_bsp.a(os_task.o)
                              obj/default/iniche_init.o (OSTaskCreateExt)
../candy_avb_sss_bsp/\libucosii_bsp.a(os_time.o)
                              obj/default/iniche_init.o (OSTimeDly)
../candy_avb_sss_bsp/\libucosii_bsp.a(alt_sys_init.o)
                              ../candy_avb_sss_bsp/\libucosii_bsp.a(alt_main.o) (alt_irq_init)
../candy_avb_sss_bsp/\libucosii_bsp.a(altera_avalon_jtag_uart_fd.o)
                              ../candy_avb_sss_bsp/\libucosii_bsp.a(alt_sys_init.o) (altera_avalon_jtag_uart_read_fd)
../candy_avb_sss_bsp/\libucosii_bsp.a(altera_avalon_jtag_uart_init.o)
                              ../candy_avb_sss_bsp/\libucosii_bsp.a(alt_sys_init.o) (altera_avalon_jtag_uart_init)
../candy_avb_sss_bsp/\libucosii_bsp.a(altera_avalon_jtag_uart_ioctl.o)
                              ../candy_avb_sss_bsp/\libucosii_bsp.a(altera_avalon_jtag_uart_fd.o) (altera_avalon_jtag_uart_ioctl)
../candy_avb_sss_bsp/\libucosii_bsp.a(altera_avalon_jtag_uart_read.o)
                              ../candy_avb_sss_bsp/\libucosii_bsp.a(altera_avalon_jtag_uart_fd.o) (altera_avalon_jtag_uart_read)
../candy_avb_sss_bsp/\libucosii_bsp.a(altera_avalon_jtag_uart_write.o)
                              ../candy_avb_sss_bsp/\libucosii_bsp.a(altera_avalon_jtag_uart_fd.o) (altera_avalon_jtag_uart_write)
../candy_avb_sss_bsp/\libucosii_bsp.a(altera_avalon_timer_sc.o)
                              ../candy_avb_sss_bsp/\libucosii_bsp.a(alt_sys_init.o) (alt_avalon_timer_sc_init)
../candy_avb_sss_bsp/\libucosii_bsp.a(altera_avalon_uart_fd.o)
                              ../candy_avb_sss_bsp/\libucosii_bsp.a(alt_sys_init.o) (altera_avalon_uart_read_fd)
../candy_avb_sss_bsp/\libucosii_bsp.a(altera_avalon_uart_init.o)
                              ../candy_avb_sss_bsp/\libucosii_bsp.a(alt_sys_init.o) (altera_avalon_uart_init)
../candy_avb_sss_bsp/\libucosii_bsp.a(altera_avalon_uart_read.o)
                              ../candy_avb_sss_bsp/\libucosii_bsp.a(altera_avalon_uart_fd.o) (altera_avalon_uart_read)
../candy_avb_sss_bsp/\libucosii_bsp.a(altera_avalon_uart_write.o)
                              ../candy_avb_sss_bsp/\libucosii_bsp.a(altera_avalon_uart_fd.o) (altera_avalon_uart_write)
../candy_avb_sss_bsp/\libucosii_bsp.a(altera_modular_adc.o)
                              obj/default/sigmadsp.o (alt_adc_word_read)
../candy_avb_sss_bsp/\libucosii_bsp.a(altera_msgdma.o)
                              ../candy_avb_sss_bsp/\libucosii_bsp.a(alt_sys_init.o) (alt_msgdma_init)
../candy_avb_sss_bsp/\libucosii_bsp.a(altera_onchip_flash.o)
                              ../candy_avb_sss_bsp/\libucosii_bsp.a(alt_sys_init.o) (alt_onchip_flash_read)
../candy_avb_sss_bsp/\libucosii_bsp.a(ins_tse_mac.o)
                              ../candy_avb_sss_bsp/\libucosii_bsp.a(alt_sys_init.o) (number_of_tse_mac)
../candy_avb_sss_bsp/\libucosii_bsp.a(alt_iniche_close.o)
                              c:/intelfpga_lite/18.1/nios2eds/bin/gnu/h-x86_64-mingw32/bin/../lib/gcc/nios2-elf/5.3.0/../../../../../H-x86_64-mingw32/nios2-elf/lib\libc.a(closer.o) (close)
../candy_avb_sss_bsp/\libucosii_bsp.a(alt_iniche_dev.o)
                              ../candy_avb_sss_bsp/\libucosii_bsp.a(alt_sys_init.o) (alt_iniche_dev_list)
../candy_avb_sss_bsp/\libucosii_bsp.a(alt_iniche_read.o)
                              c:/intelfpga_lite/18.1/nios2eds/bin/gnu/h-x86_64-mingw32/bin/../lib/gcc/nios2-elf/5.3.0/../../../../../H-x86_64-mingw32/nios2-elf/lib\libc.a(lib_a-readr.o) (read)
../candy_avb_sss_bsp/\libucosii_bsp.a(alt_iniche_write.o)
                              c:/intelfpga_lite/18.1/nios2eds/bin/gnu/h-x86_64-mingw32/bin/../lib/gcc/nios2-elf/5.3.0/../../../../../H-x86_64-mingw32/nios2-elf/lib\libc.a(lib_a-writer.o) (write)
../candy_avb_sss_bsp/\libucosii_bsp.a(ipnet.o)
                              ../candy_avb_sss_bsp/\libucosii_bsp.a(ins_tse_mac.o) (rcvdq)
../candy_avb_sss_bsp/\libucosii_bsp.a(ipstart.o)
                              ../candy_avb_sss_bsp/\libucosii_bsp.a(ins_tse_mac.o) (nets)
../candy_avb_sss_bsp/\libucosii_bsp.a(igmp_cmn.o)
                              ../candy_avb_sss_bsp/\libucosii_bsp.a(ipstart.o) (igmp_all_hosts_group)
../candy_avb_sss_bsp/\libucosii_bsp.a(bsdsock.o)
                              obj/default/osc_server.o (bsd_recvfrom)
../candy_avb_sss_bsp/\libucosii_bsp.a(cksum.o)
                              ../candy_avb_sss_bsp/\libucosii_bsp.a(igmp_cmn.o) (cksum)
../candy_avb_sss_bsp/\libucosii_bsp.a(in_utils.o)
                              ../candy_avb_sss_bsp/\libucosii_bsp.a(ins_tse_mac.o) (ns_printf)
../candy_avb_sss_bsp/\libucosii_bsp.a(netmain.o)
                              obj/default/iniche_init.o (iniche_net_ready)
../candy_avb_sss_bsp/\libucosii_bsp.a(tk_crnos.o)
                              ../candy_avb_sss_bsp/\libucosii_bsp.a(ipnet.o) (tk_yield)
../candy_avb_sss_bsp/\libucosii_bsp.a(dhcpclnt.o)
                              ../candy_avb_sss_bsp/\libucosii_bsp.a(netmain.o) (dhc_second)
../candy_avb_sss_bsp/\libucosii_bsp.a(dhcputil.o)
                              ../candy_avb_sss_bsp/\libucosii_bsp.a(dhcpclnt.o) (find_opt)
../candy_avb_sss_bsp/\libucosii_bsp.a(pktalloc.o)
                              ../candy_avb_sss_bsp/\libucosii_bsp.a(ipnet.o) (bigfreeq)
../candy_avb_sss_bsp/\libucosii_bsp.a(q.o)
                              ../candy_avb_sss_bsp/\libucosii_bsp.a(ipnet.o) (getq)
../candy_avb_sss_bsp/\libucosii_bsp.a(udp_open.o)
                              ../candy_avb_sss_bsp/\libucosii_bsp.a(dhcpclnt.o) (udp_open)
../candy_avb_sss_bsp/\libucosii_bsp.a(asm_cksum.o)
                              ../candy_avb_sss_bsp/\libucosii_bsp.a(cksum.o) (asm_cksum)
../candy_avb_sss_bsp/\libucosii_bsp.a(brdutils.o)
                              ../candy_avb_sss_bsp/\libucosii_bsp.a(ipnet.o) (dtrap)
../candy_avb_sss_bsp/\libucosii_bsp.a(osportco.o)
                              ../candy_avb_sss_bsp/\libucosii_bsp.a(ins_tse_mac.o) (cticks)
../candy_avb_sss_bsp/\libucosii_bsp.a(targnios.o)
                              ../candy_avb_sss_bsp/\libucosii_bsp.a(ins_tse_mac.o) (rcvdq_sem_ptr)
../candy_avb_sss_bsp/\libucosii_bsp.a(nptcp.o)
                              ../candy_avb_sss_bsp/\libucosii_bsp.a(bsdsock.o) (soq)
../candy_avb_sss_bsp/\libucosii_bsp.a(rawsock.o)
                              ../candy_avb_sss_bsp/\libucosii_bsp.a(nptcp.o) (rawip_usrreq)
../candy_avb_sss_bsp/\libucosii_bsp.a(sockcall.o)
                              obj/default/osc_server.o (t_socket)
../candy_avb_sss_bsp/\libucosii_bsp.a(socket.o)
                              ../candy_avb_sss_bsp/\libucosii_bsp.a(sockcall.o) (socreate)
../candy_avb_sss_bsp/\libucosii_bsp.a(socket2.o)
                              ../candy_avb_sss_bsp/\libucosii_bsp.a(sockcall.o) (soqremque)
../candy_avb_sss_bsp/\libucosii_bsp.a(soselect.o)
                              ../candy_avb_sss_bsp/\libucosii_bsp.a(bsdsock.o) (t_select)
../candy_avb_sss_bsp/\libucosii_bsp.a(tcp_in.o)
                              ../candy_avb_sss_bsp/\libucosii_bsp.a(nptcp.o) (tcp_input)
../candy_avb_sss_bsp/\libucosii_bsp.a(tcp_out.o)
                              ../candy_avb_sss_bsp/\libucosii_bsp.a(tcp_in.o) (tcp_output)
../candy_avb_sss_bsp/\libucosii_bsp.a(tcp_subr.o)
                              ../candy_avb_sss_bsp/\libucosii_bsp.a(nptcp.o) (tcpstat)
../candy_avb_sss_bsp/\libucosii_bsp.a(tcp_timr.o)
                              ../candy_avb_sss_bsp/\libucosii_bsp.a(tcp_in.o) (tcp_keepidle)
../candy_avb_sss_bsp/\libucosii_bsp.a(tcp_usr.o)
                              ../candy_avb_sss_bsp/\libucosii_bsp.a(nptcp.o) (tcp_usrreq)
../candy_avb_sss_bsp/\libucosii_bsp.a(tcpport.o)
                              ../candy_avb_sss_bsp/\libucosii_bsp.a(ipstart.o) (tcpinit)
../candy_avb_sss_bsp/\libucosii_bsp.a(udpsock.o)
                              ../candy_avb_sss_bsp/\libucosii_bsp.a(nptcp.o) (udp_usrreq)
../candy_avb_sss_bsp/\libucosii_bsp.a(alt_alarm_start.o)
                              ../candy_avb_sss_bsp/\libucosii_bsp.a(altera_avalon_jtag_uart_init.o) (alt_alarm_start)
../candy_avb_sss_bsp/\libucosii_bsp.a(alt_busy_sleep.o)
                              ../candy_avb_sss_bsp/\libucosii_bsp.a(alt_usleep.o) (alt_busy_sleep)
../candy_avb_sss_bsp/\libucosii_bsp.a(alt_close.o)
                              ../candy_avb_sss_bsp/\libucosii_bsp.a(alt_iniche_close.o) (alt_close)
../candy_avb_sss_bsp/\libucosii_bsp.a(alt_dcache_flush.o)
                              ../candy_avb_sss_bsp/\libucosii_bsp.a(altera_msgdma.o) (alt_dcache_flush)
../candy_avb_sss_bsp/\libucosii_bsp.a(alt_dev.o)
                              ../candy_avb_sss_bsp/\libucosii_bsp.a(alt_sys_init.o) (alt_dev_list)
../candy_avb_sss_bsp/\libucosii_bsp.a(alt_dev_llist_insert.o)
                              ../candy_avb_sss_bsp/\libucosii_bsp.a(alt_sys_init.o) (alt_dev_llist_insert)
../candy_avb_sss_bsp/\libucosii_bsp.a(alt_do_ctors.o)
                              ../candy_avb_sss_bsp/\libucosii_bsp.a(alt_main.o) (_do_ctors)
../candy_avb_sss_bsp/\libucosii_bsp.a(alt_do_dtors.o)
                              ../candy_avb_sss_bsp/\libucosii_bsp.a(alt_main.o) (_do_dtors)
../candy_avb_sss_bsp/\libucosii_bsp.a(alt_errno.o)
                              ../candy_avb_sss_bsp/\libucosii_bsp.a(alt_fstat.o) (alt_errno)
../candy_avb_sss_bsp/\libucosii_bsp.a(alt_find_dev.o)
                              ../candy_avb_sss_bsp/\libucosii_bsp.a(altera_modular_adc.o) (alt_find_dev)
../candy_avb_sss_bsp/\libucosii_bsp.a(alt_flash_dev.o)
                              ../candy_avb_sss_bsp/\libucosii_bsp.a(altera_onchip_flash.o) (alt_flash_dev_list)
../candy_avb_sss_bsp/\libucosii_bsp.a(alt_iic.o)
                              ../candy_avb_sss_bsp/\libucosii_bsp.a(altera_avalon_jtag_uart_init.o) (alt_ic_isr_register)
../candy_avb_sss_bsp/\libucosii_bsp.a(alt_iic_isr_register.o)
                              ../candy_avb_sss_bsp/\libucosii_bsp.a(alt_iic.o) (alt_iic_isr_register)
../candy_avb_sss_bsp/\libucosii_bsp.a(alt_io_redirect.o)
                              ../candy_avb_sss_bsp/\libucosii_bsp.a(alt_main.o) (alt_io_redirect)
../candy_avb_sss_bsp/\libucosii_bsp.a(alt_irq_entry.o)
                              ../candy_avb_sss_bsp/\libucosii_bsp.a(alt_iic_isr_register.o) (alt_irq_entry)
../candy_avb_sss_bsp/\libucosii_bsp.a(alt_irq_handler.o)
                              ../candy_avb_sss_bsp/\libucosii_bsp.a(alt_iic_isr_register.o) (alt_irq)
../candy_avb_sss_bsp/\libucosii_bsp.a(alt_irq_vars.o)
                              ../candy_avb_sss_bsp/\libucosii_bsp.a(alt_iic.o) (alt_irq_active)
../candy_avb_sss_bsp/\libucosii_bsp.a(alt_open.o)
                              ../candy_avb_sss_bsp/\libucosii_bsp.a(alt_io_redirect.o) (open)
../candy_avb_sss_bsp/\libucosii_bsp.a(alt_printf.o)
                              ../candy_avb_sss_bsp/\libucosii_bsp.a(altera_msgdma.o) (alt_printf)
../candy_avb_sss_bsp/\libucosii_bsp.a(alt_putchar.o)
                              ../candy_avb_sss_bsp/\libucosii_bsp.a(alt_printf.o) (alt_putchar)
../candy_avb_sss_bsp/\libucosii_bsp.a(alt_read.o)
                              ../candy_avb_sss_bsp/\libucosii_bsp.a(alt_iniche_read.o) (alt_read)
../candy_avb_sss_bsp/\libucosii_bsp.a(alt_release_fd.o)
                              ../candy_avb_sss_bsp/\libucosii_bsp.a(alt_close.o) (alt_release_fd)
../candy_avb_sss_bsp/\libucosii_bsp.a(alt_remap_cached.o)
                              ../candy_avb_sss_bsp/\libucosii_bsp.a(ins_tse_mac.o) (alt_remap_cached)
../candy_avb_sss_bsp/\libucosii_bsp.a(alt_tick.o)
                              ../candy_avb_sss_bsp/\libucosii_bsp.a(alt_usleep.o) (_alt_tick_rate)
../candy_avb_sss_bsp/\libucosii_bsp.a(alt_uncached_free.o)
                              ../candy_avb_sss_bsp/\libucosii_bsp.a(targnios.o) (alt_uncached_free)
../candy_avb_sss_bsp/\libucosii_bsp.a(alt_uncached_malloc.o)
                              ../candy_avb_sss_bsp/\libucosii_bsp.a(ins_tse_mac.o) (alt_uncached_malloc)
../candy_avb_sss_bsp/\libucosii_bsp.a(alt_write.o)
                              ../candy_avb_sss_bsp/\libucosii_bsp.a(alt_iniche_write.o) (alt_write)
../candy_avb_sss_bsp/\libucosii_bsp.a(altera_nios2_gen2_irq.o)
                              ../candy_avb_sss_bsp/\libucosii_bsp.a(alt_sys_init.o) (altera_nios2_gen2_irq_init)
../candy_avb_sss_bsp/\libucosii_bsp.a(os_cpu_a.o)
                              ../candy_avb_sss_bsp/\libucosii_bsp.a(os_core.o) (OSIntCtxSw)
../candy_avb_sss_bsp/\libucosii_bsp.a(os_cpu_c.o)
                              ../candy_avb_sss_bsp/\libucosii_bsp.a(os_task.o) (OSTaskStkInit)
../candy_avb_sss_bsp/\libucosii_bsp.a(altera_avalon_tse.o)
                              ../candy_avb_sss_bsp/\libucosii_bsp.a(ins_tse_mac.o) (tse_mac_initTransInfo2)
../candy_avb_sss_bsp/\libucosii_bsp.a(allports.o)
                              ../candy_avb_sss_bsp/\libucosii_bsp.a(dhcpclnt.o) (name)
../candy_avb_sss_bsp/\libucosii_bsp.a(timeouts.o)
                              ../candy_avb_sss_bsp/\libucosii_bsp.a(netmain.o) (inet_timer)
../candy_avb_sss_bsp/\libucosii_bsp.a(tk_misc.o)
                              ../candy_avb_sss_bsp/\libucosii_bsp.a(netmain.o) (create_apptasks)
../candy_avb_sss_bsp/\libucosii_bsp.a(alt_iniche_fcntl.o)
                              ../candy_avb_sss_bsp/\libucosii_bsp.a(brdutils.o) (fcntl)
../candy_avb_sss_bsp/\libucosii_bsp.a(et_arp.o)
                              ../candy_avb_sss_bsp/\libucosii_bsp.a(ipstart.o) (etainit)
../candy_avb_sss_bsp/\libucosii_bsp.a(iface.o)
                              ../candy_avb_sss_bsp/\libucosii_bsp.a(ipnet.o) (netlist)
../candy_avb_sss_bsp/\libucosii_bsp.a(ip.o)
                              ../candy_avb_sss_bsp/\libucosii_bsp.a(igmp_cmn.o) (ip_mib)
../candy_avb_sss_bsp/\libucosii_bsp.a(ip_reasm.o)
                              ../candy_avb_sss_bsp/\libucosii_bsp.a(timeouts.o) (ire_cticks)
../candy_avb_sss_bsp/\libucosii_bsp.a(ipdemux.o)
                              ../candy_avb_sss_bsp/\libucosii_bsp.a(ipnet.o) (ip_rcv)
../candy_avb_sss_bsp/\libucosii_bsp.a(ipmc.o)
                              ../candy_avb_sss_bsp/\libucosii_bsp.a(ipstart.o) (in_addmulti)
../candy_avb_sss_bsp/\libucosii_bsp.a(ipport.o)
                              ../candy_avb_sss_bsp/\libucosii_bsp.a(targnios.o) (port_prep)
../candy_avb_sss_bsp/\libucosii_bsp.a(ipraw.o)
                              ../candy_avb_sss_bsp/\libucosii_bsp.a(rawsock.o) (ipraw_eps)
../candy_avb_sss_bsp/\libucosii_bsp.a(iproute.o)
                              ../candy_avb_sss_bsp/\libucosii_bsp.a(ip.o) (cachedRoute)
../candy_avb_sss_bsp/\libucosii_bsp.a(udp.o)
                              ../candy_avb_sss_bsp/\libucosii_bsp.a(ipdemux.o) (udpdemux)
../candy_avb_sss_bsp/\libucosii_bsp.a(igmp.o)
                              ../candy_avb_sss_bsp/\libucosii_bsp.a(igmp_cmn.o) (igmpv1_input)
../candy_avb_sss_bsp/\libucosii_bsp.a(igmp2.o)
                              ../candy_avb_sss_bsp/\libucosii_bsp.a(igmp_cmn.o) (igmpv2_input)
../candy_avb_sss_bsp/\libucosii_bsp.a(ipopt.o)
                              ../candy_avb_sss_bsp/\libucosii_bsp.a(socket.o) (ip_setmoptions)
../candy_avb_sss_bsp/\libucosii_bsp.a(u_mctest.o)
                              ../candy_avb_sss_bsp/\libucosii_bsp.a(allports.o) (u_mctest_init)
../candy_avb_sss_bsp/\libucosii_bsp.a(dhcsetup.o)
                              ../candy_avb_sss_bsp/\libucosii_bsp.a(allports.o) (dhc_setup)
../candy_avb_sss_bsp/\libucosii_bsp.a(memdev.o)
                              ../candy_avb_sss_bsp/\libucosii_bsp.a(allports.o) (init_memdev)
../candy_avb_sss_bsp/\libucosii_bsp.a(parseip.o)
                              ../candy_avb_sss_bsp/\libucosii_bsp.a(u_mctest.o) (inet_addr)
../candy_avb_sss_bsp/\libucosii_bsp.a(tcpcksum.o)
                              ../candy_avb_sss_bsp/\libucosii_bsp.a(nptcp.o) (tcp_cksum)
../candy_avb_sss_bsp/\libucosii_bsp.a(in_pcb.o)
                              ../candy_avb_sss_bsp/\libucosii_bsp.a(tcp_usr.o) (in_pcballoc)
../candy_avb_sss_bsp/\libucosii_bsp.a(vfsfiles.o)
                              ../candy_avb_sss_bsp/\libucosii_bsp.a(memdev.o) (vfsystems)
../candy_avb_sss_bsp/\libucosii_bsp.a(vfsport.o)
                              ../candy_avb_sss_bsp/\libucosii_bsp.a(allports.o) (prep_vfs)
../candy_avb_sss_bsp/\libucosii_bsp.a(alt_exception_entry.o)
                              ../candy_avb_sss_bsp/\libucosii_bsp.a(alt_irq_entry.o) (alt_exception)
../candy_avb_sss_bsp/\libucosii_bsp.a(alt_fcntl.o)
                              ../candy_avb_sss_bsp/\libucosii_bsp.a(alt_iniche_fcntl.o) (alt_fcntl)
../candy_avb_sss_bsp/\libucosii_bsp.a(alt_find_file.o)
                              ../candy_avb_sss_bsp/\libucosii_bsp.a(alt_open.o) (alt_find_file)
../candy_avb_sss_bsp/\libucosii_bsp.a(alt_get_fd.o)
                              ../candy_avb_sss_bsp/\libucosii_bsp.a(alt_open.o) (alt_get_fd)
../candy_avb_sss_bsp/\libucosii_bsp.a(alt_instruction_exception_entry.o)
                              ../candy_avb_sss_bsp/\libucosii_bsp.a(alt_exception_entry.o) (alt_instruction_exception_entry)
../candy_avb_sss_bsp/\libucosii_bsp.a(icmp.o)
                              ../candy_avb_sss_bsp/\libucosii_bsp.a(ipdemux.o) (icmprcv)
c:/intelfpga_lite/18.1/nios2eds/bin/gnu/h-x86_64-mingw32/bin/../lib/gcc/nios2-elf/5.3.0/../../../../../H-x86_64-mingw32/nios2-elf/lib\libc.a(lib_a-atexit.o)
                              ../candy_avb_sss_bsp/\libucosii_bsp.a(alt_main.o) (atexit)
c:/intelfpga_lite/18.1/nios2eds/bin/gnu/h-x86_64-mingw32/bin/../lib/gcc/nios2-elf/5.3.0/../../../../../H-x86_64-mingw32/nios2-elf/lib\libc.a(lib_a-atoi.o)
                              ../candy_avb_sss_bsp/\libucosii_bsp.a(parseip.o) (atoi)
c:/intelfpga_lite/18.1/nios2eds/bin/gnu/h-x86_64-mingw32/bin/../lib/gcc/nios2-elf/5.3.0/../../../../../H-x86_64-mingw32/nios2-elf/lib\libc.a(lib_a-exit.o)
                              ../candy_avb_sss_bsp/\libucosii_bsp.a(alt_main.o) (exit)
c:/intelfpga_lite/18.1/nios2eds/bin/gnu/h-x86_64-mingw32/bin/../lib/gcc/nios2-elf/5.3.0/../../../../../H-x86_64-mingw32/nios2-elf/lib\libc.a(lib_a-getc.o)
                              ../candy_avb_sss_bsp/\libucosii_bsp.a(brdutils.o) (getc)
c:/intelfpga_lite/18.1/nios2eds/bin/gnu/h-x86_64-mingw32/bin/../lib/gcc/nios2-elf/5.3.0/../../../../../H-x86_64-mingw32/nios2-elf/lib\libc.a(lib_a-malign.o)
                              ../candy_avb_sss_bsp/\libucosii_bsp.a(alt_uncached_malloc.o) (memalign)
c:/intelfpga_lite/18.1/nios2eds/bin/gnu/h-x86_64-mingw32/bin/../lib/gcc/nios2-elf/5.3.0/../../../../../H-x86_64-mingw32/nios2-elf/lib\libc.a(lib_a-malignr.o)
                              c:/intelfpga_lite/18.1/nios2eds/bin/gnu/h-x86_64-mingw32/bin/../lib/gcc/nios2-elf/5.3.0/../../../../../H-x86_64-mingw32/nios2-elf/lib\libc.a(lib_a-malign.o) (_memalign_r)
c:/intelfpga_lite/18.1/nios2eds/bin/gnu/h-x86_64-mingw32/bin/../lib/gcc/nios2-elf/5.3.0/../../../../../H-x86_64-mingw32/nios2-elf/lib\libc.a(lib_a-memcmp.o)
                              ../candy_avb_sss_bsp/\libucosii_bsp.a(altera_onchip_flash.o) (memcmp)
c:/intelfpga_lite/18.1/nios2eds/bin/gnu/h-x86_64-mingw32/bin/../lib/gcc/nios2-elf/5.3.0/../../../../../H-x86_64-mingw32/nios2-elf/lib\libc.a(lib_a-putchar.o)
                              ../candy_avb_sss_bsp/\libucosii_bsp.a(altera_avalon_tse.o) (putchar)
c:/intelfpga_lite/18.1/nios2eds/bin/gnu/h-x86_64-mingw32/bin/../lib/gcc/nios2-elf/5.3.0/../../../../../H-x86_64-mingw32/nios2-elf/lib\libc.a(lib_a-rget.o)
                              c:/intelfpga_lite/18.1/nios2eds/bin/gnu/h-x86_64-mingw32/bin/../lib/gcc/nios2-elf/5.3.0/../../../../../H-x86_64-mingw32/nios2-elf/lib\libc.a(lib_a-getc.o) (__srget_r)
c:/intelfpga_lite/18.1/nios2eds/bin/gnu/h-x86_64-mingw32/bin/../lib/gcc/nios2-elf/5.3.0/../../../../../H-x86_64-mingw32/nios2-elf/lib\libc.a(lib_a-strcpy.o)
                              ../candy_avb_sss_bsp/\libucosii_bsp.a(altera_avalon_tse.o) (strcpy)
c:/intelfpga_lite/18.1/nios2eds/bin/gnu/h-x86_64-mingw32/bin/../lib/gcc/nios2-elf/5.3.0/../../../../../H-x86_64-mingw32/nios2-elf/lib\libc.a(lib_a-strncmp.o)
                              ../candy_avb_sss_bsp/\libucosii_bsp.a(vfsfiles.o) (strncmp)
c:/intelfpga_lite/18.1/nios2eds/bin/gnu/h-x86_64-mingw32/bin/../lib/gcc/nios2-elf/5.3.0/../../../../../H-x86_64-mingw32/nios2-elf/lib\libc.a(lib_a-strncpy.o)
                              ../candy_avb_sss_bsp/\libucosii_bsp.a(dhcpclnt.o) (strncpy)
c:/intelfpga_lite/18.1/nios2eds/bin/gnu/h-x86_64-mingw32/bin/../lib/gcc/nios2-elf/5.3.0/../../../../../H-x86_64-mingw32/nios2-elf/lib\libc.a(lib_a-strtol.o)
                              c:/intelfpga_lite/18.1/nios2eds/bin/gnu/h-x86_64-mingw32/bin/../lib/gcc/nios2-elf/5.3.0/../../../../../H-x86_64-mingw32/nios2-elf/lib\libc.a(lib_a-atoi.o) (_strtol_r)
c:/intelfpga_lite/18.1/nios2eds/bin/gnu/h-x86_64-mingw32/bin/../lib/gcc/nios2-elf/5.3.0/../../../../../H-x86_64-mingw32/nios2-elf/lib\libc.a(lib_a-vprintf.o)
                              ../candy_avb_sss_bsp/\libucosii_bsp.a(in_utils.o) (vprintf)
c:/intelfpga_lite/18.1/nios2eds/bin/gnu/h-x86_64-mingw32/bin/../lib/gcc/nios2-elf/5.3.0/../../../../../H-x86_64-mingw32/nios2-elf/lib\libc.a(lib_a-vsprintf.o)
                              ../candy_avb_sss_bsp/\libucosii_bsp.a(in_utils.o) (vsprintf)
c:/intelfpga_lite/18.1/nios2eds/bin/gnu/h-x86_64-mingw32/bin/../lib/gcc/nios2-elf/5.3.0/../../../../../H-x86_64-mingw32/nios2-elf/lib\libc.a(lib_a-__atexit.o)
                              c:/intelfpga_lite/18.1/nios2eds/bin/gnu/h-x86_64-mingw32/bin/../lib/gcc/nios2-elf/5.3.0/../../../../../H-x86_64-mingw32/nios2-elf/lib\libc.a(lib_a-atexit.o) (__register_exitproc)
c:/intelfpga_lite/18.1/nios2eds/bin/gnu/h-x86_64-mingw32/bin/../lib/gcc/nios2-elf/5.3.0/../../../../../H-x86_64-mingw32/nios2-elf/lib\libc.a(lib_a-__call_atexit.o)
                              c:/intelfpga_lite/18.1/nios2eds/bin/gnu/h-x86_64-mingw32/bin/../lib/gcc/nios2-elf/5.3.0/../../../../../H-x86_64-mingw32/nios2-elf/lib\libc.a(lib_a-exit.o) (__call_exitprocs)
c:/intelfpga_lite/18.1/nios2eds/bin/gnu/h-x86_64-mingw32/bin/../lib/gcc/nios2-elf/5.3.0/../../../../../H-x86_64-mingw32/nios2-elf/lib\libc.a(lib_a-ctype_.o)
                              c:/intelfpga_lite/18.1/nios2eds/bin/gnu/h-x86_64-mingw32/bin/../lib/gcc/nios2-elf/5.3.0/../../../../../H-x86_64-mingw32/nios2-elf/lib\libc.a(lib_a-strtol.o) (__ctype_ptr__)
c:/intelfpga_lite/18.1/nios2eds/bin/gnu/h-x86_64-mingw32/bin/../lib/gcc/nios2-elf/5.3.0/../../../../../H-x86_64-mingw32/nios2-elf/lib\libc.a(lib_a-refill.o)
                              c:/intelfpga_lite/18.1/nios2eds/bin/gnu/h-x86_64-mingw32/bin/../lib/gcc/nios2-elf/5.3.0/../../../../../H-x86_64-mingw32/nios2-elf/lib\libc.a(lib_a-rget.o) (__srefill_r)
c:/intelfpga_lite/18.1/nios2eds/bin/gnu/h-x86_64-mingw32/bin/../lib/gcc/nios2-elf/5.3.0/../../../../../H-x86_64-mingw32/nios2-elf/lib\libc.a(lib_a-vfprintfr_1.o)
                              c:/intelfpga_lite/18.1/nios2eds/bin/gnu/h-x86_64-mingw32/bin/../lib/gcc/nios2-elf/5.3.0/../../../../../H-x86_64-mingw32/nios2-elf/lib\libc.a(lib_a-vprintf.o) (_vfprintf_r)
../candy_avb_sss_bsp/\libucosii_bsp.a(alt_exit.o)
                              c:/intelfpga_lite/18.1/nios2eds/bin/gnu/h-x86_64-mingw32/bin/../lib/gcc/nios2-elf/5.3.0/../../../../../H-x86_64-mingw32/nios2-elf/lib\libc.a(lib_a-exit.o) (_exit)

Allocating common symbols
Common symbol       size              file

soq                 0x14              ../candy_avb_sss_bsp/\libucosii_bsp.a(nptcp.o)
SigmaDSPEventFlag   0x4               obj/default/osc_server.o
alt_irq             0x100             ../candy_avb_sss_bsp/\libucosii_bsp.a(alt_irq_handler.o)
tcp_optionbuf       0x4               ../candy_avb_sss_bsp/\libucosii_bsp.a(tcp_out.o)
eth_tse_0_if        0xe0              ../candy_avb_sss_bsp/\libucosii_bsp.a(alt_sys_init.o)
rt_mib              0x4               ../candy_avb_sss_bsp/\libucosii_bsp.a(ip.o)
so_evtmap_create    0x4               ../candy_avb_sss_bsp/\libucosii_bsp.a(ipport.o)
OSLockNesting       0x1               ../candy_avb_sss_bsp/\libucosii_bsp.a(os_core.o)
tcb                 0x2c              ../candy_avb_sss_bsp/\libucosii_bsp.a(tcp_subr.o)
OSRunning           0x1               ../candy_avb_sss_bsp/\libucosii_bsp.a(os_core.o)
dhc_states          0xf0              ../candy_avb_sss_bsp/\libucosii_bsp.a(dhcpclnt.o)
tcpstat             0xe0              ../candy_avb_sss_bsp/\libucosii_bsp.a(tcp_subr.o)
OSIdleCtr           0x4               ../candy_avb_sss_bsp/\libucosii_bsp.a(os_core.o)
udp_mib             0x10              ../candy_avb_sss_bsp/\libucosii_bsp.a(udp.o)
to_netmain          0x1               ../candy_avb_sss_bsp/\libucosii_bsp.a(netmain.o)
OSPrioHighRdy       0x1               ../candy_avb_sss_bsp/\libucosii_bsp.a(os_core.o)
errno               0x4               c:/intelfpga_lite/18.1/nios2eds/bin/gnu/h-x86_64-mingw32/bin/../lib/gcc/nios2-elf/5.3.0/../../../../../H-x86_64-mingw32/nios2-elf/lib\libc.a(lib_a-int_errno.o)
lilfreeq            0x14              ../candy_avb_sss_bsp/\libucosii_bsp.a(pktalloc.o)
icmp_mib            0x68              ../candy_avb_sss_bsp/\libucosii_bsp.a(icmp.o)
pmac_groups         0x10              ../candy_avb_sss_bsp/\libucosii_bsp.a(altera_avalon_tse.o)
resid_semaphore     0x40              ../candy_avb_sss_bsp/\libucosii_bsp.a(targnios.o)
alt_heapsem         0x4               ../candy_avb_sss_bsp/\libucosii_bsp.a(alt_malloc_lock.o)
OSFlagTbl           0x370             ../candy_avb_sss_bsp/\libucosii_bsp.a(os_core.o)
mbstat              0x8               ../candy_avb_sss_bsp/\libucosii_bsp.a(nptcp.o)
netq_intmask        0x4               ../candy_avb_sss_bsp/\libucosii_bsp.a(osportco.o)
SigmaDSPCommandQ    0x4               obj/default/osc_server.o
select_wait         0x2               ../candy_avb_sss_bsp/\libucosii_bsp.a(nptcp.o)
tse_iniche_dev_driver_data
                    0x30              ../candy_avb_sss_bsp/\libucosii_bsp.a(ins_tse_mac.o)
tcpmib              0x3c              ../candy_avb_sss_bsp/\libucosii_bsp.a(nptcp.o)
OSPrioCur           0x1               ../candy_avb_sss_bsp/\libucosii_bsp.a(os_core.o)
tse                 0x290             ../candy_avb_sss_bsp/\libucosii_bsp.a(ins_tse_mac.o)
mheap_sem_ptr       0x4               ../candy_avb_sss_bsp/\libucosii_bsp.a(targnios.o)
netlist             0x14              ../candy_avb_sss_bsp/\libucosii_bsp.a(iface.o)
mbufq               0x14              ../candy_avb_sss_bsp/\libucosii_bsp.a(nptcp.o)
OSTCBList           0x4               ../candy_avb_sss_bsp/\libucosii_bsp.a(os_core.o)
alt_fd_list_lock    0x4               ../candy_avb_sss_bsp/\libucosii_bsp.a(alt_dev.o)
OSMemTbl            0xc30             ../candy_avb_sss_bsp/\libucosii_bsp.a(os_core.o)
OSTickStepState     0x1               ../candy_avb_sss_bsp/\libucosii_bsp.a(os_core.o)
OSTaskStatStk       0x800             ../candy_avb_sss_bsp/\libucosii_bsp.a(os_core.o)
OSCtxSwCtr          0x4               ../candy_avb_sss_bsp/\libucosii_bsp.a(os_core.o)
igmpstats           0x64              ../candy_avb_sss_bsp/\libucosii_bsp.a(igmp_cmn.o)
ire_stats           0x18              ../candy_avb_sss_bsp/\libucosii_bsp.a(ip_reasm.o)
old_mode            0x4               ../candy_avb_sss_bsp/\libucosii_bsp.a(osportco.o)
vfs_dir_stale       0x4               ../candy_avb_sss_bsp/\libucosii_bsp.a(vfsfiles.o)
pphy_profiles       0x20              ../candy_avb_sss_bsp/\libucosii_bsp.a(altera_avalon_tse.o)
cticks_factor       0x4               ../candy_avb_sss_bsp/\libucosii_bsp.a(brdutils.o)
OSIdleCtrMax        0x4               ../candy_avb_sss_bsp/\libucosii_bsp.a(os_core.o)
memestats           0x10              ../candy_avb_sss_bsp/\libucosii_bsp.a(pktalloc.o)
intimers            0x64              ../candy_avb_sss_bsp/\libucosii_bsp.a(timeouts.o)
OSTCBFreeList       0x4               ../candy_avb_sss_bsp/\libucosii_bsp.a(os_core.o)
global_TCPwakeup_setIndx
                    0x4               ../candy_avb_sss_bsp/\libucosii_bsp.a(osportco.o)
SSSInitialTaskStk   0x2000            obj/default/iniche_init.o
rcvdq               0x14              ../candy_avb_sss_bsp/\libucosii_bsp.a(ipnet.o)
global_tcb_ext      0xfc              ../candy_avb_sss_bsp/\libucosii_bsp.a(osportco.o)
netstatic           0x300             ../candy_avb_sss_bsp/\libucosii_bsp.a(ipstart.o)
tcp_maxidle         0x4               ../candy_avb_sss_bsp/\libucosii_bsp.a(tcp_timr.o)
OSCPUUsage          0x1               ../candy_avb_sss_bsp/\libucosii_bsp.a(os_core.o)
nets                0x10              ../candy_avb_sss_bsp/\libucosii_bsp.a(ipstart.o)
pktlog              0xf0              ../candy_avb_sss_bsp/\libucosii_bsp.a(pktalloc.o)
OSTaskCtr           0x1               ../candy_avb_sss_bsp/\libucosii_bsp.a(os_core.o)
OSMemFreeList       0x4               ../candy_avb_sss_bsp/\libucosii_bsp.a(os_core.o)
vfs_open_files      0x4               ../candy_avb_sss_bsp/\libucosii_bsp.a(vfsfiles.o)
cticks              0x4               ../candy_avb_sss_bsp/\libucosii_bsp.a(osportco.o)
to_nettick          0x1               ../candy_avb_sss_bsp/\libucosii_bsp.a(netmain.o)
OSQTbl              0x1e0             ../candy_avb_sss_bsp/\libucosii_bsp.a(os_core.o)
OSTCBHighRdy        0x4               ../candy_avb_sss_bsp/\libucosii_bsp.a(os_core.o)
OSQFreeList         0x4               ../candy_avb_sss_bsp/\libucosii_bsp.a(os_core.o)
OSRdyGrp            0x1               ../candy_avb_sss_bsp/\libucosii_bsp.a(os_core.o)
ip_mib              0x50              ../candy_avb_sss_bsp/\libucosii_bsp.a(ip.o)
SigmaDSPCommunicateTaskStk
                    0x2000            obj/default/osc_server.o
OS_TPS              0x4               ../candy_avb_sss_bsp/\libucosii_bsp.a(brdutils.o)
SigmaDSPCommunicateSem
                    0x4               obj/default/osc_server.o
OSRdyTbl            0x3               ../candy_avb_sss_bsp/\libucosii_bsp.a(os_core.o)
igmp_all_hosts_group
                    0x4               ../candy_avb_sss_bsp/\libucosii_bsp.a(igmp_cmn.o)
eth_prt_buf         0x12              ../candy_avb_sss_bsp/\libucosii_bsp.a(in_utils.o)
app_semaphore       0x18              ../candy_avb_sss_bsp/\libucosii_bsp.a(targnios.o)
SigmaDSPManagementTaskStk
                    0x2000            obj/default/osc_server.o
rcvdq_sem_ptr       0x4               ../candy_avb_sss_bsp/\libucosii_bsp.a(targnios.o)
OSEventFreeList     0x4               ../candy_avb_sss_bsp/\libucosii_bsp.a(os_core.o)
mfreeq              0x14              ../candy_avb_sss_bsp/\libucosii_bsp.a(nptcp.o)
to_ssstask          0x1               obj/default/iniche_init.o
global_TCPwakeup_set
                    0xf0              ../candy_avb_sss_bsp/\libucosii_bsp.a(osportco.o)
bigfreeq            0x14              ../candy_avb_sss_bsp/\libucosii_bsp.a(pktalloc.o)
so_evtmap_delete    0x4               ../candy_avb_sss_bsp/\libucosii_bsp.a(ipport.o)
tcp_saveti          0x28              ../candy_avb_sss_bsp/\libucosii_bsp.a(tcp_in.o)
OSIntNesting        0x1               ../candy_avb_sss_bsp/\libucosii_bsp.a(os_core.o)
SigmaDSPCommandQTbl
                    0x78              obj/default/osc_server.o
so_evtmap           0x1               ../candy_avb_sss_bsp/\libucosii_bsp.a(ipport.o)
OSTCBCur            0x4               ../candy_avb_sss_bsp/\libucosii_bsp.a(os_core.o)
arp_table           0x100             ../candy_avb_sss_bsp/\libucosii_bsp.a(et_arp.o)
tcp_iss             0x4               ../candy_avb_sss_bsp/\libucosii_bsp.a(tcp_timr.o)
vfs_total_rw_space  0x4               ../candy_avb_sss_bsp/\libucosii_bsp.a(vfsfiles.o)
OSTime              0x4               ../candy_avb_sss_bsp/\libucosii_bsp.a(os_core.o)
OSTaskIdleStk       0x800             ../candy_avb_sss_bsp/\libucosii_bsp.a(os_core.o)
OSEventTbl          0xb40             ../candy_avb_sss_bsp/\libucosii_bsp.a(os_core.o)
vfs_total_dyna_files
                    0x4               ../candy_avb_sss_bsp/\libucosii_bsp.a(vfsfiles.o)
OSTCBTbl            0x510             ../candy_avb_sss_bsp/\libucosii_bsp.a(os_core.o)
ipreturn            0x12              ../candy_avb_sss_bsp/\libucosii_bsp.a(in_utils.o)
OSFlagFreeList      0x4               ../candy_avb_sss_bsp/\libucosii_bsp.a(os_core.o)
dropline            0x4               ../candy_avb_sss_bsp/\libucosii_bsp.a(tcp_in.o)
OSStatRdy           0x1               ../candy_avb_sss_bsp/\libucosii_bsp.a(os_core.o)
OSTCBPrioTbl        0x54              ../candy_avb_sss_bsp/\libucosii_bsp.a(os_core.o)
igmp_all_rtrs_group
                    0x4               ../candy_avb_sss_bsp/\libucosii_bsp.a(igmp_cmn.o)
alt_envsem          0x4               ../candy_avb_sss_bsp/\libucosii_bsp.a(alt_env_lock.o)
OSIdleCtrRun        0x4               ../candy_avb_sss_bsp/\libucosii_bsp.a(os_core.o)

Memory Configuration

Name             Origin             Length             Attributes
new_sdram_controller_0_BEFORE_EXCEPTION 0x0000000000800000 0x0000000000000020
new_sdram_controller_0 0x0000000000800020 0x00000000007fffe0
reset            0x0000000001100000 0x0000000000000020
onchip_flash_0_data 0x0000000001100020 0x000000000008bfe0
descriptor_memory 0x0000000001200000 0x0000000000002000
*default*        0x0000000000000000 0xffffffffffffffff

Linker script and memory map

LOAD ../candy_avb_sss_bsp//obj/HAL/src/crt0.o
LOAD obj/default/SigmaStudioFW.o
LOAD obj/default/alt_error_handler.o
LOAD obj/default/iniche_init.o
LOAD obj/default/network_utilities.o
LOAD obj/default/osc.o
LOAD obj/default/osc_server.o
LOAD obj/default/sigmadsp.o
LOAD obj/default/tse_my_system.o
LOAD c:/intelfpga_lite/18.1/nios2eds/bin/gnu/h-x86_64-mingw32/bin/../lib/gcc/nios2-elf/5.3.0/../../../../../H-x86_64-mingw32/nios2-elf/lib\libstdc++.a
LOAD c:/intelfpga_lite/18.1/nios2eds/bin/gnu/h-x86_64-mingw32/bin/../lib/gcc/nios2-elf/5.3.0/../../../../../H-x86_64-mingw32/nios2-elf/lib\libm.a
LOAD c:/intelfpga_lite/18.1/nios2eds/bin/gnu/h-x86_64-mingw32/bin/../lib/gcc/nios2-elf/5.3.0\libgcc.a
START GROUP
LOAD c:/intelfpga_lite/18.1/nios2eds/bin/gnu/h-x86_64-mingw32/bin/../lib/gcc/nios2-elf/5.3.0/../../../../../H-x86_64-mingw32/nios2-elf/lib\libc.a
LOAD c:/intelfpga_lite/18.1/nios2eds/bin/gnu/h-x86_64-mingw32/bin/../lib/gcc/nios2-elf/5.3.0\libgcc.a
LOAD ../candy_avb_sss_bsp/\libucosii_bsp.a
LOAD c:/intelfpga_lite/18.1/nios2eds/bin/gnu/h-x86_64-mingw32/bin/../lib/gcc/nios2-elf/5.3.0/../../../../../H-x86_64-mingw32/nios2-elf/lib\libm.a
END GROUP
LOAD c:/intelfpga_lite/18.1/nios2eds/bin/gnu/h-x86_64-mingw32/bin/../lib/gcc/nios2-elf/5.3.0\libgcc.a
                0x0000000000800000                __alt_mem_new_sdram_controller_0 = 0x800000
                0x0000000001100000                __alt_mem_onchip_flash_0_data = 0x1100000
                0x0000000001200000                __alt_mem_descriptor_memory = 0x1200000

.entry          0x0000000001100000        0x0
 *(.entry)
 .entry         0x0000000001100000        0x0 ../candy_avb_sss_bsp//obj/HAL/src/crt0.o
                0x0000000001100000                __reset

.exceptions     0x0000000000800020      0x224
                [!provide]                        PROVIDE (__ram_exceptions_start, ABSOLUTE (.))
                0x0000000000800020                . = ALIGN (0x20)
 *(.irq)
 *(.exceptions.entry.label)
 .exceptions.entry.label
                0x0000000000800020        0x0 ../candy_avb_sss_bsp/\libucosii_bsp.a(alt_irq_entry.o)
                0x0000000000800020                alt_irq_entry
 .exceptions.entry.label
                0x0000000000800020        0x0 ../candy_avb_sss_bsp/\libucosii_bsp.a(alt_exception_entry.o)
                0x0000000000800020                alt_exception
 *(.exceptions.entry.user)
 *(.exceptions.entry.ecc_fatal)
 *(.exceptions.entry)
 .exceptions.entry
                0x0000000000800020       0x54 ../candy_avb_sss_bsp/\libucosii_bsp.a(alt_exception_entry.o)
 *(.exceptions.irqtest.user)
 *(.exceptions.irqtest)
 .exceptions.irqtest
                0x0000000000800074       0x10 ../candy_avb_sss_bsp/\libucosii_bsp.a(alt_irq_entry.o)
 *(.exceptions.irqhandler.user)
 *(.exceptions.irqhandler)
 .exceptions.irqhandler
                0x0000000000800084        0x4 ../candy_avb_sss_bsp/\libucosii_bsp.a(alt_irq_entry.o)
 *(.exceptions.irqreturn.user)
 *(.exceptions.irqreturn)
 .exceptions.irqreturn
                0x0000000000800088        0x4 ../candy_avb_sss_bsp/\libucosii_bsp.a(alt_irq_entry.o)
 *(.exceptions.notirq.label)
 .exceptions.notirq.label
                0x000000000080008c        0x0 ../candy_avb_sss_bsp/\libucosii_bsp.a(alt_irq_entry.o)
 *(.exceptions.notirq.user)
 *(.exceptions.notirq)
 .exceptions.notirq
                0x000000000080008c        0x8 ../candy_avb_sss_bsp/\libucosii_bsp.a(alt_exception_entry.o)
 *(.exceptions.soft.user)
 *(.exceptions.soft)
 *(.exceptions.unknown.user)
 *(.exceptions.unknown)
 .exceptions.unknown
                0x0000000000800094       0x14 ../candy_avb_sss_bsp/\libucosii_bsp.a(alt_exception_entry.o)
 *(.exceptions.exit.label)
 .exceptions.exit.label
                0x00000000008000a8        0x0 ../candy_avb_sss_bsp/\libucosii_bsp.a(alt_irq_entry.o)
 .exceptions.exit.label
                0x00000000008000a8        0x0 ../candy_avb_sss_bsp/\libucosii_bsp.a(alt_exception_entry.o)
 *(.exceptions.exit.user)
 *(.exceptions.exit)
 .exceptions.exit
                0x00000000008000a8       0x54 ../candy_avb_sss_bsp/\libucosii_bsp.a(alt_exception_entry.o)
 *(.exceptions)
 .exceptions    0x00000000008000fc       0xd4 ../candy_avb_sss_bsp/\libucosii_bsp.a(alt_irq_handler.o)
                0x00000000008000fc                alt_irq_handler
 .exceptions    0x00000000008001d0       0x74 ../candy_avb_sss_bsp/\libucosii_bsp.a(alt_instruction_exception_entry.o)
                0x00000000008001d0                alt_instruction_exception_entry
                [!provide]                        PROVIDE (__ram_exceptions_end, ABSOLUTE (.))
                [!provide]                        PROVIDE (__flash_exceptions_start, LOADADDR (.exceptions))

.text           0x0000000000800244    0x513a8
                [!provide]                        PROVIDE (stext, ABSOLUTE (.))
 *(.interp)
 *(.hash)
 *(.dynsym)
 *(.dynstr)
 *(.gnu.version)
 *(.gnu.version_d)
 *(.gnu.version_r)
 *(.rel.init)
 *(.rela.init)
 *(.rel.text .rel.text.* .rel.gnu.linkonce.t.*)
 *(.rela.text .rela.text.* .rela.gnu.linkonce.t.*)
 *(.rel.fini)
 *(.rela.fini)
 *(.rel.rodata .rel.rodata.* .rel.gnu.linkonce.r.*)
 *(.rela.rodata .rela.rodata.* .rela.gnu.linkonce.r.*)
 *(.rel.data .rel.data.* .rel.gnu.linkonce.d.*)
 *(.rela.data .rela.data.* .rela.gnu.linkonce.d.*)
 *(.rel.tdata .rel.tdata.* .rel.gnu.linkonce.td.*)
 *(.rela.tdata .rela.tdata.* .rela.gnu.linkonce.td.*)
 *(.rel.tbss .rel.tbss.* .rel.gnu.linkonce.tb.*)
 *(.rela.tbss .rela.tbss.* .rela.gnu.linkonce.tb.*)
 *(.rel.ctors)
 *(.rela.ctors)
 *(.rel.dtors)
 *(.rela.dtors)
 *(.rel.got)
 *(.rela.got)
 *(.rel.sdata .rel.sdata.* .rel.gnu.linkonce.s.*)
 *(.rela.sdata .rela.sdata.* .rela.gnu.linkonce.s.*)
 *(.rel.sbss .rel.sbss.* .rel.gnu.linkonce.sb.*)
 *(.rela.sbss .rela.sbss.* .rela.gnu.linkonce.sb.*)
 *(.rel.sdata2 .rel.sdata2.* .rel.gnu.linkonce.s2.*)
 *(.rela.sdata2 .rela.sdata2.* .rela.gnu.linkonce.s2.*)
 *(.rel.sbss2 .rel.sbss2.* .rel.gnu.linkonce.sb2.*)
 *(.rela.sbss2 .rela.sbss2.* .rela.gnu.linkonce.sb2.*)
 *(.rel.bss .rel.bss.* .rel.gnu.linkonce.b.*)
 *(.rela.bss .rela.bss.* .rela.gnu.linkonce.b.*)
 *(.rel.plt)
 *(.rela.plt)
 *(.rel.dyn)
 *(.init)
 *(.plt)
 *(.text .stub .text.* .gnu.linkonce.t.*)
 .text          0x0000000000800244       0x48 ../candy_avb_sss_bsp//obj/HAL/src/crt0.o
                0x0000000000800244                _start
 .text          0x000000000080028c      0x6f4 obj/default/SigmaStudioFW.o
                0x000000000080028c                i2c_setup
                0x000000000080030c                i2c_start
                0x00000000008003b4                i2c_write_byte
                0x0000000000800464                i2c_write_byte_stop
                0x00000000008004f8                i2c_multiple_write
                0x0000000000800690                SIGMA_WRITE_REGISTER_BLOCK
                0x0000000000800714                SIGMA_WRITE_REGISTER_CONTROL
                0x0000000000800790                SIGMA_SAFELOAD_WRITE_ADDR
                0x000000000080081c                SIGMA_SAFELOAD_WRITE_DATA
                0x0000000000800900                SIGMA_SAFELOAD_WRITE_TRANSFER_BIT
 .text          0x0000000000800980      0xa60 obj/default/alt_error_handler.o
                0x0000000000800980                alt_uCOSIIErrorHandler
                0x0000000000800ee4                alt_NetworkErrorHandler
                0x0000000000801148                alt_SSSErrorHandler
 .text          0x00000000008013e0      0x798 obj/default/iniche_init.o
                0x00000000008013e0                default_download_IC_1
                0x0000000000801734                default_download_IC_2
                0x0000000000801a88                SSSInitialTask
                0x0000000000801af8                main
 .text          0x0000000000801b78       0xec obj/default/network_utilities.o
                0x0000000000801b78                get_mac_addr
                0x0000000000801bf8                get_ip_addr
 .text          0x0000000000801c64     0x2a94 obj/default/osc.o
                0x0000000000801c64                setInitReceiveFlag
                0x0000000000801c94                getInitReceiveFlag
                0x0000000000801cb4                setInitSendFlag
                0x0000000000801ce4                getInitSendFlag
                0x0000000000801d04                setInitDiscoverFlag
                0x0000000000801d34                getInitDiscoverFlag
                0x0000000000801d54                setChCompletedFlag
                0x0000000000801d84                getChCompletedFlag
                0x0000000000801da4                setRemoteIpAtIndex
                0x0000000000801de8                getRemoteIpAtIndex
                0x0000000000801e1c                getRemoteIp
                0x0000000000801e3c                setRemotePort
                0x0000000000801e6c                getRemotePort
                0x0000000000801e8c                setLocalPort
                0x0000000000801ebc                getLocalPort
                0x0000000000801edc                setOSCPrefix
                0x0000000000801f44                getOSCPrefix
                0x0000000000801f64                clearOSCPrefix
                0x0000000000801f9c                setOSCHostName
                0x0000000000802024                getOSCHostName
                0x0000000000802048                clearOSCHostName
                0x0000000000802084                getOSCPacket
                0x00000000008020f8                processOSCPacket
                0x000000000080297c                sendOSCMessage
                0x0000000000802da0                setOSCAddress
                0x0000000000802ec0                setOSCTypeTag
                0x0000000000802f90                addOSCIntArgument
                0x0000000000803050                addOSCFloatArgument
                0x0000000000803110                addOSCStringArgument
                0x00000000008031b8                clearOSCMessage
                0x00000000008031f8                flushOSCMessage
                0x0000000000803218                clearOSCBundle
                0x00000000008032cc                appendOSCMessageToBundle
                0x00000000008037dc                sendOSCBundle
                0x00000000008037fc                compareOSCPrefix
                0x00000000008038e0                compareOSCAddress
                0x00000000008039f8                compareTypeTagAtIndex
                0x0000000000803a74                getArgumentsLength
                0x0000000000803a98                getIntArgumentAtIndex
                0x0000000000804018                getFloatArgumentAtIndex
                0x00000000008045a0                getStringArgumentAtIndex
                0x0000000000804664                getBOOLEANeanArgumentAtIndex
 .text          0x00000000008046f8      0x3e8 obj/default/osc_server.o
                0x00000000008046f8                SSSCreateOSDataStructs
                0x000000000080479c                SSSCreateTasks
                0x000000000080486c                OSCServerTask
 .text          0x0000000000804ae0      0x318 obj/default/sigmadsp.o
                0x0000000000804ae0                adc_callback
                0x0000000000804b24                adc_init
                0x0000000000804b8c                led_bit_toggle
                0x0000000000804c70                SigmaDSPCommunicateTask
                0x0000000000804dac                SigmaDSPManagementTask
 .text          0x0000000000804df8        0x0 obj/default/tse_my_system.o
 .text          0x0000000000804df8       0xc4 c:/intelfpga_lite/18.1/nios2eds/bin/gnu/h-x86_64-mingw32/bin/../lib/gcc/nios2-elf/5.3.0\libgcc.a(_floatdisf.o)
                0x0000000000804df8                __floatdisf
 .text          0x0000000000804ebc      0x4c8 c:/intelfpga_lite/18.1/nios2eds/bin/gnu/h-x86_64-mingw32/bin/../lib/gcc/nios2-elf/5.3.0\libgcc.a(addsf3.o)
                0x0000000000804ebc                __addsf3
 .text          0x0000000000805384      0x3fc c:/intelfpga_lite/18.1/nios2eds/bin/gnu/h-x86_64-mingw32/bin/../lib/gcc/nios2-elf/5.3.0\libgcc.a(mulsf3.o)
                0x0000000000805384                __mulsf3
 .text          0x0000000000805780       0x70 c:/intelfpga_lite/18.1/nios2eds/bin/gnu/h-x86_64-mingw32/bin/../lib/gcc/nios2-elf/5.3.0\libgcc.a(fixsfsi.o)
                0x0000000000805780                __fixsfsi
 .text          0x00000000008057f0      0x124 c:/intelfpga_lite/18.1/nios2eds/bin/gnu/h-x86_64-mingw32/bin/../lib/gcc/nios2-elf/5.3.0\libgcc.a(floatsisf.o)
                0x00000000008057f0                __floatsisf
 .text          0x0000000000805914      0x8ac c:/intelfpga_lite/18.1/nios2eds/bin/gnu/h-x86_64-mingw32/bin/../lib/gcc/nios2-elf/5.3.0\libgcc.a(adddf3.o)
                0x0000000000805914                __adddf3
 .text          0x00000000008061c0      0x8e8 c:/intelfpga_lite/18.1/nios2eds/bin/gnu/h-x86_64-mingw32/bin/../lib/gcc/nios2-elf/5.3.0\libgcc.a(divdf3.o)
                0x00000000008061c0                __divdf3
 .text          0x0000000000806aa8      0x718 c:/intelfpga_lite/18.1/nios2eds/bin/gnu/h-x86_64-mingw32/bin/../lib/gcc/nios2-elf/5.3.0\libgcc.a(muldf3.o)
                0x0000000000806aa8                __muldf3
 .text          0x00000000008071c0       0xdc c:/intelfpga_lite/18.1/nios2eds/bin/gnu/h-x86_64-mingw32/bin/../lib/gcc/nios2-elf/5.3.0\libgcc.a(floatsidf.o)
                0x00000000008071c0                __floatsidf
 .text          0x000000000080729c       0xa8 c:/intelfpga_lite/18.1/nios2eds/bin/gnu/h-x86_64-mingw32/bin/../lib/gcc/nios2-elf/5.3.0\libgcc.a(floatunsidf.o)
                0x000000000080729c                __floatunsidf
 .text          0x0000000000807344      0x110 c:/intelfpga_lite/18.1/nios2eds/bin/gnu/h-x86_64-mingw32/bin/../lib/gcc/nios2-elf/5.3.0\libgcc.a(extendsfdf2.o)
                0x0000000000807344                __extendsfdf2
 .text          0x0000000000807454      0x1a8 c:/intelfpga_lite/18.1/nios2eds/bin/gnu/h-x86_64-mingw32/bin/../lib/gcc/nios2-elf/5.3.0\libgcc.a(truncdfsf2.o)
                0x0000000000807454                __truncdfsf2
 .text          0x00000000008075fc       0x64 c:/intelfpga_lite/18.1/nios2eds/bin/gnu/h-x86_64-mingw32/bin/../lib/gcc/nios2-elf/5.3.0\libgcc.a(_clzsi2.o)
                0x00000000008075fc                __clzsi2
 .text          0x0000000000807660      0x1b4 c:/intelfpga_lite/18.1/nios2eds/bin/gnu/h-x86_64-mingw32/bin/../lib/gcc/nios2-elf/5.3.0\libgcc.a(lib2-divmod.o)
                0x0000000000807660                __divsi3
                0x00000000008076e4                __modsi3
                0x0000000000807758                __udivsi3
                0x00000000008077bc                __umodsi3
 .text          0x0000000000807814        0x0 c:/intelfpga_lite/18.1/nios2eds/bin/gnu/h-x86_64-mingw32/bin/../lib/gcc/nios2-elf/5.3.0\libgcc.a(_clz.o)
 .text          0x0000000000807814        0x0 c:/intelfpga_lite/18.1/nios2eds/bin/gnu/h-x86_64-mingw32/bin/../lib/gcc/nios2-elf/5.3.0/../../../../../H-x86_64-mingw32/nios2-elf/lib\libc.a(lib_a-calloc.o)
 .text.calloc   0x0000000000807814       0x18 c:/intelfpga_lite/18.1/nios2eds/bin/gnu/h-x86_64-mingw32/bin/../lib/gcc/nios2-elf/5.3.0/../../../../../H-x86_64-mingw32/nios2-elf/lib\libc.a(lib_a-calloc.o)
                0x0000000000807814                calloc
 .text          0x000000000080782c        0x0 c:/intelfpga_lite/18.1/nios2eds/bin/gnu/h-x86_64-mingw32/bin/../lib/gcc/nios2-elf/5.3.0/../../../../../H-x86_64-mingw32/nios2-elf/lib\libc.a(lib_a-callocr.o)
 .text._calloc_r
                0x000000000080782c       0xc4 c:/intelfpga_lite/18.1/nios2eds/bin/gnu/h-x86_64-mingw32/bin/../lib/gcc/nios2-elf/5.3.0/../../../../../H-x86_64-mingw32/nios2-elf/lib\libc.a(lib_a-callocr.o)
                0x000000000080782c                _calloc_r
 .text          0x00000000008078f0        0x0 c:/intelfpga_lite/18.1/nios2eds/bin/gnu/h-x86_64-mingw32/bin/../lib/gcc/nios2-elf/5.3.0/../../../../../H-x86_64-mingw32/nios2-elf/lib\libc.a(lib_a-fprintf.o)
 .text._fprintf_r
                0x00000000008078f0       0x28 c:/intelfpga_lite/18.1/nios2eds/bin/gnu/h-x86_64-mingw32/bin/../lib/gcc/nios2-elf/5.3.0/../../../../../H-x86_64-mingw32/nios2-elf/lib\libc.a(lib_a-fprintf.o)
                0x00000000008078f0                _fprintf_r
 .text.fprintf  0x0000000000807918       0x24 c:/intelfpga_lite/18.1/nios2eds/bin/gnu/h-x86_64-mingw32/bin/../lib/gcc/nios2-elf/5.3.0/../../../../../H-x86_64-mingw32/nios2-elf/lib\libc.a(lib_a-fprintf.o)
                0x0000000000807918                fprintf
 .text          0x000000000080793c        0x0 c:/intelfpga_lite/18.1/nios2eds/bin/gnu/h-x86_64-mingw32/bin/../lib/gcc/nios2-elf/5.3.0/../../../../../H-x86_64-mingw32/nios2-elf/lib\libc.a(lib_a-fwrite.o)
 .text._fwrite_r
                0x000000000080793c       0xcc c:/intelfpga_lite/18.1/nios2eds/bin/gnu/h-x86_64-mingw32/bin/../lib/gcc/nios2-elf/5.3.0/../../../../../H-x86_64-mingw32/nios2-elf/lib\libc.a(lib_a-fwrite.o)
                0x000000000080793c                _fwrite_r
 .text.fwrite   0x0000000000807a08       0x34 c:/intelfpga_lite/18.1/nios2eds/bin/gnu/h-x86_64-mingw32/bin/../lib/gcc/nios2-elf/5.3.0/../../../../../H-x86_64-mingw32/nios2-elf/lib\libc.a(lib_a-fwrite.o)
                0x0000000000807a08                fwrite
 .text          0x0000000000807a3c        0x0 c:/intelfpga_lite/18.1/nios2eds/bin/gnu/h-x86_64-mingw32/bin/../lib/gcc/nios2-elf/5.3.0/../../../../../H-x86_64-mingw32/nios2-elf/lib\libc.a(lib_a-impure.o)
 .text          0x0000000000807a3c        0x0 c:/intelfpga_lite/18.1/nios2eds/bin/gnu/h-x86_64-mingw32/bin/../lib/gcc/nios2-elf/5.3.0/../../../../../H-x86_64-mingw32/nios2-elf/lib\libc.a(lib_a-malloc.o)
 .text.malloc   0x0000000000807a3c       0x14 c:/intelfpga_lite/18.1/nios2eds/bin/gnu/h-x86_64-mingw32/bin/../lib/gcc/nios2-elf/5.3.0/../../../../../H-x86_64-mingw32/nios2-elf/lib\libc.a(lib_a-malloc.o)
                0x0000000000807a3c                malloc
 .text.free     0x0000000000807a50       0x14 c:/intelfpga_lite/18.1/nios2eds/bin/gnu/h-x86_64-mingw32/bin/../lib/gcc/nios2-elf/5.3.0/../../../../../H-x86_64-mingw32/nios2-elf/lib\libc.a(lib_a-malloc.o)
                0x0000000000807a50                free
 .text          0x0000000000807a64        0x0 c:/intelfpga_lite/18.1/nios2eds/bin/gnu/h-x86_64-mingw32/bin/../lib/gcc/nios2-elf/5.3.0/../../../../../H-x86_64-mingw32/nios2-elf/lib\libc.a(lib_a-mallocr.o)
 .text._malloc_r
                0x0000000000807a64      0x80c c:/intelfpga_lite/18.1/nios2eds/bin/gnu/h-x86_64-mingw32/bin/../lib/gcc/nios2-elf/5.3.0/../../../../../H-x86_64-mingw32/nios2-elf/lib\libc.a(lib_a-mallocr.o)
                0x0000000000807a64                _malloc_r
 .text          0x0000000000808270        0x0 c:/intelfpga_lite/18.1/nios2eds/bin/gnu/h-x86_64-mingw32/bin/../lib/gcc/nios2-elf/5.3.0/../../../../../H-x86_64-mingw32/nios2-elf/lib\libc.a(lib_a-memcpy.o)
 .text.memcpy   0x0000000000808270      0x148 c:/intelfpga_lite/18.1/nios2eds/bin/gnu/h-x86_64-mingw32/bin/../lib/gcc/nios2-elf/5.3.0/../../../../../H-x86_64-mingw32/nios2-elf/lib\libc.a(lib_a-memcpy.o)
                0x0000000000808270                memcpy
 .text          0x00000000008083b8        0x0 c:/intelfpga_lite/18.1/nios2eds/bin/gnu/h-x86_64-mingw32/bin/../lib/gcc/nios2-elf/5.3.0/../../../../../H-x86_64-mingw32/nios2-elf/lib\libc.a(lib_a-memset.o)
 .text.memset   0x00000000008083b8      0x128 c:/intelfpga_lite/18.1/nios2eds/bin/gnu/h-x86_64-mingw32/bin/../lib/gcc/nios2-elf/5.3.0/../../../../../H-x86_64-mingw32/nios2-elf/lib\libc.a(lib_a-memset.o)
                0x00000000008083b8                memset
 .text          0x00000000008084e0        0x0 c:/intelfpga_lite/18.1/nios2eds/bin/gnu/h-x86_64-mingw32/bin/../lib/gcc/nios2-elf/5.3.0/../../../../../H-x86_64-mingw32/nios2-elf/lib\libc.a(lib_a-perror.o)
 .text._perror_r
                0x00000000008084e0       0x80 c:/intelfpga_lite/18.1/nios2eds/bin/gnu/h-x86_64-mingw32/bin/../lib/gcc/nios2-elf/5.3.0/../../../../../H-x86_64-mingw32/nios2-elf/lib\libc.a(lib_a-perror.o)
                0x00000000008084e0                _perror_r
 .text.perror   0x0000000000808560       0x14 c:/intelfpga_lite/18.1/nios2eds/bin/gnu/h-x86_64-mingw32/bin/../lib/gcc/nios2-elf/5.3.0/../../../../../H-x86_64-mingw32/nios2-elf/lib\libc.a(lib_a-perror.o)
                0x0000000000808560                perror
 .text          0x0000000000808574        0x0 c:/intelfpga_lite/18.1/nios2eds/bin/gnu/h-x86_64-mingw32/bin/../lib/gcc/nios2-elf/5.3.0/../../../../../H-x86_64-mingw32/nios2-elf/lib\libc.a(lib_a-printf.o)
 .text._printf_r
                0x0000000000808574       0x30 c:/intelfpga_lite/18.1/nios2eds/bin/gnu/h-x86_64-mingw32/bin/../lib/gcc/nios2-elf/5.3.0/../../../../../H-x86_64-mingw32/nios2-elf/lib\libc.a(lib_a-printf.o)
                0x0000000000808574                _printf_r
 .text.printf   0x00000000008085a4       0x3c c:/intelfpga_lite/18.1/nios2eds/bin/gnu/h-x86_64-mingw32/bin/../lib/gcc/nios2-elf/5.3.0/../../../../../H-x86_64-mingw32/nios2-elf/lib\libc.a(lib_a-printf.o)
                0x00000000008085a4                printf
 .text          0x00000000008085e0        0x0 c:/intelfpga_lite/18.1/nios2eds/bin/gnu/h-x86_64-mingw32/bin/../lib/gcc/nios2-elf/5.3.0/../../../../../H-x86_64-mingw32/nios2-elf/lib\libc.a(lib_a-puts.o)
 .text._puts_r  0x00000000008085e0       0xc0 c:/intelfpga_lite/18.1/nios2eds/bin/gnu/h-x86_64-mingw32/bin/../lib/gcc/nios2-elf/5.3.0/../../../../../H-x86_64-mingw32/nios2-elf/lib\libc.a(lib_a-puts.o)
                0x00000000008085e0                _puts_r
 .text.puts     0x00000000008086a0       0x14 c:/intelfpga_lite/18.1/nios2eds/bin/gnu/h-x86_64-mingw32/bin/../lib/gcc/nios2-elf/5.3.0/../../../../../H-x86_64-mingw32/nios2-elf/lib\libc.a(lib_a-puts.o)
                0x00000000008086a0                puts
 .text          0x00000000008086b4        0x0 c:/intelfpga_lite/18.1/nios2eds/bin/gnu/h-x86_64-mingw32/bin/../lib/gcc/nios2-elf/5.3.0/../../../../../H-x86_64-mingw32/nios2-elf/lib\libc.a(lib_a-sbrkr.o)
 .text._sbrk_r  0x00000000008086b4       0x54 c:/intelfpga_lite/18.1/nios2eds/bin/gnu/h-x86_64-mingw32/bin/../lib/gcc/nios2-elf/5.3.0/../../../../../H-x86_64-mingw32/nios2-elf/lib\libc.a(lib_a-sbrkr.o)
                0x00000000008086b4                _sbrk_r
 .text          0x0000000000808708        0x0 c:/intelfpga_lite/18.1/nios2eds/bin/gnu/h-x86_64-mingw32/bin/../lib/gcc/nios2-elf/5.3.0/../../../../../H-x86_64-mingw32/nios2-elf/lib\libc.a(lib_a-sprintf.o)
 .text._sprintf_r
                0x0000000000808708       0x58 c:/intelfpga_lite/18.1/nios2eds/bin/gnu/h-x86_64-mingw32/bin/../lib/gcc/nios2-elf/5.3.0/../../../../../H-x86_64-mingw32/nios2-elf/lib\libc.a(lib_a-sprintf.o)
                0x0000000000808708                _sprintf_r
 .text.sprintf  0x0000000000808760       0x6c c:/intelfpga_lite/18.1/nios2eds/bin/gnu/h-x86_64-mingw32/bin/../lib/gcc/nios2-elf/5.3.0/../../../../../H-x86_64-mingw32/nios2-elf/lib\libc.a(lib_a-sprintf.o)
                0x0000000000808760                sprintf
 .text          0x00000000008087cc        0x0 c:/intelfpga_lite/18.1/nios2eds/bin/gnu/h-x86_64-mingw32/bin/../lib/gcc/nios2-elf/5.3.0/../../../../../H-x86_64-mingw32/nios2-elf/lib\libc.a(lib_a-strchr.o)
 .text.strchr   0x00000000008087cc      0x164 c:/intelfpga_lite/18.1/nios2eds/bin/gnu/h-x86_64-mingw32/bin/../lib/gcc/nios2-elf/5.3.0/../../../../../H-x86_64-mingw32/nios2-elf/lib\libc.a(lib_a-strchr.o)
                0x00000000008087cc                strchr
 .text          0x0000000000808930        0x0 c:/intelfpga_lite/18.1/nios2eds/bin/gnu/h-x86_64-mingw32/bin/../lib/gcc/nios2-elf/5.3.0/../../../../../H-x86_64-mingw32/nios2-elf/lib\libc.a(lib_a-strcmp.o)
 .text.strcmp   0x0000000000808930       0xdc c:/intelfpga_lite/18.1/nios2eds/bin/gnu/h-x86_64-mingw32/bin/../lib/gcc/nios2-elf/5.3.0/../../../../../H-x86_64-mingw32/nios2-elf/lib\libc.a(lib_a-strcmp.o)
                0x0000000000808930                strcmp
 .text          0x0000000000808a0c        0x0 c:/intelfpga_lite/18.1/nios2eds/bin/gnu/h-x86_64-mingw32/bin/../lib/gcc/nios2-elf/5.3.0/../../../../../H-x86_64-mingw32/nios2-elf/lib\libc.a(lib_a-strerror.o)
 .text._strerror_r
                0x0000000000808a0c      0x65c c:/intelfpga_lite/18.1/nios2eds/bin/gnu/h-x86_64-mingw32/bin/../lib/gcc/nios2-elf/5.3.0/../../../../../H-x86_64-mingw32/nios2-elf/lib\libc.a(lib_a-strerror.o)
                0x0000000000808a0c                _strerror_r
 .text.strerror
                0x0000000000809068       0x1c c:/intelfpga_lite/18.1/nios2eds/bin/gnu/h-x86_64-mingw32/bin/../lib/gcc/nios2-elf/5.3.0/../../../../../H-x86_64-mingw32/nios2-elf/lib\libc.a(lib_a-strerror.o)
                0x0000000000809068                strerror
 .text          0x0000000000809084        0x0 c:/intelfpga_lite/18.1/nios2eds/bin/gnu/h-x86_64-mingw32/bin/../lib/gcc/nios2-elf/5.3.0/../../../../../H-x86_64-mingw32/nios2-elf/lib\libc.a(lib_a-strlen.o)
 .text.strlen   0x0000000000809084       0x98 c:/intelfpga_lite/18.1/nios2eds/bin/gnu/h-x86_64-mingw32/bin/../lib/gcc/nios2-elf/5.3.0/../../../../../H-x86_64-mingw32/nios2-elf/lib\libc.a(lib_a-strlen.o)
                0x0000000000809084                strlen
 .text          0x000000000080911c        0x0 c:/intelfpga_lite/18.1/nios2eds/bin/gnu/h-x86_64-mingw32/bin/../lib/gcc/nios2-elf/5.3.0/../../../../../H-x86_64-mingw32/nios2-elf/lib\libc.a(lib_a-svfprintf.o)
 .text.___svfprintf_internal_r
                0x000000000080911c     0x21d8 c:/intelfpga_lite/18.1/nios2eds/bin/gnu/h-x86_64-mingw32/bin/../lib/gcc/nios2-elf/5.3.0/../../../../../H-x86_64-mingw32/nios2-elf/lib\libc.a(lib_a-svfprintf.o)
                0x000000000080911c                ___svfprintf_internal_r
 .text          0x000000000080b2f4        0x0 c:/intelfpga_lite/18.1/nios2eds/bin/gnu/h-x86_64-mingw32/bin/../lib/gcc/nios2-elf/5.3.0/../../../../../H-x86_64-mingw32/nios2-elf/lib\libc.a(lib_a-u_strerr.o)
 .text._user_strerror
                0x000000000080b2f4        0x8 c:/intelfpga_lite/18.1/nios2eds/bin/gnu/h-x86_64-mingw32/bin/../lib/gcc/nios2-elf/5.3.0/../../../../../H-x86_64-mingw32/nios2-elf/lib\libc.a(lib_a-u_strerr.o)
                0x000000000080b2f4                _user_strerror
 .text          0x000000000080b2fc        0x0 c:/intelfpga_lite/18.1/nios2eds/bin/gnu/h-x86_64-mingw32/bin/../lib/gcc/nios2-elf/5.3.0/../../../../../H-x86_64-mingw32/nios2-elf/lib\libc.a(lib_a-vfprintf.o)
 .text.___vfprintf_internal_r
                0x000000000080b2fc     0x21f8 c:/intelfpga_lite/18.1/nios2eds/bin/gnu/h-x86_64-mingw32/bin/../lib/gcc/nios2-elf/5.3.0/../../../../../H-x86_64-mingw32/nios2-elf/lib\libc.a(lib_a-vfprintf.o)
                0x000000000080b2fc                ___vfprintf_internal_r
 .text.__vfprintf_internal
                0x000000000080d4f4       0x1c c:/intelfpga_lite/18.1/nios2eds/bin/gnu/h-x86_64-mingw32/bin/../lib/gcc/nios2-elf/5.3.0/../../../../../H-x86_64-mingw32/nios2-elf/lib\libc.a(lib_a-vfprintf.o)
                0x000000000080d4f4                __vfprintf_internal
 .text.__sbprintf
                0x000000000080d510       0xbc c:/intelfpga_lite/18.1/nios2eds/bin/gnu/h-x86_64-mingw32/bin/../lib/gcc/nios2-elf/5.3.0/../../../../../H-x86_64-mingw32/nios2-elf/lib\libc.a(lib_a-vfprintf.o)
 .text          0x000000000080d5cc        0x0 c:/intelfpga_lite/18.1/nios2eds/bin/gnu/h-x86_64-mingw32/bin/../lib/gcc/nios2-elf/5.3.0/../../../../../H-x86_64-mingw32/nios2-elf/lib\libc.a(lib_a-wsetup.o)
 .text.__swsetup_r
                0x000000000080d5cc      0x154 c:/intelfpga_lite/18.1/nios2eds/bin/gnu/h-x86_64-mingw32/bin/../lib/gcc/nios2-elf/5.3.0/../../../../../H-x86_64-mingw32/nios2-elf/lib\libc.a(lib_a-wsetup.o)
                0x000000000080d5cc                __swsetup_r
 .text          0x000000000080d720        0x0 c:/intelfpga_lite/18.1/nios2eds/bin/gnu/h-x86_64-mingw32/bin/../lib/gcc/nios2-elf/5.3.0/../../../../../H-x86_64-mingw32/nios2-elf/lib\libc.a(lib_a-dtoa.o)
 .text.quorem   0x000000000080d720      0x200 c:/intelfpga_lite/18.1/nios2eds/bin/gnu/h-x86_64-mingw32/bin/../lib/gcc/nios2-elf/5.3.0/../../../../../H-x86_64-mingw32/nios2-elf/lib\libc.a(lib_a-dtoa.o)
 .text._dtoa_r  0x000000000080d920     0x1688 c:/intelfpga_lite/18.1/nios2eds/bin/gnu/h-x86_64-mingw32/bin/../lib/gcc/nios2-elf/5.3.0/../../../../../H-x86_64-mingw32/nios2-elf/lib\libc.a(lib_a-dtoa.o)
                0x000000000080d920                _dtoa_r
 .text          0x000000000080efa8        0x0 c:/intelfpga_lite/18.1/nios2eds/bin/gnu/h-x86_64-mingw32/bin/../lib/gcc/nios2-elf/5.3.0/../../../../../H-x86_64-mingw32/nios2-elf/lib\libc.a(lib_a-fflush.o)
 .text.__sflush_r
                0x000000000080efa8      0x21c c:/intelfpga_lite/18.1/nios2eds/bin/gnu/h-x86_64-mingw32/bin/../lib/gcc/nios2-elf/5.3.0/../../../../../H-x86_64-mingw32/nios2-elf/lib\libc.a(lib_a-fflush.o)
                0x000000000080efa8                __sflush_r
 .text._fflush_r
                0x000000000080f1c4       0x5c c:/intelfpga_lite/18.1/nios2eds/bin/gnu/h-x86_64-mingw32/bin/../lib/gcc/nios2-elf/5.3.0/../../../../../H-x86_64-mingw32/nios2-elf/lib\libc.a(lib_a-fflush.o)
                0x000000000080f1c4                _fflush_r
 .text.fflush   0x000000000080f220       0x30 c:/intelfpga_lite/18.1/nios2eds/bin/gnu/h-x86_64-mingw32/bin/../lib/gcc/nios2-elf/5.3.0/../../../../../H-x86_64-mingw32/nios2-elf/lib\libc.a(lib_a-fflush.o)
                0x000000000080f220                fflush
 .text          0x000000000080f250        0x0 c:/intelfpga_lite/18.1/nios2eds/bin/gnu/h-x86_64-mingw32/bin/../lib/gcc/nios2-elf/5.3.0/../../../../../H-x86_64-mingw32/nios2-elf/lib\libc.a(lib_a-findfp.o)
 .text.__fp_unlock
                0x000000000080f250        0x8 c:/intelfpga_lite/18.1/nios2eds/bin/gnu/h-x86_64-mingw32/bin/../lib/gcc/nios2-elf/5.3.0/../../../../../H-x86_64-mingw32/nios2-elf/lib\libc.a(lib_a-findfp.o)
 .text._cleanup_r
                0x000000000080f258        0xc c:/intelfpga_lite/18.1/nios2eds/bin/gnu/h-x86_64-mingw32/bin/../lib/gcc/nios2-elf/5.3.0/../../../../../H-x86_64-mingw32/nios2-elf/lib\libc.a(lib_a-findfp.o)
                0x000000000080f258                _cleanup_r
 .text.__sinit.part.1
                0x000000000080f264      0x19c c:/intelfpga_lite/18.1/nios2eds/bin/gnu/h-x86_64-mingw32/bin/../lib/gcc/nios2-elf/5.3.0/../../../../../H-x86_64-mingw32/nios2-elf/lib\libc.a(lib_a-findfp.o)
 .text.__fp_lock
                0x000000000080f400        0x8 c:/intelfpga_lite/18.1/nios2eds/bin/gnu/h-x86_64-mingw32/bin/../lib/gcc/nios2-elf/5.3.0/../../../../../H-x86_64-mingw32/nios2-elf/lib\libc.a(lib_a-findfp.o)
 .text.__sfmoreglue
                0x000000000080f408       0x68 c:/intelfpga_lite/18.1/nios2eds/bin/gnu/h-x86_64-mingw32/bin/../lib/gcc/nios2-elf/5.3.0/../../../../../H-x86_64-mingw32/nios2-elf/lib\libc.a(lib_a-findfp.o)
                0x000000000080f408                __sfmoreglue
 .text.__sfp    0x000000000080f470      0x118 c:/intelfpga_lite/18.1/nios2eds/bin/gnu/h-x86_64-mingw32/bin/../lib/gcc/nios2-elf/5.3.0/../../../../../H-x86_64-mingw32/nios2-elf/lib\libc.a(lib_a-findfp.o)
                0x000000000080f470                __sfp
 .text._cleanup
                0x000000000080f588       0x18 c:/intelfpga_lite/18.1/nios2eds/bin/gnu/h-x86_64-mingw32/bin/../lib/gcc/nios2-elf/5.3.0/../../../../../H-x86_64-mingw32/nios2-elf/lib\libc.a(lib_a-findfp.o)
                0x000000000080f588                _cleanup
 .text.__sinit  0x000000000080f5a0       0x10 c:/intelfpga_lite/18.1/nios2eds/bin/gnu/h-x86_64-mingw32/bin/../lib/gcc/nios2-elf/5.3.0/../../../../../H-x86_64-mingw32/nios2-elf/lib\libc.a(lib_a-findfp.o)
                0x000000000080f5a0                __sinit
 .text.__sfp_lock_acquire
                0x000000000080f5b0        0x4 c:/intelfpga_lite/18.1/nios2eds/bin/gnu/h-x86_64-mingw32/bin/../lib/gcc/nios2-elf/5.3.0/../../../../../H-x86_64-mingw32/nios2-elf/lib\libc.a(lib_a-findfp.o)
                0x000000000080f5b0                __sfp_lock_acquire
 .text.__sfp_lock_release
                0x000000000080f5b4        0x4 c:/intelfpga_lite/18.1/nios2eds/bin/gnu/h-x86_64-mingw32/bin/../lib/gcc/nios2-elf/5.3.0/../../../../../H-x86_64-mingw32/nios2-elf/lib\libc.a(lib_a-findfp.o)
                0x000000000080f5b4                __sfp_lock_release
 .text.__sinit_lock_acquire
                0x000000000080f5b8        0x4 c:/intelfpga_lite/18.1/nios2eds/bin/gnu/h-x86_64-mingw32/bin/../lib/gcc/nios2-elf/5.3.0/../../../../../H-x86_64-mingw32/nios2-elf/lib\libc.a(lib_a-findfp.o)
                0x000000000080f5b8                __sinit_lock_acquire
 .text.__sinit_lock_release
                0x000000000080f5bc        0x4 c:/intelfpga_lite/18.1/nios2eds/bin/gnu/h-x86_64-mingw32/bin/../lib/gcc/nios2-elf/5.3.0/../../../../../H-x86_64-mingw32/nios2-elf/lib\libc.a(lib_a-findfp.o)
                0x000000000080f5bc                __sinit_lock_release
 .text.__fp_lock_all
                0x000000000080f5c0       0x18 c:/intelfpga_lite/18.1/nios2eds/bin/gnu/h-x86_64-mingw32/bin/../lib/gcc/nios2-elf/5.3.0/../../../../../H-x86_64-mingw32/nios2-elf/lib\libc.a(lib_a-findfp.o)
                0x000000000080f5c0                __fp_lock_all
 .text.__fp_unlock_all
                0x000000000080f5d8       0x18 c:/intelfpga_lite/18.1/nios2eds/bin/gnu/h-x86_64-mingw32/bin/../lib/gcc/nios2-elf/5.3.0/../../../../../H-x86_64-mingw32/nios2-elf/lib\libc.a(lib_a-findfp.o)
                0x000000000080f5d8                __fp_unlock_all
 .text          0x000000000080f5f0        0x0 c:/intelfpga_lite/18.1/nios2eds/bin/gnu/h-x86_64-mingw32/bin/../lib/gcc/nios2-elf/5.3.0/../../../../../H-x86_64-mingw32/nios2-elf/lib\libc.a(lib_a-fputc.o)
 .text._fputc_r
                0x000000000080f5f0       0x44 c:/intelfpga_lite/18.1/nios2eds/bin/gnu/h-x86_64-mingw32/bin/../lib/gcc/nios2-elf/5.3.0/../../../../../H-x86_64-mingw32/nios2-elf/lib\libc.a(lib_a-fputc.o)
                0x000000000080f5f0                _fputc_r
 .text.fputc    0x000000000080f634       0x5c c:/intelfpga_lite/18.1/nios2eds/bin/gnu/h-x86_64-mingw32/bin/../lib/gcc/nios2-elf/5.3.0/../../../../../H-x86_64-mingw32/nios2-elf/lib\libc.a(lib_a-fputc.o)
                0x000000000080f634                fputc
 .text          0x000000000080f690        0x0 c:/intelfpga_lite/18.1/nios2eds/bin/gnu/h-x86_64-mingw32/bin/../lib/gcc/nios2-elf/5.3.0/../../../../../H-x86_64-mingw32/nios2-elf/lib\libc.a(lib_a-fputs.o)
 .text._fputs_r
                0x000000000080f690       0x9c c:/intelfpga_lite/18.1/nios2eds/bin/gnu/h-x86_64-mingw32/bin/../lib/gcc/nios2-elf/5.3.0/../../../../../H-x86_64-mingw32/nios2-elf/lib\libc.a(lib_a-fputs.o)
                0x000000000080f690                _fputs_r
 .text.fputs    0x000000000080f72c       0x18 c:/intelfpga_lite/18.1/nios2eds/bin/gnu/h-x86_64-mingw32/bin/../lib/gcc/nios2-elf/5.3.0/../../../../../H-x86_64-mingw32/nios2-elf/lib\libc.a(lib_a-fputs.o)
                0x000000000080f72c                fputs
 .text          0x000000000080f744        0x0 c:/intelfpga_lite/18.1/nios2eds/bin/gnu/h-x86_64-mingw32/bin/../lib/gcc/nios2-elf/5.3.0/../../../../../H-x86_64-mingw32/nios2-elf/lib\libc.a(lib_a-freer.o)
 .text._malloc_trim_r
                0x000000000080f744      0x124 c:/intelfpga_lite/18.1/nios2eds/bin/gnu/h-x86_64-mingw32/bin/../lib/gcc/nios2-elf/5.3.0/../../../../../H-x86_64-mingw32/nios2-elf/lib\libc.a(lib_a-freer.o)
                0x000000000080f744                _malloc_trim_r
 .text._free_r  0x000000000080f868      0x310 c:/intelfpga_lite/18.1/nios2eds/bin/gnu/h-x86_64-mingw32/bin/../lib/gcc/nios2-elf/5.3.0/../../../../../H-x86_64-mingw32/nios2-elf/lib\libc.a(lib_a-freer.o)
                0x000000000080f868                _free_r
 .text          0x000000000080fb78        0x0 c:/intelfpga_lite/18.1/nios2eds/bin/gnu/h-x86_64-mingw32/bin/../lib/gcc/nios2-elf/5.3.0/../../../../../H-x86_64-mingw32/nios2-elf/lib\libc.a(lib_a-fvwrite.o)
 .text.__sfvwrite_r
                0x000000000080fb78      0x4bc c:/intelfpga_lite/18.1/nios2eds/bin/gnu/h-x86_64-mingw32/bin/../lib/gcc/nios2-elf/5.3.0/../../../../../H-x86_64-mingw32/nios2-elf/lib\libc.a(lib_a-fvwrite.o)
                0x000000000080fb78                __sfvwrite_r
 .text          0x0000000000810034        0x0 c:/intelfpga_lite/18.1/nios2eds/bin/gnu/h-x86_64-mingw32/bin/../lib/gcc/nios2-elf/5.3.0/../../../../../H-x86_64-mingw32/nios2-elf/lib\libc.a(lib_a-fwalk.o)
 .text._fwalk   0x0000000000810034       0xc4 c:/intelfpga_lite/18.1/nios2eds/bin/gnu/h-x86_64-mingw32/bin/../lib/gcc/nios2-elf/5.3.0/../../../../../H-x86_64-mingw32/nios2-elf/lib\libc.a(lib_a-fwalk.o)
                0x0000000000810034                _fwalk
 .text._fwalk_reent
                0x00000000008100f8       0xc4 c:/intelfpga_lite/18.1/nios2eds/bin/gnu/h-x86_64-mingw32/bin/../lib/gcc/nios2-elf/5.3.0/../../../../../H-x86_64-mingw32/nios2-elf/lib\libc.a(lib_a-fwalk.o)
                0x00000000008100f8                _fwalk_reent
 .text          0x00000000008101bc        0x0 c:/intelfpga_lite/18.1/nios2eds/bin/gnu/h-x86_64-mingw32/bin/../lib/gcc/nios2-elf/5.3.0/../../../../../H-x86_64-mingw32/nios2-elf/lib\libc.a(lib_a-int_errno.o)
 .text          0x00000000008101bc        0x0 c:/intelfpga_lite/18.1/nios2eds/bin/gnu/h-x86_64-mingw32/bin/../lib/gcc/nios2-elf/5.3.0/../../../../../H-x86_64-mingw32/nios2-elf/lib\libc.a(lib_a-locale.o)
 .text._setlocale_r
                0x00000000008101bc       0x7c c:/intelfpga_lite/18.1/nios2eds/bin/gnu/h-x86_64-mingw32/bin/../lib/gcc/nios2-elf/5.3.0/../../../../../H-x86_64-mingw32/nios2-elf/lib\libc.a(lib_a-locale.o)
                0x00000000008101bc                _setlocale_r
 .text.__locale_charset
                0x0000000000810238        0xc c:/intelfpga_lite/18.1/nios2eds/bin/gnu/h-x86_64-mingw32/bin/../lib/gcc/nios2-elf/5.3.0/../../../../../H-x86_64-mingw32/nios2-elf/lib\libc.a(lib_a-locale.o)
                0x0000000000810238                __locale_charset
 .text.__locale_mb_cur_max
                0x0000000000810244       0x10 c:/intelfpga_lite/18.1/nios2eds/bin/gnu/h-x86_64-mingw32/bin/../lib/gcc/nios2-elf/5.3.0/../../../../../H-x86_64-mingw32/nios2-elf/lib\libc.a(lib_a-locale.o)
                0x0000000000810244                __locale_mb_cur_max
 .text.__locale_msgcharset
                0x0000000000810254        0xc c:/intelfpga_lite/18.1/nios2eds/bin/gnu/h-x86_64-mingw32/bin/../lib/gcc/nios2-elf/5.3.0/../../../../../H-x86_64-mingw32/nios2-elf/lib\libc.a(lib_a-locale.o)
                0x0000000000810254                __locale_msgcharset
 .text.__locale_cjk_lang
                0x0000000000810260        0x8 c:/intelfpga_lite/18.1/nios2eds/bin/gnu/h-x86_64-mingw32/bin/../lib/gcc/nios2-elf/5.3.0/../../../../../H-x86_64-mingw32/nios2-elf/lib\libc.a(lib_a-locale.o)
                0x0000000000810260                __locale_cjk_lang
 .text._localeconv_r
                0x0000000000810268        0xc c:/intelfpga_lite/18.1/nios2eds/bin/gnu/h-x86_64-mingw32/bin/../lib/gcc/nios2-elf/5.3.0/../../../../../H-x86_64-mingw32/nios2-elf/lib\libc.a(lib_a-locale.o)
                0x0000000000810268                _localeconv_r
 .text.setlocale
                0x0000000000810274       0x18 c:/intelfpga_lite/18.1/nios2eds/bin/gnu/h-x86_64-mingw32/bin/../lib/gcc/nios2-elf/5.3.0/../../../../../H-x86_64-mingw32/nios2-elf/lib\libc.a(lib_a-locale.o)
                0x0000000000810274                setlocale
 .text.localeconv
                0x000000000081028c        0xc c:/intelfpga_lite/18.1/nios2eds/bin/gnu/h-x86_64-mingw32/bin/../lib/gcc/nios2-elf/5.3.0/../../../../../H-x86_64-mingw32/nios2-elf/lib\libc.a(lib_a-locale.o)
                0x000000000081028c                localeconv
 .text          0x0000000000810298        0x0 c:/intelfpga_lite/18.1/nios2eds/bin/gnu/h-x86_64-mingw32/bin/../lib/gcc/nios2-elf/5.3.0/../../../../../H-x86_64-mingw32/nios2-elf/lib\libc.a(lib_a-makebuf.o)
 .text.__smakebuf_r
                0x0000000000810298      0x1bc c:/intelfpga_lite/18.1/nios2eds/bin/gnu/h-x86_64-mingw32/bin/../lib/gcc/nios2-elf/5.3.0/../../../../../H-x86_64-mingw32/nios2-elf/lib\libc.a(lib_a-makebuf.o)
                0x0000000000810298                __smakebuf_r
 .text          0x0000000000810454        0x0 c:/intelfpga_lite/18.1/nios2eds/bin/gnu/h-x86_64-mingw32/bin/../lib/gcc/nios2-elf/5.3.0/../../../../../H-x86_64-mingw32/nios2-elf/lib\libc.a(lib_a-memchr.o)
 .text.memchr   0x0000000000810454       0xe4 c:/intelfpga_lite/18.1/nios2eds/bin/gnu/h-x86_64-mingw32/bin/../lib/gcc/nios2-elf/5.3.0/../../../../../H-x86_64-mingw32/nios2-elf/lib\libc.a(lib_a-memchr.o)
                0x0000000000810454                memchr
 .text          0x0000000000810538        0x0 c:/intelfpga_lite/18.1/nios2eds/bin/gnu/h-x86_64-mingw32/bin/../lib/gcc/nios2-elf/5.3.0/../../../../../H-x86_64-mingw32/nios2-elf/lib\libc.a(lib_a-memmove.o)
 .text.memmove  0x0000000000810538      0x15c c:/intelfpga_lite/18.1/nios2eds/bin/gnu/h-x86_64-mingw32/bin/../lib/gcc/nios2-elf/5.3.0/../../../../../H-x86_64-mingw32/nios2-elf/lib\libc.a(lib_a-memmove.o)
                0x0000000000810538                memmove
 .text          0x0000000000810694        0x0 c:/intelfpga_lite/18.1/nios2eds/bin/gnu/h-x86_64-mingw32/bin/../lib/gcc/nios2-elf/5.3.0/../../../../../H-x86_64-mingw32/nios2-elf/lib\libc.a(lib_a-mprec.o)
 .text._Balloc  0x0000000000810694       0xa8 c:/intelfpga_lite/18.1/nios2eds/bin/gnu/h-x86_64-mingw32/bin/../lib/gcc/nios2-elf/5.3.0/../../../../../H-x86_64-mingw32/nios2-elf/lib\libc.a(lib_a-mprec.o)
                0x0000000000810694                _Balloc
 .text._Bfree   0x000000000081073c       0x28 c:/intelfpga_lite/18.1/nios2eds/bin/gnu/h-x86_64-mingw32/bin/../lib/gcc/nios2-elf/5.3.0/../../../../../H-x86_64-mingw32/nios2-elf/lib\libc.a(lib_a-mprec.o)
                0x000000000081073c                _Bfree
 .text.__multadd
                0x0000000000810764      0x120 c:/intelfpga_lite/18.1/nios2eds/bin/gnu/h-x86_64-mingw32/bin/../lib/gcc/nios2-elf/5.3.0/../../../../../H-x86_64-mingw32/nios2-elf/lib\libc.a(lib_a-mprec.o)
                0x0000000000810764                __multadd
 .text.__s2b    0x0000000000810884      0x104 c:/intelfpga_lite/18.1/nios2eds/bin/gnu/h-x86_64-mingw32/bin/../lib/gcc/nios2-elf/5.3.0/../../../../../H-x86_64-mingw32/nios2-elf/lib\libc.a(lib_a-mprec.o)
                0x0000000000810884                __s2b
 .text.__hi0bits
                0x0000000000810988       0x68 c:/intelfpga_lite/18.1/nios2eds/bin/gnu/h-x86_64-mingw32/bin/../lib/gcc/nios2-elf/5.3.0/../../../../../H-x86_64-mingw32/nios2-elf/lib\libc.a(lib_a-mprec.o)
                0x0000000000810988                __hi0bits
 .text.__lo0bits
                0x00000000008109f0       0xb0 c:/intelfpga_lite/18.1/nios2eds/bin/gnu/h-x86_64-mingw32/bin/../lib/gcc/nios2-elf/5.3.0/../../../../../H-x86_64-mingw32/nios2-elf/lib\libc.a(lib_a-mprec.o)
                0x00000000008109f0                __lo0bits
 .text.__i2b    0x0000000000810aa0       0x3c c:/intelfpga_lite/18.1/nios2eds/bin/gnu/h-x86_64-mingw32/bin/../lib/gcc/nios2-elf/5.3.0/../../../../../H-x86_64-mingw32/nios2-elf/lib\libc.a(lib_a-mprec.o)
                0x0000000000810aa0                __i2b
 .text.__multiply
                0x0000000000810adc      0x1f8 c:/intelfpga_lite/18.1/nios2eds/bin/gnu/h-x86_64-mingw32/bin/../lib/gcc/nios2-elf/5.3.0/../../../../../H-x86_64-mingw32/nios2-elf/lib\libc.a(lib_a-mprec.o)
                0x0000000000810adc                __multiply
 .text.__pow5mult
                0x0000000000810cd4      0x140 c:/intelfpga_lite/18.1/nios2eds/bin/gnu/h-x86_64-mingw32/bin/../lib/gcc/nios2-elf/5.3.0/../../../../../H-x86_64-mingw32/nios2-elf/lib\libc.a(lib_a-mprec.o)
                0x0000000000810cd4                __pow5mult
 .text.__lshift
                0x0000000000810e14      0x148 c:/intelfpga_lite/18.1/nios2eds/bin/gnu/h-x86_64-mingw32/bin/../lib/gcc/nios2-elf/5.3.0/../../../../../H-x86_64-mingw32/nios2-elf/lib\libc.a(lib_a-mprec.o)
                0x0000000000810e14                __lshift
 .text.__mcmp   0x0000000000810f5c       0x60 c:/intelfpga_lite/18.1/nios2eds/bin/gnu/h-x86_64-mingw32/bin/../lib/gcc/nios2-elf/5.3.0/../../../../../H-x86_64-mingw32/nios2-elf/lib\libc.a(lib_a-mprec.o)
                0x0000000000810f5c                __mcmp
 .text.__mdiff  0x0000000000810fbc      0x1fc c:/intelfpga_lite/18.1/nios2eds/bin/gnu/h-x86_64-mingw32/bin/../lib/gcc/nios2-elf/5.3.0/../../../../../H-x86_64-mingw32/nios2-elf/lib\libc.a(lib_a-mprec.o)
                0x0000000000810fbc                __mdiff
 .text.__ulp    0x00000000008111b8       0x64 c:/intelfpga_lite/18.1/nios2eds/bin/gnu/h-x86_64-mingw32/bin/../lib/gcc/nios2-elf/5.3.0/../../../../../H-x86_64-mingw32/nios2-elf/lib\libc.a(lib_a-mprec.o)
                0x00000000008111b8                __ulp
 .text.__b2d    0x000000000081121c      0x10c c:/intelfpga_lite/18.1/nios2eds/bin/gnu/h-x86_64-mingw32/bin/../lib/gcc/nios2-elf/5.3.0/../../../../../H-x86_64-mingw32/nios2-elf/lib\libc.a(lib_a-mprec.o)
                0x000000000081121c                __b2d
 .text.__d2b    0x0000000000811328      0x14c c:/intelfpga_lite/18.1/nios2eds/bin/gnu/h-x86_64-mingw32/bin/../lib/gcc/nios2-elf/5.3.0/../../../../../H-x86_64-mingw32/nios2-elf/lib\libc.a(lib_a-mprec.o)
                0x0000000000811328                __d2b
 .text.__ratio  0x0000000000811474       0xa4 c:/intelfpga_lite/18.1/nios2eds/bin/gnu/h-x86_64-mingw32/bin/../lib/gcc/nios2-elf/5.3.0/../../../../../H-x86_64-mingw32/nios2-elf/lib\libc.a(lib_a-mprec.o)
                0x0000000000811474                __ratio
 .text._mprec_log10
                0x0000000000811518       0x74 c:/intelfpga_lite/18.1/nios2eds/bin/gnu/h-x86_64-mingw32/bin/../lib/gcc/nios2-elf/5.3.0/../../../../../H-x86_64-mingw32/nios2-elf/lib\libc.a(lib_a-mprec.o)
                0x0000000000811518                _mprec_log10
 .text.__copybits
                0x000000000081158c       0x78 c:/intelfpga_lite/18.1/nios2eds/bin/gnu/h-x86_64-mingw32/bin/../lib/gcc/nios2-elf/5.3.0/../../../../../H-x86_64-mingw32/nios2-elf/lib\libc.a(lib_a-mprec.o)
                0x000000000081158c                __copybits
 .text.__any_on
                0x0000000000811604       0x8c c:/intelfpga_lite/18.1/nios2eds/bin/gnu/h-x86_64-mingw32/bin/../lib/gcc/nios2-elf/5.3.0/../../../../../H-x86_64-mingw32/nios2-elf/lib\libc.a(lib_a-mprec.o)
                0x0000000000811604                __any_on
 .text          0x0000000000811690        0x0 c:/intelfpga_lite/18.1/nios2eds/bin/gnu/h-x86_64-mingw32/bin/../lib/gcc/nios2-elf/5.3.0/../../../../../H-x86_64-mingw32/nios2-elf/lib\libc.a(lib_a-putc.o)
 .text._putc_r  0x0000000000811690       0xa0 c:/intelfpga_lite/18.1/nios2eds/bin/gnu/h-x86_64-mingw32/bin/../lib/gcc/nios2-elf/5.3.0/../../../../../H-x86_64-mingw32/nios2-elf/lib\libc.a(lib_a-putc.o)
                0x0000000000811690                _putc_r
 .text.putc     0x0000000000811730       0xc8 c:/intelfpga_lite/18.1/nios2eds/bin/gnu/h-x86_64-mingw32/bin/../lib/gcc/nios2-elf/5.3.0/../../../../../H-x86_64-mingw32/nios2-elf/lib\libc.a(lib_a-putc.o)
                0x0000000000811730                putc
 .text          0x00000000008117f8        0x0 c:/intelfpga_lite/18.1/nios2eds/bin/gnu/h-x86_64-mingw32/bin/../lib/gcc/nios2-elf/5.3.0/../../../../../H-x86_64-mingw32/nios2-elf/lib\libc.a(lib_a-reallocr.o)
 .text._realloc_r
                0x00000000008117f8      0x564 c:/intelfpga_lite/18.1/nios2eds/bin/gnu/h-x86_64-mingw32/bin/../lib/gcc/nios2-elf/5.3.0/../../../../../H-x86_64-mingw32/nios2-elf/lib\libc.a(lib_a-reallocr.o)
                0x00000000008117f8                _realloc_r
 .text          0x0000000000811d5c        0x0 c:/intelfpga_lite/18.1/nios2eds/bin/gnu/h-x86_64-mingw32/bin/../lib/gcc/nios2-elf/5.3.0/../../../../../H-x86_64-mingw32/nios2-elf/lib\libc.a(lib_a-s_fpclassify.o)
 .text.__fpclassifyd
                0x0000000000811d5c       0x74 c:/intelfpga_lite/18.1/nios2eds/bin/gnu/h-x86_64-mingw32/bin/../lib/gcc/nios2-elf/5.3.0/../../../../../H-x86_64-mingw32/nios2-elf/lib\libc.a(lib_a-s_fpclassify.o)
                0x0000000000811d5c                __fpclassifyd
 .text          0x0000000000811dd0        0x0 c:/intelfpga_lite/18.1/nios2eds/bin/gnu/h-x86_64-mingw32/bin/../lib/gcc/nios2-elf/5.3.0/../../../../../H-x86_64-mingw32/nios2-elf/lib\libc.a(lib_a-stdio.o)
 .text.__sread  0x0000000000811dd0       0x54 c:/intelfpga_lite/18.1/nios2eds/bin/gnu/h-x86_64-mingw32/bin/../lib/gcc/nios2-elf/5.3.0/../../../../../H-x86_64-mingw32/nios2-elf/lib\libc.a(lib_a-stdio.o)
                0x0000000000811dd0                __sread
 .text.__seofread
                0x0000000000811e24        0x8 c:/intelfpga_lite/18.1/nios2eds/bin/gnu/h-x86_64-mingw32/bin/../lib/gcc/nios2-elf/5.3.0/../../../../../H-x86_64-mingw32/nios2-elf/lib\libc.a(lib_a-stdio.o)
                0x0000000000811e24                __seofread
 .text.__swrite
                0x0000000000811e2c       0x7c c:/intelfpga_lite/18.1/nios2eds/bin/gnu/h-x86_64-mingw32/bin/../lib/gcc/nios2-elf/5.3.0/../../../../../H-x86_64-mingw32/nios2-elf/lib\libc.a(lib_a-stdio.o)
                0x0000000000811e2c                __swrite
 .text.__sseek  0x0000000000811ea8       0x5c c:/intelfpga_lite/18.1/nios2eds/bin/gnu/h-x86_64-mingw32/bin/../lib/gcc/nios2-elf/5.3.0/../../../../../H-x86_64-mingw32/nios2-elf/lib\libc.a(lib_a-stdio.o)
                0x0000000000811ea8                __sseek
 .text.__sclose
                0x0000000000811f04        0x8 c:/intelfpga_lite/18.1/nios2eds/bin/gnu/h-x86_64-mingw32/bin/../lib/gcc/nios2-elf/5.3.0/../../../../../H-x86_64-mingw32/nios2-elf/lib\libc.a(lib_a-stdio.o)
                0x0000000000811f04                __sclose
 .text          0x0000000000811f0c        0x0 c:/intelfpga_lite/18.1/nios2eds/bin/gnu/h-x86_64-mingw32/bin/../lib/gcc/nios2-elf/5.3.0/../../../../../H-x86_64-mingw32/nios2-elf/lib\libc.a(lib_a-svfiprintf.o)
 .text.__ssprint_r
                0x0000000000811f0c      0x1d0 c:/intelfpga_lite/18.1/nios2eds/bin/gnu/h-x86_64-mingw32/bin/../lib/gcc/nios2-elf/5.3.0/../../../../../H-x86_64-mingw32/nios2-elf/lib\libc.a(lib_a-svfiprintf.o)
                0x0000000000811f0c                __ssprint_r
 .text.___svfiprintf_internal_r
                0x00000000008120dc     0x123c c:/intelfpga_lite/18.1/nios2eds/bin/gnu/h-x86_64-mingw32/bin/../lib/gcc/nios2-elf/5.3.0/../../../../../H-x86_64-mingw32/nios2-elf/lib\libc.a(lib_a-svfiprintf.o)
                0x00000000008120dc                ___svfiprintf_internal_r
 .text          0x0000000000813318        0x0 c:/intelfpga_lite/18.1/nios2eds/bin/gnu/h-x86_64-mingw32/bin/../lib/gcc/nios2-elf/5.3.0/../../../../../H-x86_64-mingw32/nios2-elf/lib\libc.a(lib_a-vfiprintf.o)
 .text.__sprint_r.part.0
                0x0000000000813318       0xfc c:/intelfpga_lite/18.1/nios2eds/bin/gnu/h-x86_64-mingw32/bin/../lib/gcc/nios2-elf/5.3.0/../../../../../H-x86_64-mingw32/nios2-elf/lib\libc.a(lib_a-vfiprintf.o)
 .text.__sprint_r
                0x0000000000813414       0x18 c:/intelfpga_lite/18.1/nios2eds/bin/gnu/h-x86_64-mingw32/bin/../lib/gcc/nios2-elf/5.3.0/../../../../../H-x86_64-mingw32/nios2-elf/lib\libc.a(lib_a-vfiprintf.o)
                0x0000000000813414                __sprint_r
 .text.___vfiprintf_internal_r
                0x000000000081342c     0x145c c:/intelfpga_lite/18.1/nios2eds/bin/gnu/h-x86_64-mingw32/bin/../lib/gcc/nios2-elf/5.3.0/../../../../../H-x86_64-mingw32/nios2-elf/lib\libc.a(lib_a-vfiprintf.o)
                0x000000000081342c                ___vfiprintf_internal_r
 .text.__vfiprintf_internal
                0x0000000000814888       0x1c c:/intelfpga_lite/18.1/nios2eds/bin/gnu/h-x86_64-mingw32/bin/../lib/gcc/nios2-elf/5.3.0/../../../../../H-x86_64-mingw32/nios2-elf/lib\libc.a(lib_a-vfiprintf.o)
                0x0000000000814888                __vfiprintf_internal
 .text.__sbprintf
                0x00000000008148a4       0xbc c:/intelfpga_lite/18.1/nios2eds/bin/gnu/h-x86_64-mingw32/bin/../lib/gcc/nios2-elf/5.3.0/../../../../../H-x86_64-mingw32/nios2-elf/lib\libc.a(lib_a-vfiprintf.o)
 .text          0x0000000000814960        0x0 c:/intelfpga_lite/18.1/nios2eds/bin/gnu/h-x86_64-mingw32/bin/../lib/gcc/nios2-elf/5.3.0/../../../../../H-x86_64-mingw32/nios2-elf/lib\libc.a(lib_a-wbuf.o)
 .text.__swbuf_r
                0x0000000000814960      0x140 c:/intelfpga_lite/18.1/nios2eds/bin/gnu/h-x86_64-mingw32/bin/../lib/gcc/nios2-elf/5.3.0/../../../../../H-x86_64-mingw32/nios2-elf/lib\libc.a(lib_a-wbuf.o)
                0x0000000000814960                __swbuf_r
 .text.__swbuf  0x0000000000814aa0       0x18 c:/intelfpga_lite/18.1/nios2eds/bin/gnu/h-x86_64-mingw32/bin/../lib/gcc/nios2-elf/5.3.0/../../../../../H-x86_64-mingw32/nios2-elf/lib\libc.a(lib_a-wbuf.o)
                0x0000000000814aa0                __swbuf
 .text          0x0000000000814ab8        0x0 c:/intelfpga_lite/18.1/nios2eds/bin/gnu/h-x86_64-mingw32/bin/../lib/gcc/nios2-elf/5.3.0/../../../../../H-x86_64-mingw32/nios2-elf/lib\libc.a(lib_a-writer.o)
 .text._write_r
                0x0000000000814ab8       0x60 c:/intelfpga_lite/18.1/nios2eds/bin/gnu/h-x86_64-mingw32/bin/../lib/gcc/nios2-elf/5.3.0/../../../../../H-x86_64-mingw32/nios2-elf/lib\libc.a(lib_a-writer.o)
                0x0000000000814ab8                _write_r
 .text          0x0000000000814b18        0x0 c:/intelfpga_lite/18.1/nios2eds/bin/gnu/h-x86_64-mingw32/bin/../lib/gcc/nios2-elf/5.3.0/../../../../../H-x86_64-mingw32/nios2-elf/lib\libc.a(closer.o)
 .text._close_r
                0x0000000000814b18       0x54 c:/intelfpga_lite/18.1/nios2eds/bin/gnu/h-x86_64-mingw32/bin/../lib/gcc/nios2-elf/5.3.0/../../../../../H-x86_64-mingw32/nios2-elf/lib\libc.a(closer.o)
                0x0000000000814b18                _close_r
 .text          0x0000000000814b6c        0x0 c:/intelfpga_lite/18.1/nios2eds/bin/gnu/h-x86_64-mingw32/bin/../lib/gcc/nios2-elf/5.3.0/../../../../../H-x86_64-mingw32/nios2-elf/lib\libc.a(lib_a-fclose.o)
 .text._fclose_r
                0x0000000000814b6c       0xf0 c:/intelfpga_lite/18.1/nios2eds/bin/gnu/h-x86_64-mingw32/bin/../lib/gcc/nios2-elf/5.3.0/../../../../../H-x86_64-mingw32/nios2-elf/lib\libc.a(lib_a-fclose.o)
                0x0000000000814b6c                _fclose_r
 .text.fclose   0x0000000000814c5c       0x14 c:/intelfpga_lite/18.1/nios2eds/bin/gnu/h-x86_64-mingw32/bin/../lib/gcc/nios2-elf/5.3.0/../../../../../H-x86_64-mingw32/nios2-elf/lib\libc.a(lib_a-fclose.o)
                0x0000000000814c5c                fclose
 .text          0x0000000000814c70        0x0 c:/intelfpga_lite/18.1/nios2eds/bin/gnu/h-x86_64-mingw32/bin/../lib/gcc/nios2-elf/5.3.0/../../../../../H-x86_64-mingw32/nios2-elf/lib\libc.a(lib_a-fputwc.o)
 .text.__fputwc
                0x0000000000814c70      0x164 c:/intelfpga_lite/18.1/nios2eds/bin/gnu/h-x86_64-mingw32/bin/../lib/gcc/nios2-elf/5.3.0/../../../../../H-x86_64-mingw32/nios2-elf/lib\libc.a(lib_a-fputwc.o)
                0x0000000000814c70                __fputwc
 .text._fputwc_r
                0x0000000000814dd4       0x24 c:/intelfpga_lite/18.1/nios2eds/bin/gnu/h-x86_64-mingw32/bin/../lib/gcc/nios2-elf/5.3.0/../../../../../H-x86_64-mingw32/nios2-elf/lib\libc.a(lib_a-fputwc.o)
                0x0000000000814dd4                _fputwc_r
 .text.fputwc   0x0000000000814df8       0x80 c:/intelfpga_lite/18.1/nios2eds/bin/gnu/h-x86_64-mingw32/bin/../lib/gcc/nios2-elf/5.3.0/../../../../../H-x86_64-mingw32/nios2-elf/lib\libc.a(lib_a-fputwc.o)
                0x0000000000814df8                fputwc
 .text          0x0000000000814e78        0x0 c:/intelfpga_lite/18.1/nios2eds/bin/gnu/h-x86_64-mingw32/bin/../lib/gcc/nios2-elf/5.3.0/../../../../../H-x86_64-mingw32/nios2-elf/lib\libc.a(lib_a-fstatr.o)
 .text._fstat_r
                0x0000000000814e78       0x5c c:/intelfpga_lite/18.1/nios2eds/bin/gnu/h-x86_64-mingw32/bin/../lib/gcc/nios2-elf/5.3.0/../../../../../H-x86_64-mingw32/nios2-elf/lib\libc.a(lib_a-fstatr.o)
                0x0000000000814e78                _fstat_r
 .text          0x0000000000814ed4        0x0 c:/intelfpga_lite/18.1/nios2eds/bin/gnu/h-x86_64-mingw32/bin/../lib/gcc/nios2-elf/5.3.0/../../../../../H-x86_64-mingw32/nios2-elf/lib\libc.a(lib_a-isattyr.o)
 .text._isatty_r
                0x0000000000814ed4       0x54 c:/intelfpga_lite/18.1/nios2eds/bin/gnu/h-x86_64-mingw32/bin/../lib/gcc/nios2-elf/5.3.0/../../../../../H-x86_64-mingw32/nios2-elf/lib\libc.a(lib_a-isattyr.o)
                0x0000000000814ed4                _isatty_r
 .text          0x0000000000814f28        0x0 c:/intelfpga_lite/18.1/nios2eds/bin/gnu/h-x86_64-mingw32/bin/../lib/gcc/nios2-elf/5.3.0/../../../../../H-x86_64-mingw32/nios2-elf/lib\libc.a(lib_a-lseekr.o)
 .text._lseek_r
                0x0000000000814f28       0x60 c:/intelfpga_lite/18.1/nios2eds/bin/gnu/h-x86_64-mingw32/bin/../lib/gcc/nios2-elf/5.3.0/../../../../../H-x86_64-mingw32/nios2-elf/lib\libc.a(lib_a-lseekr.o)
                0x0000000000814f28                _lseek_r
 .text          0x0000000000814f88        0x0 c:/intelfpga_lite/18.1/nios2eds/bin/gnu/h-x86_64-mingw32/bin/../lib/gcc/nios2-elf/5.3.0/../../../../../H-x86_64-mingw32/nios2-elf/lib\libc.a(lib_a-readr.o)
 .text._read_r  0x0000000000814f88       0x60 c:/intelfpga_lite/18.1/nios2eds/bin/gnu/h-x86_64-mingw32/bin/../lib/gcc/nios2-elf/5.3.0/../../../../../H-x86_64-mingw32/nios2-elf/lib\libc.a(lib_a-readr.o)
                0x0000000000814f88                _read_r
 .text          0x0000000000814fe8        0x0 c:/intelfpga_lite/18.1/nios2eds/bin/gnu/h-x86_64-mingw32/bin/../lib/gcc/nios2-elf/5.3.0/../../../../../H-x86_64-mingw32/nios2-elf/lib\libc.a(lib_a-wcrtomb.o)
 .text._wcrtomb_r
                0x0000000000814fe8       0x9c c:/intelfpga_lite/18.1/nios2eds/bin/gnu/h-x86_64-mingw32/bin/../lib/gcc/nios2-elf/5.3.0/../../../../../H-x86_64-mingw32/nios2-elf/lib\libc.a(lib_a-wcrtomb.o)
                0x0000000000814fe8                _wcrtomb_r
 .text.wcrtomb  0x0000000000815084       0xc0 c:/intelfpga_lite/18.1/nios2eds/bin/gnu/h-x86_64-mingw32/bin/../lib/gcc/nios2-elf/5.3.0/../../../../../H-x86_64-mingw32/nios2-elf/lib\libc.a(lib_a-wcrtomb.o)
                0x0000000000815084                wcrtomb
 .text          0x0000000000815144        0x0 c:/intelfpga_lite/18.1/nios2eds/bin/gnu/h-x86_64-mingw32/bin/../lib/gcc/nios2-elf/5.3.0/../../../../../H-x86_64-mingw32/nios2-elf/lib\libc.a(lib_a-wctomb_r.o)
 .text.__ascii_wctomb
                0x0000000000815144       0x30 c:/intelfpga_lite/18.1/nios2eds/bin/gnu/h-x86_64-mingw32/bin/../lib/gcc/nios2-elf/5.3.0/../../../../../H-x86_64-mingw32/nios2-elf/lib\libc.a(lib_a-wctomb_r.o)
                0x0000000000815144                __ascii_wctomb
 .text._wctomb_r
                0x0000000000815174       0x5c c:/intelfpga_lite/18.1/nios2eds/bin/gnu/h-x86_64-mingw32/bin/../lib/gcc/nios2-elf/5.3.0/../../../../../H-x86_64-mingw32/nios2-elf/lib\libc.a(lib_a-wctomb_r.o)
                0x0000000000815174                _wctomb_r
 .text          0x00000000008151d0      0x578 c:/intelfpga_lite/18.1/nios2eds/bin/gnu/h-x86_64-mingw32/bin/../lib/gcc/nios2-elf/5.3.0\libgcc.a(_udivdi3.o)
                0x00000000008151d0                __udivdi3
 .text          0x0000000000815748      0x538 c:/intelfpga_lite/18.1/nios2eds/bin/gnu/h-x86_64-mingw32/bin/../lib/gcc/nios2-elf/5.3.0\libgcc.a(_umoddi3.o)
                0x0000000000815748                __umoddi3
 .text          0x0000000000815c80       0x88 c:/intelfpga_lite/18.1/nios2eds/bin/gnu/h-x86_64-mingw32/bin/../lib/gcc/nios2-elf/5.3.0\libgcc.a(eqdf2.o)
                0x0000000000815c80                __nedf2
                0x0000000000815c80                __eqdf2
 .text          0x0000000000815d08       0xdc c:/intelfpga_lite/18.1/nios2eds/bin/gnu/h-x86_64-mingw32/bin/../lib/gcc/nios2-elf/5.3.0\libgcc.a(gedf2.o)
                0x0000000000815d08                __gedf2
                0x0000000000815d08                __gtdf2
 .text          0x0000000000815de4       0xf4 c:/intelfpga_lite/18.1/nios2eds/bin/gnu/h-x86_64-mingw32/bin/../lib/gcc/nios2-elf/5.3.0\libgcc.a(ledf2.o)
                0x0000000000815de4                __ledf2
                0x0000000000815de4                __ltdf2
 .text          0x0000000000815ed8      0x8fc c:/intelfpga_lite/18.1/nios2eds/bin/gnu/h-x86_64-mingw32/bin/../lib/gcc/nios2-elf/5.3.0\libgcc.a(subdf3.o)
                0x0000000000815ed8                __subdf3
 .text          0x00000000008167d4       0x80 c:/intelfpga_lite/18.1/nios2eds/bin/gnu/h-x86_64-mingw32/bin/../lib/gcc/nios2-elf/5.3.0\libgcc.a(fixdfsi.o)
                0x00000000008167d4                __fixdfsi
 .text          0x0000000000816854       0xec ../candy_avb_sss_bsp/\libucosii_bsp.a(alt_fstat.o)
                0x0000000000816890                fstat
 .text          0x0000000000816940       0xe0 ../candy_avb_sss_bsp/\libucosii_bsp.a(alt_isatty.o)
                0x000000000081697c                isatty
 .text          0x0000000000816a20      0x110 ../candy_avb_sss_bsp/\libucosii_bsp.a(alt_lseek.o)
                0x0000000000816a5c                lseek
 .text          0x0000000000816b30       0xbc ../candy_avb_sss_bsp/\libucosii_bsp.a(alt_main.o)
                0x0000000000816b30                alt_main
 .text          0x0000000000816bec       0xb0 ../candy_avb_sss_bsp/\libucosii_bsp.a(alt_sbrk.o)
                0x0000000000816bec                sbrk
 .text          0x0000000000816c9c      0x114 ../candy_avb_sss_bsp/\libucosii_bsp.a(alt_usleep.o)
                0x0000000000816c9c                usleep
 .text          0x0000000000816db0      0x124 ../candy_avb_sss_bsp/\libucosii_bsp.a(alt_env_lock.o)
                0x0000000000816db0                __env_lock
                0x0000000000816e74                __env_unlock
 .text          0x0000000000816ed4      0x1ec ../candy_avb_sss_bsp/\libucosii_bsp.a(alt_malloc_lock.o)
                0x0000000000816ed4                __malloc_lock
                0x0000000000816ff4                __malloc_unlock
 .text          0x00000000008170c0     0x2014 ../candy_avb_sss_bsp/\libucosii_bsp.a(os_core.o)
                0x00000000008170c0                OSEventNameGet
                0x00000000008171e0                OSEventNameSet
                0x0000000000817320                OSEventPendMulti
                0x0000000000817930                OSInit
                0x0000000000817988                OSIntEnter
                0x00000000008179d4                OSIntExit
                0x0000000000817acc                OSSchedLock
                0x0000000000817b58                OSSchedUnlock
                0x0000000000817c34                OSStart
                0x0000000000817ca4                OSStatInit
                0x0000000000817d54                OSTimeTick
                0x0000000000817f74                OSVersion
                0x0000000000817f94                OS_Dummy
                0x0000000000817fb4                OS_EventTaskRdy
                0x000000000081814c                OS_EventTaskWait
                0x000000000081825c                OS_EventTaskWaitMulti
                0x00000000008183ac                OS_EventTaskRemove
                0x0000000000818464                OS_EventTaskRemoveMulti
                0x0000000000818564                OS_EventWaitListInit
                0x0000000000818944                OS_MemClr
                0x0000000000818998                OS_MemCopy
                0x0000000000818a00                OS_Sched
                0x0000000000818b44                OS_StrCopy
                0x0000000000818bb8                OS_StrLen
                0x0000000000818c0c                OS_TaskIdle
                0x0000000000818c68                OS_TaskStat
                0x0000000000818d34                OS_TaskStatStkChk
                0x0000000000818e00                OS_TCBInit
 .text          0x00000000008190d4      0x190 ../candy_avb_sss_bsp/\libucosii_bsp.a(os_dbg.o)
                0x00000000008190d4                OSDebugInit
 .text          0x0000000000819264     0x1714 ../candy_avb_sss_bsp/\libucosii_bsp.a(os_flag.o)
                0x0000000000819264                OSFlagAccept
                0x000000000081956c                OSFlagCreate
                0x0000000000819674                OSFlagDel
                0x00000000008198bc                OSFlagNameGet
                0x00000000008199e4                OSFlagNameSet
                0x0000000000819b30                OSFlagPend
                0x000000000081a0e8                OSFlagPendGetFlagsRdy
                0x000000000081a148                OSFlagPost
                0x000000000081a4dc                OSFlagQuery
                0x000000000081a700                OS_FlagInit
                0x000000000081a8d4                OS_FlagUnlink
 .text          0x000000000081a978      0x754 ../candy_avb_sss_bsp/\libucosii_bsp.a(os_mem.o)
                0x000000000081a978                OSMemCreate
                0x000000000081ab4c                OSMemGet
                0x000000000081ac3c                OSMemNameGet
                0x000000000081ad2c                OSMemNameSet
                0x000000000081ae40                OSMemPut
                0x000000000081af18                OSMemQuery
                0x000000000081b000                OS_MemInit
 .text          0x000000000081b0cc     0x1104 ../candy_avb_sss_bsp/\libucosii_bsp.a(os_q.o)
                0x000000000081b0cc                OSQAccept
                0x000000000081b20c                OSQCreate
                0x000000000081b3b8                OSQDel
                0x000000000081b638                OSQFlush
                0x000000000081b6f0                OSQPend
                0x000000000081b97c                OSQPendAbort
                0x000000000081bae8                OSQPost
                0x000000000081bc50                OSQPostFront
                0x000000000081bdc0                OSQPostOpt
                0x000000000081bfcc                OSQQuery
                0x000000000081c128                OS_QInit
 .text          0x000000000081c1d0      0xa60 ../candy_avb_sss_bsp/\libucosii_bsp.a(os_sem.o)
                0x000000000081c1d0                OSSemAccept
                0x000000000081c280                OSSemCreate
                0x000000000081c358                OSSemDel
                0x000000000081c598                OSSemPend
                0x000000000081c7a4                OSSemPendAbort
                0x000000000081c910                OSSemPost
                0x000000000081ca20                OSSemQuery
                0x000000000081cb30                OSSemSet
 .text          0x000000000081cc30     0x176c ../candy_avb_sss_bsp/\libucosii_bsp.a(os_task.o)
                0x000000000081cc30                OSTaskChangePrio
                0x000000000081d120                OSTaskCreate
                0x000000000081d2cc                OSTaskCreateExt
                0x000000000081d4b0                OSTaskDel
                0x000000000081d7f4                OSTaskDelReq
                0x000000000081d944                OSTaskNameGet
                0x000000000081dadc                OSTaskNameSet
                0x000000000081dc90                OSTaskResume
                0x000000000081de64                OSTaskStkChk
                0x000000000081e024                OSTaskSuspend
                0x000000000081e208                OSTaskQuery
                0x000000000081e32c                OS_TaskStkClr
 .text          0x000000000081e39c      0x4e8 ../candy_avb_sss_bsp/\libucosii_bsp.a(os_time.o)
                0x000000000081e39c                OSTimeDly
                0x000000000081e4a0                OSTimeDlyHMSM
                0x000000000081e5f4                OSTimeDlyResume
                0x000000000081e7c8                OSTimeGet
                0x000000000081e824                OSTimeSet
 .text          0x000000000081e884      0x300 ../candy_avb_sss_bsp/\libucosii_bsp.a(alt_sys_init.o)
                0x000000000081e8b8                alt_irq_init
                0x000000000081e8f0                alt_sys_init
 .text          0x000000000081eb84      0x164 ../candy_avb_sss_bsp/\libucosii_bsp.a(altera_avalon_jtag_uart_fd.o)
                0x000000000081eb84                altera_avalon_jtag_uart_read_fd
                0x000000000081ebe4                altera_avalon_jtag_uart_write_fd
                0x000000000081ec44                altera_avalon_jtag_uart_close_fd
                0x000000000081ec94                altera_avalon_jtag_uart_ioctl_fd
 .text          0x000000000081ece8      0x558 ../candy_avb_sss_bsp/\libucosii_bsp.a(altera_avalon_jtag_uart_init.o)
                0x000000000081ece8                altera_avalon_jtag_uart_init
                0x000000000081f1d8                altera_avalon_jtag_uart_close
 .text          0x000000000081f240       0xf0 ../candy_avb_sss_bsp/\libucosii_bsp.a(altera_avalon_jtag_uart_ioctl.o)
                0x000000000081f240                altera_avalon_jtag_uart_ioctl
 .text          0x000000000081f330      0x2bc ../candy_avb_sss_bsp/\libucosii_bsp.a(altera_avalon_jtag_uart_read.o)
                0x000000000081f330                altera_avalon_jtag_uart_read
 .text          0x000000000081f5ec      0x2c4 ../candy_avb_sss_bsp/\libucosii_bsp.a(altera_avalon_jtag_uart_write.o)
                0x000000000081f5ec                altera_avalon_jtag_uart_write
 .text          0x000000000081f8b0       0xf4 ../candy_avb_sss_bsp/\libucosii_bsp.a(altera_avalon_timer_sc.o)
                0x000000000081f928                alt_avalon_timer_sc_init
 .text          0x000000000081f9a4      0x110 ../candy_avb_sss_bsp/\libucosii_bsp.a(altera_avalon_uart_fd.o)
                0x000000000081f9a4                altera_avalon_uart_read_fd
                0x000000000081fa04                altera_avalon_uart_write_fd
                0x000000000081fa64                altera_avalon_uart_close_fd
 .text          0x000000000081fab4      0x52c ../candy_avb_sss_bsp/\libucosii_bsp.a(altera_avalon_uart_init.o)
                0x000000000081fab4                altera_avalon_uart_init
                0x000000000081ff8c                altera_avalon_uart_close
 .text          0x000000000081ffe0      0x2a4 ../candy_avb_sss_bsp/\libucosii_bsp.a(altera_avalon_uart_read.o)
                0x000000000082001c                altera_avalon_uart_read
 .text          0x0000000000820284      0x274 ../candy_avb_sss_bsp/\libucosii_bsp.a(altera_avalon_uart_write.o)
                0x00000000008202c0                altera_avalon_uart_write
 .text          0x00000000008204f8      0x56c ../candy_avb_sss_bsp/\libucosii_bsp.a(altera_modular_adc.o)
                0x00000000008205a0                alt_adc_word_read
                0x000000000082064c                altera_modular_adc_init
                0x00000000008206c0                alt_adc_register_callback
                0x0000000000820758                altera_modular_adc_open
                0x0000000000820798                adc_stop
                0x00000000008207e8                adc_start
                0x0000000000820820                adc_set_mode_run_once
                0x0000000000820860                adc_set_mode_run_continuously
                0x000000000082089c                adc_recalibrate
                0x0000000000820918                adc_interrupt_enable
                0x000000000082095c                adc_interrupt_disable
                0x00000000008209a4                adc_clear_interrupt_status
                0x00000000008209e8                adc_interrupt_asserted
                0x0000000000820a28                adc_wait_for_interrupt
 .text          0x0000000000820a64     0x2120 ../candy_avb_sss_bsp/\libucosii_bsp.a(altera_msgdma.o)
                0x00000000008216fc                alt_msgdma_construct_standard_st_to_mm_descriptor
                0x0000000000821754                alt_msgdma_construct_standard_mm_to_st_descriptor
                0x00000000008217ac                alt_msgdma_construct_standard_mm_to_mm_descriptor
                0x0000000000821804                alt_msgdma_construct_extended_st_to_mm_descriptor
                0x0000000000821894                alt_msgdma_construct_extended_mm_to_st_descriptor
                0x0000000000821924                alt_msgdma_construct_extended_mm_to_mm_descriptor
                0x0000000000821c04                alt_msgdma_construct_prefetcher_standard_mm_to_mm_descriptor
                0x0000000000821c5c                alt_msgdma_construct_prefetcher_standard_st_to_mm_descriptor
                0x0000000000821cb4                alt_msgdma_construct_prefetcher_standard_mm_to_st_descriptor
                0x0000000000821d0c                alt_msgdma_construct_prefetcher_extended_st_to_mm_descriptor
                0x0000000000821dac                alt_msgdma_construct_prefetcher_extended_mm_to_st_descriptor
                0x0000000000821e44                alt_msgdma_construct_prefetcher_extended_mm_to_mm_descriptor
                0x0000000000821efc                alt_msgdma_prefetcher_add_standard_desc_to_list
                0x0000000000821fec                alt_msgdma_prefetcher_add_extended_desc_to_list
                0x0000000000822184                alt_msgdma_prefetcher_set_std_list_own_by_hw_bits
                0x0000000000822290                alt_msgdma_prefetcher_set_extd_list_own_by_hw_bits
                0x00000000008223d4                alt_msgdma_start_prefetcher_with_list_addr
                0x00000000008226e4                alt_msgdma_start_prefetcher_with_std_desc_list
                0x0000000000822790                alt_msgdma_start_prefetcher_with_extd_desc_list
                0x000000000082283c                alt_msgdma_open
                0x0000000000822894                alt_msgdma_init
                0x0000000000822a40                alt_msgdma_register_callback
                0x0000000000822a94                alt_msgdma_standard_descriptor_async_transfer
                0x0000000000822ad0                alt_msgdma_extended_descriptor_async_transfer
                0x0000000000822b0c                alt_msgdma_standard_descriptor_sync_transfer
                0x0000000000822b48                alt_msgdma_extended_descriptor_sync_transfer
 .text          0x0000000000822b84      0xf40 ../candy_avb_sss_bsp/\libucosii_bsp.a(altera_onchip_flash.o)
                0x0000000000822bb8                alt_onchip_flash_read
                0x0000000000822c84                alt_onchip_flash_get_info
                0x0000000000822d20                alt_onchip_flash_erase_block
                0x0000000000822e88                alt_onchip_flash_write_block
                0x0000000000823160                alt_onchip_flash_write
                0x0000000000823438                altera_onchip_flash_init
                0x0000000000823914                alt_onchip_flash_poll_for_status_to_go_idle
                0x00000000008239a4                alt_onchip_flash_poll_for_status_erase_passed
                0x0000000000823a34                alt_onchip_flash_poll_for_status_write_passed
 .text          0x0000000000823ac4     0x1bec ../candy_avb_sss_bsp/\libucosii_bsp.a(ins_tse_mac.o)
                0x0000000000823ac4                altera_eth_tse_init
                0x0000000000823c14                prep_tse_mac
                0x0000000000823e68                msgdma_reset
                0x0000000000823ee4                tse_mac_init
                0x0000000000824afc                tse_msgdma_write_init
                0x0000000000824c1c                tse_mac_raw_send
                0x0000000000824de4                tse_msgdmaRx_isr
                0x0000000000824f98                tse_msgdmaTx_isr
                0x0000000000824ff8                tse_msgdma_read_init
                0x00000000008252d4                allocate_rx_descriptor_chain
                0x0000000000825418                tse_mac_rcv
                0x000000000082556c                tse_mac_stats
                0x00000000008255ac                tse_mac_close
 .text          0x00000000008256b0       0x48 ../candy_avb_sss_bsp/\libucosii_bsp.a(alt_iniche_close.o)
                0x00000000008256b0                close
 .text          0x00000000008256f8      0x148 ../candy_avb_sss_bsp/\libucosii_bsp.a(alt_iniche_dev.o)
                0x00000000008256f8                iniche_devices_init
 .text          0x0000000000825840       0x70 ../candy_avb_sss_bsp/\libucosii_bsp.a(alt_iniche_read.o)
                0x0000000000825840                read
 .text          0x00000000008258b0       0x68 ../candy_avb_sss_bsp/\libucosii_bsp.a(alt_iniche_write.o)
                0x00000000008258b0                write
 .text          0x0000000000825918      0xde4 ../candy_avb_sss_bsp/\libucosii_bsp.a(ipnet.o)
                0x0000000000825918                Netinit
                0x0000000000825f00                fixup_subnet_mask
                0x0000000000826058                netclose
                0x000000000082613c                pktdemux
                0x00000000008264e0                c_older
                0x0000000000826570                ip2mac
 .text          0x00000000008266fc      0x468 ../candy_avb_sss_bsp/\libucosii_bsp.a(ipstart.o)
                0x00000000008266fc                ip_startup
                0x00000000008269a0                exit_hook
                0x0000000000826a10                ip_exit
                0x0000000000826ae0                if_netnumber
 .text          0x0000000000826b64      0xfa0 ../candy_avb_sss_bsp/\libucosii_bsp.a(igmp_cmn.o)
                0x0000000000826b64                igmp_init
                0x0000000000826c08                igmp_input
                0x0000000000826ce8                igmp_fasttimo
                0x0000000000826e60                igmp_send
                0x00000000008270fc                igmp_joingroup
                0x0000000000827350                igmp_leavegroup
                0x00000000008273d0                igmp_validate
                0x00000000008276e8                igmp_print_stats
 .text          0x0000000000827b04      0xa88 ../candy_avb_sss_bsp/\libucosii_bsp.a(bsdsock.o)
                0x0000000000827b04                bsd_accept
                0x0000000000827c28                bsd_getpeername
                0x0000000000827d4c                bsd_getsockname
                0x0000000000827e70                bsd_i_sockoptlen
                0x0000000000827fac                bsd_getsockopt
                0x00000000008280b8                bsd_ioctl
                0x00000000008281ac                bsd_inet_ntoa
                0x00000000008281e0                bsd_recvfrom
                0x0000000000828328                bsd_select
                0x00000000008284ac                bsd_setsockopt
 .text          0x000000000082858c       0xf8 ../candy_avb_sss_bsp/\libucosii_bsp.a(cksum.o)
                0x000000000082858c                ccksum
                0x0000000000828630                cksum
 .text          0x0000000000828684      0xa50 ../candy_avb_sss_bsp/\libucosii_bsp.a(in_utils.o)
                0x0000000000828684                do_trap
                0x00000000008286b0                nextarg
                0x000000000082872c                hexdump
                0x0000000000828870                print_ipad
                0x00000000008288ec                print_uptime
                0x0000000000828a2c                panic
                0x0000000000828a74                print_eth
                0x0000000000828bc8                uslash
                0x0000000000828c44                ns_printf
                0x0000000000828db4                std_out
                0x0000000000828df8                con_page
                0x0000000000828ed0                parse_args
 .text          0x00000000008290d4      0x1a0 ../candy_avb_sss_bsp/\libucosii_bsp.a(netmain.o)
                0x00000000008290d4                netmain
                0x00000000008291b4                tk_netmain
                0x000000000082922c                tk_nettick
 .text          0x0000000000829274      0x5b4 ../candy_avb_sss_bsp/\libucosii_bsp.a(tk_crnos.o)
                0x0000000000829274                TK_OSTimeDly
                0x00000000008292a4                TK_OSTaskResume
                0x0000000000829318                tcp_sleep
                0x000000000082948c                tcp_wakeup
                0x0000000000829584                TK_OSTaskQuery
                0x00000000008295f0                tk_yield
                0x0000000000829620                tk_stats
 .text          0x0000000000829828     0x2c28 ../candy_avb_sss_bsp/\libucosii_bsp.a(dhcpclnt.o)
                0x0000000000829828                dhc_get_srv_ipaddr
                0x00000000008298b0                dhc_init
                0x0000000000829960                dhc_set_callback
                0x00000000008299a8                dhc_upcall
                0x000000000082a158                dhc_buildheader
                0x000000000082a33c                dhc_discover
                0x000000000082a7e4                dhc_rx_offer
                0x000000000082a8c8                dhc_request
                0x000000000082b34c                dhc_setip
                0x000000000082b5c8                dhc_resetip
                0x000000000082b6ac                dhc_decline
                0x000000000082b860                dhc_extract_opts
                0x000000000082bad0                dhc_second
                0x000000000082c020                dhc_halt
                0x000000000082c0a0                dhc_reclaim
                0x000000000082c258                dhc_state_init
                0x000000000082c2b0                dhc_alldone
                0x000000000082c338                dhc_ifacedone
                0x000000000082c3a0                dhc_set_state
 .text          0x000000000082c450       0xc0 ../candy_avb_sss_bsp/\libucosii_bsp.a(dhcputil.o)
                0x000000000082c450                find_opt
 .text          0x000000000082c510      0x774 ../candy_avb_sss_bsp/\libucosii_bsp.a(pktalloc.o)
                0x000000000082c510                pk_init
                0x000000000082c7ac                pk_alloc
                0x000000000082c870                pk_validate
                0x000000000082cafc                pk_free
                0x000000000082cba8                pk_get_max_intrsafe_buf_len
                0x000000000082cbc8                dump_buf_estats
 .text          0x000000000082cc84      0x268 ../candy_avb_sss_bsp/\libucosii_bsp.a(q.o)
                0x000000000082cc84                getq
                0x000000000082cd3c                putq
                0x000000000082cdec                qdel
 .text          0x000000000082ceec      0x2d4 ../candy_avb_sss_bsp/\libucosii_bsp.a(udp_open.o)
                0x000000000082ceec                udp_open
                0x000000000082d0e8                udp_close
 .text          0x000000000082d1c0      0x194 ../candy_avb_sss_bsp/\libucosii_bsp.a(asm_cksum.o)
                0x000000000082d1c0                asm_cksum
 .text          0x000000000082d354      0x27c ../candy_avb_sss_bsp/\libucosii_bsp.a(brdutils.o)
                0x000000000082d354                dtrap
                0x000000000082d388                kbhit
                0x000000000082d41c                getch
                0x000000000082d478                clock_init
                0x000000000082d4b0                clock_c
                0x000000000082d4d0                cticks_hook
                0x000000000082d52c                irq_Mask
                0x000000000082d58c                irq_Unmask
 .text          0x000000000082d5d0      0x4d0 ../candy_avb_sss_bsp/\libucosii_bsp.a(osportco.o)
                0x000000000082d5d0                LOCK_NET_RESOURCE
                0x000000000082d694                UNLOCK_NET_RESOURCE
                0x000000000082d71c                TK_NEWTASK
                0x000000000082d968                wait_app_sem
                0x000000000082da24                post_app_sem
 .text          0x000000000082daa0      0x574 ../candy_avb_sss_bsp/\libucosii_bsp.a(targnios.o)
                0x000000000082daa0                alt_iniche_init
                0x000000000082dc9c                pre_task_setup
                0x000000000082dce8                post_task_setup
                0x000000000082dd08                prep_armintcp
                0x000000000082dd40                npalloc_base
                0x000000000082de4c                npfree_base
                0x000000000082df2c                npalloc
                0x000000000082df60                npfree
                0x000000000082dfa0                ncpalloc
                0x000000000082dfd4                ncpfree
 .text          0x000000000082e014     0x181c ../candy_avb_sss_bsp/\libucosii_bsp.a(nptcp.o)
                0x000000000082e014                pffindtype
                0x000000000082e0a4                pffindproto
                0x000000000082e168                m_getnbuf
                0x000000000082e2f0                m_free
                0x000000000082e3f8                m_freem
                0x000000000082e43c                m_copy
                0x000000000082e730                m_adj
                0x000000000082e8f0                mbuf_len
                0x000000000082e944                dtom
                0x000000000082e9e0                remque
                0x000000000082ea50                insque
                0x000000000082eacc                nptcp_init
                0x000000000082ebc4                tcp_rcv
                0x000000000082ed94                ip_output
                0x000000000082f344                in_broadcast
                0x000000000082f37c                np_stripoptions
                0x000000000082f470                so_icmpdu
                0x000000000082f7b8                tcp_tick
 .text          0x000000000082f830      0x970 ../candy_avb_sss_bsp/\libucosii_bsp.a(rawsock.o)
                0x000000000082f830                rawip_lookup
                0x000000000082f88c                rawip_soinput
                0x000000000082fa54                rawip_usrreq
 .text          0x00000000008301a0     0x1654 ../candy_avb_sss_bsp/\libucosii_bsp.a(sockcall.o)
                0x00000000008301a0                DOMAIN_CHECK
                0x00000000008301f0                t_socket
                0x0000000000830270                t_bind
                0x00000000008303d4                t_listen
                0x00000000008304ac                t_accept
                0x0000000000830700                t_connect
                0x000000000083096c                t_getpeername
                0x00000000008309b0                t_getsockname
                0x0000000000830bd0                t_setsockopt
                0x0000000000830d90                t_getsockopt
                0x0000000000830f1c                t_recv
                0x0000000000830ffc                t_recvfrom
                0x000000000083113c                t_sendto
                0x0000000000831330                t_send
                0x0000000000831534                t_shutdown
                0x000000000083160c                t_socketclose
                0x000000000083175c                t_errno
 .text          0x00000000008317f4     0x2034 ../candy_avb_sss_bsp/\libucosii_bsp.a(socket.o)
                0x00000000008317f4                socreate
                0x000000000083199c                sobind
                0x00000000008319f8                solisten
                0x0000000000831ac8                sofree
                0x0000000000831bd8                soclose
                0x0000000000831e94                soabort
                0x0000000000831ee4                soaccept
                0x0000000000831f7c                soconnect
                0x0000000000832034                sodisconnect
                0x00000000008320cc                sosend
                0x0000000000832624                soreceive
                0x0000000000832d70                soshutdown
                0x0000000000832e08                sorflush
                0x0000000000832f04                sosetopt
                0x0000000000833334                sogetopt
                0x00000000008337dc                sohasoutofband
 .text          0x0000000000833828     0x128c ../candy_avb_sss_bsp/\libucosii_bsp.a(socket2.o)
                0x0000000000833828                soisconnecting
                0x0000000000833898                soisconnected
                0x000000000083399c                soisdisconnecting
                0x0000000000833a34                soisdisconnected
                0x0000000000833af8                sonewconn
                0x0000000000833cf8                soqinsque
                0x0000000000833da4                soqremque
                0x0000000000833eac                socantsendmore
                0x0000000000833f04                socantrcvmore
                0x0000000000833f5c                sbselqueue
                0x0000000000833f98                sbwait
                0x0000000000834004                sbwakeup
                0x0000000000834090                soreserve
                0x0000000000834118                sbreserve
                0x0000000000834168                sbrelease
                0x00000000008341b4                sbappend
                0x0000000000834254                sbappendrecord
                0x000000000083432c                sbappendaddr
                0x0000000000834508                sbcompress
                0x00000000008346e8                sbflush
                0x000000000083476c                sbdrop
                0x0000000000834924                sbdropend
                0x0000000000834a24                sbdroprecord
 .text          0x0000000000834ab4      0x87c ../candy_avb_sss_bsp/\libucosii_bsp.a(soselect.o)
                0x0000000000834ab4                t_select
                0x0000000000834c84                sock_selscan
                0x0000000000834dc4                sock_select
                0x0000000000834fa8                in_pcbnotify
                0x000000000083506c                tcp_notify
                0x00000000008350ec                ifd_clr
                0x00000000008351dc                ifd_set
                0x0000000000835254                ifd_isset
                0x00000000008352cc                ifd_get
 .text          0x0000000000835330     0x2d80 ../candy_avb_sss_bsp/\libucosii_bsp.a(tcp_in.o)
                0x0000000000835330                tcp_reass
                0x0000000000835740                tcp_input
                0x0000000000837a70                tcp_dooptions
                0x0000000000837bf8                tcp_pulloutofband
                0x0000000000837d24                tcp_xmit_timer
                0x0000000000837f70                ip4_tcpmss
                0x0000000000837fb8                tcp_mss
 .text          0x00000000008380b0     0x11cc ../candy_avb_sss_bsp/\libucosii_bsp.a(tcp_out.o)
                0x00000000008380b0                tcp_output
                0x00000000008390b4                tcp_setpersist
 .text          0x000000000083927c      0x93c ../candy_avb_sss_bsp/\libucosii_bsp.a(tcp_subr.o)
                0x000000000083927c                tcp_init
                0x00000000008392d0                tcp_template
                0x00000000008393d8                tcp_respond
                0x00000000008397d8                tcp_newtcpcb
                0x00000000008398e4                tcp_drop
                0x0000000000839990                tcp_close
                0x0000000000839a80                tcp_quench
                0x0000000000839acc                tcp_putseq
                0x0000000000839b44                tcp_getseq
 .text          0x0000000000839bb8      0x750 ../candy_avb_sss_bsp/\libucosii_bsp.a(tcp_timr.o)
                0x0000000000839bb8                tcp_slowtimo
                0x0000000000839e28                tcp_canceltimers
                0x0000000000839e88                tcp_timers
 .text          0x000000000083a308      0x988 ../candy_avb_sss_bsp/\libucosii_bsp.a(tcp_usr.o)
                0x000000000083a308                tcp_usrreq
                0x000000000083a9dc                tcp_attach
                0x000000000083aaf4                tcp_disconnect
                0x000000000083abc0                tcp_usrclosed
 .text          0x000000000083ac90       0x40 ../candy_avb_sss_bsp/\libucosii_bsp.a(tcpport.o)
                0x000000000083ac90                tcpinit
 .text          0x000000000083acd0      0xbb4 ../candy_avb_sss_bsp/\libucosii_bsp.a(udpsock.o)
                0x000000000083acd0                udp_lookup
                0x000000000083ad2c                udp_soinput
                0x000000000083aecc                udp_usrreq
                0x000000000083b108                udp4_sockbind
                0x000000000083b3dc                udp4_socksend
                0x000000000083b75c                udp4_sockaddr
 .text          0x000000000083b884      0x12c ../candy_avb_sss_bsp/\libucosii_bsp.a(alt_alarm_start.o)
                0x000000000083b884                alt_alarm_start
 .text          0x000000000083b9b0      0x158 ../candy_avb_sss_bsp/\libucosii_bsp.a(alt_busy_sleep.o)
                0x000000000083b9b0                alt_busy_sleep
 .text          0x000000000083bb08      0x10c ../candy_avb_sss_bsp/\libucosii_bsp.a(alt_close.o)
                0x000000000083bb44                alt_close
 .text          0x000000000083bc14       0x78 ../candy_avb_sss_bsp/\libucosii_bsp.a(alt_dcache_flush.o)
                0x000000000083bc14                alt_dcache_flush
 .text          0x000000000083bc8c       0x2c ../candy_avb_sss_bsp/\libucosii_bsp.a(alt_dev.o)
 .text          0x000000000083bcb8       0xe0 ../candy_avb_sss_bsp/\libucosii_bsp.a(alt_dev_llist_insert.o)
                0x000000000083bcf4                alt_dev_llist_insert
 .text          0x000000000083bd98       0x60 ../candy_avb_sss_bsp/\libucosii_bsp.a(alt_do_ctors.o)
                0x000000000083bd98                _do_ctors
 .text          0x000000000083bdf8       0x60 ../candy_avb_sss_bsp/\libucosii_bsp.a(alt_do_dtors.o)
                0x000000000083bdf8                _do_dtors
 .text          0x000000000083be58        0x0 ../candy_avb_sss_bsp/\libucosii_bsp.a(alt_errno.o)
 .text          0x000000000083be58       0x90 ../candy_avb_sss_bsp/\libucosii_bsp.a(alt_find_dev.o)
                0x000000000083be58                alt_find_dev
 .text          0x000000000083bee8       0xbc ../candy_avb_sss_bsp/\libucosii_bsp.a(alt_flash_dev.o)
                0x000000000083bee8                alt_flash_open_dev
                0x000000000083bf50                alt_flash_close_dev
 .text          0x000000000083bfa4      0x1b0 ../candy_avb_sss_bsp/\libucosii_bsp.a(alt_iic.o)
                0x000000000083bfa4                alt_ic_isr_register
                0x000000000083bff4                alt_ic_irq_enable
                0x000000000083c07c                alt_ic_irq_disable
                0x000000000083c108                alt_ic_irq_enabled
 .text          0x000000000083c154       0xf0 ../candy_avb_sss_bsp/\libucosii_bsp.a(alt_iic_isr_register.o)
                0x000000000083c154                alt_iic_isr_register
 .text          0x000000000083c244      0x140 ../candy_avb_sss_bsp/\libucosii_bsp.a(alt_io_redirect.o)
                0x000000000083c308                alt_io_redirect
 .text          0x000000000083c384        0x0 ../candy_avb_sss_bsp/\libucosii_bsp.a(alt_irq_entry.o)
 .text          0x000000000083c384        0x0 ../candy_avb_sss_bsp/\libucosii_bsp.a(alt_irq_handler.o)
 .text          0x000000000083c384        0x0 ../candy_avb_sss_bsp/\libucosii_bsp.a(alt_irq_vars.o)
 .text          0x000000000083c384      0x254 ../candy_avb_sss_bsp/\libucosii_bsp.a(alt_open.o)
                0x000000000083c484                open
 .text          0x000000000083c5d8      0x22c ../candy_avb_sss_bsp/\libucosii_bsp.a(alt_printf.o)
                0x000000000083c5d8                alt_printf
 .text          0x000000000083c804       0x3c ../candy_avb_sss_bsp/\libucosii_bsp.a(alt_putchar.o)
                0x000000000083c804                alt_putchar
 .text          0x000000000083c840      0x138 ../candy_avb_sss_bsp/\libucosii_bsp.a(alt_read.o)
                0x000000000083c87c                alt_read
 .text          0x000000000083c978       0x64 ../candy_avb_sss_bsp/\libucosii_bsp.a(alt_release_fd.o)
                0x000000000083c978                alt_release_fd
 .text          0x000000000083c9dc       0x34 ../candy_avb_sss_bsp/\libucosii_bsp.a(alt_remap_cached.o)
                0x000000000083c9dc                alt_remap_cached
 .text          0x000000000083ca10      0x1a4 ../candy_avb_sss_bsp/\libucosii_bsp.a(alt_tick.o)
                0x000000000083ca10                alt_alarm_stop
                0x000000000083caac                alt_tick
 .text          0x000000000083cbb4       0x44 ../candy_avb_sss_bsp/\libucosii_bsp.a(alt_uncached_free.o)
                0x000000000083cbb4                alt_uncached_free
 .text          0x000000000083cbf8       0x78 ../candy_avb_sss_bsp/\libucosii_bsp.a(alt_uncached_malloc.o)
                0x000000000083cbf8                alt_uncached_malloc
 .text          0x000000000083cc70      0x134 ../candy_avb_sss_bsp/\libucosii_bsp.a(alt_write.o)
                0x000000000083ccac                alt_write
 .text          0x000000000083cda4       0x24 ../candy_avb_sss_bsp/\libucosii_bsp.a(altera_nios2_gen2_irq.o)
                0x000000000083cda4                altera_nios2_gen2_irq_init
 .text          0x000000000083cdc8       0xd0 ../candy_avb_sss_bsp/\libucosii_bsp.a(os_cpu_a.o)
                0x000000000083cdc8                OSCtxSw
                0x000000000083cdc8                OSIntCtxSw
                0x000000000083ce54                OSStartHighRdy
                0x000000000083ce74                OSStartTsk
 .text          0x000000000083ce98      0x294 ../candy_avb_sss_bsp/\libucosii_bsp.a(os_cpu_c.o)
                0x000000000083ce98                OSTaskStkInit
                0x000000000083cff4                OSTaskCreateHook
                0x000000000083d018                OSTaskDelHook
                0x000000000083d03c                OSTaskSwHook
                0x000000000083d05c                OSTaskStatHook
                0x000000000083d07c                OSTimeTickHook
                0x000000000083d0a8                OSInitHookBegin
                0x000000000083d0c8                OSInitHookEnd
                0x000000000083d0e8                OSTaskIdleHook
                0x000000000083d108                OSTCBInitHook
 .text          0x000000000083d12c     0x5148 ../candy_avb_sss_bsp/\libucosii_bsp.a(altera_avalon_tse.o)
                0x000000000083d12c                no_printf
                0x000000000083d15c                tse_mac_initTransInfo2
                0x000000000083d1bc                tse_mac_sTxWrite
                0x000000000083d284                tse_mac_aRxRead
                0x000000000083d2f4                tse_mac_aTxWrite
                0x000000000083d364                tse_mac_SwReset
                0x000000000083d3ec                tse_mac_setMIImode
                0x000000000083d440                tse_mac_setGMIImode
                0x000000000083d490                alt_tse_phy_add_profile
                0x000000000083d674                alt_tse_system_add_sys
                0x000000000083e078                alt_tse_sys_enable_mdio_sharing
                0x000000000083e1e0                alt_tse_mac_get_common_speed
                0x000000000083e220                alt_tse_mac_set_common_speed
                0x000000000083e268                alt_tse_get_system_index
                0x000000000083e2d4                alt_tse_get_mac_group_index
                0x000000000083e348                alt_tse_get_mac_info_index
                0x000000000083e3c8                alt_tse_get_mac_info
                0x000000000083e4a0                alt_tse_mac_set_speed
                0x000000000083e580                alt_tse_mac_set_duplex
                0x000000000083e60c                getPHYSpeed
                0x000000000083f088                alt_tse_phy_rd_mdio_addr
                0x000000000083f0d0                alt_tse_phy_wr_mdio_addr
                0x000000000083f128                alt_tse_phy_wr_mdio_reg
                0x000000000083f250                alt_tse_phy_rd_mdio_reg
                0x000000000083f31c                alt_tse_phy_add_profile_default
                0x000000000083f5e8                alt_tse_phy_print_profile
                0x000000000083f7f8                alt_tse_mac_group_init
                0x000000000083fe9c                alt_tse_mac_get_phy
                0x00000000008402b8                alt_tse_mac_associate_phy
                0x0000000000840500                alt_tse_phy_cfg_pcs
                0x0000000000840628                alt_tse_phy_init
                0x0000000000840740                alt_tse_phy_restart_an
                0x0000000000840904                alt_tse_phy_check_link
                0x0000000000840a8c                alt_tse_phy_get_cap
                0x0000000000841018                alt_tse_phy_set_adv_1000
                0x00000000008411dc                alt_tse_phy_set_adv_100
                0x0000000000841430                alt_tse_phy_set_adv_10
                0x00000000008415d8                alt_tse_phy_get_common_speed
                0x00000000008418fc                alt_tse_phy_set_common_speed
                0x0000000000841db0                marvell_phy_cfg
                0x0000000000841e48                marvell_cfg_gmii
                0x0000000000841f2c                marvell_cfg_sgmii
                0x0000000000842010                marvell_cfg_rgmii
                0x0000000000842100                DP83848C_link_status_read
                0x0000000000842178                PEF7071_config
                0x00000000008421d4                PEF7071_link_status_read
 .text          0x0000000000842274      0x3e8 ../candy_avb_sss_bsp/\libucosii_bsp.a(allports.o)
                0x0000000000842274                netmain_init
                0x0000000000842368                icmp_port_du
                0x00000000008423fc                station_state
                0x000000000084255c                sysuptime
                0x0000000000842594                packet_check
                0x00000000008425e4                mcastlist
                0x0000000000842608                prep_modules
 .text          0x000000000084265c      0x414 ../candy_avb_sss_bsp/\libucosii_bsp.a(timeouts.o)
                0x000000000084265c                inet_timer
                0x0000000000842874                in_timerset
                0x00000000008429d4                in_timerkill
 .text          0x0000000000842a70       0xa0 ../candy_avb_sss_bsp/\libucosii_bsp.a(tk_misc.o)
                0x0000000000842a70                create_apptasks
                0x0000000000842a94                task_stats
 .text          0x0000000000842b10       0xa0 ../candy_avb_sss_bsp/\libucosii_bsp.a(alt_iniche_fcntl.o)
                0x0000000000842b10                fcntl
 .text          0x0000000000842bb0     0x13e8 ../candy_avb_sss_bsp/\libucosii_bsp.a(et_arp.o)
                0x0000000000842bb0                etainit
                0x0000000000842bf8                et_send
                0x0000000000842d78                arp_free_pending
                0x0000000000842e00                arp_send_pending
                0x0000000000842e74                send_arp
                0x00000000008432c8                find_oldest_arp
                0x0000000000843434                make_arp_entry
                0x0000000000843530                arpReply
                0x00000000008437f0                arprcv
                0x0000000000843a54                send_via_arp
                0x0000000000843bd4                cb_arpent_tmo
                0x0000000000843ce0                grat_arp
 .text          0x0000000000843f98      0x268 ../candy_avb_sss_bsp/\libucosii_bsp.a(iface.o)
                0x0000000000843f98                if_getbynum
                0x0000000000844008                isbcast
                0x00000000008440dc                reg_type
                0x000000000084416c                if_killsocks
 .text          0x0000000000844200     0x2044 ../candy_avb_sss_bsp/\libucosii_bsp.a(ip.o)
                0x0000000000844200                ip_init
                0x00000000008442e8                ip_bldhead
                0x0000000000844478                ip_write_internal
                0x0000000000844b9c                ip_write
                0x0000000000844dbc                ip_write2
                0x0000000000845140                ip_raw_write
                0x0000000000845208                ip_fragment_lc
                0x0000000000845628                ip_fragment
                0x0000000000845bec                ip_mymach
                0x0000000000845c90                ip_dump
                0x0000000000845f38                iproute
                0x0000000000846110                ip_copypkt
 .text          0x0000000000846244     0x1c28 ../candy_avb_sss_bsp/\libucosii_bsp.a(ip_reasm.o)
                0x0000000000846244                ip_reasm_match_frag_with_ire
                0x0000000000846308                ip_reasm_determine_type_of_frag
                0x00000000008463d8                ip_reasm_check_mem_useage
                0x000000000084646c                ip_reasm_incr_mem_useage
                0x000000000084650c                ip_reasm_decr_mem_useage
                0x00000000008465a4                ip_reasm_process_first_fragment
                0x000000000084685c                ip_reassm
                0x00000000008468e4                ip_reasm_compute_overlap
                0x0000000000846e48                ip_reasm_process_subsequent_fragments
                0x0000000000847378                ip_reasm_find_ire
                0x00000000008473d0                ip_reasm_copy_queued_fragments_into_reassy_buffer
                0x000000000084771c                ip_reasm_process_timer_tick
                0x00000000008477f4                ip_reasm_delete_ire
                0x00000000008479a8                ip_reasm_mark_compact_rfq
                0x0000000000847ad8                ipr_stats
                0x0000000000847e1c                ip_reasm_send_icmp_timex
 .text          0x0000000000847e6c      0xd20 ../candy_avb_sss_bsp/\libucosii_bsp.a(ipdemux.o)
                0x0000000000847e6c                ip_rcv
                0x00000000008481ec                ip_rcv_phase2
                0x00000000008487b8                ip_demux
 .text          0x0000000000848b8c      0x2bc ../candy_avb_sss_bsp/\libucosii_bsp.a(ipmc.o)
                0x0000000000848b8c                in_addmulti
                0x0000000000848cd8                in_delmulti
                0x0000000000848de4                lookup_mcast
 .text          0x0000000000848e48       0xd4 ../candy_avb_sss_bsp/\libucosii_bsp.a(ipport.o)
                0x0000000000848e48                prep_ifaces
                0x0000000000848ec8                netexit
                0x0000000000848ef0                evtmap_setup
 .text          0x0000000000848f1c      0x4fc ../candy_avb_sss_bsp/\libucosii_bsp.a(ipraw.o)
                0x0000000000848f1c                ip_raw_open
                0x0000000000848ff4                ip_raw_close
                0x00000000008490b0                ip_raw_input
                0x00000000008492d4                ip_raw_alloc
                0x000000000084938c                ip_raw_free
                0x00000000008493d0                ip_raw_maxalloc
 .text          0x0000000000849418      0x628 ../candy_avb_sss_bsp/\libucosii_bsp.a(iproute.o)
                0x0000000000849418                rt_lookup
                0x000000000084956c                add_route
                0x000000000084992c                del_route
 .text          0x0000000000849a40      0xd08 ../candy_avb_sss_bsp/\libucosii_bsp.a(udp.o)
                0x0000000000849a40                udpdemux
                0x000000000084a1e8                udp_send
                0x000000000084a480                udpswap
                0x000000000084a574                udp_socket
                0x000000000084a624                udp_alloc
                0x000000000084a6e0                udp_maxalloc
                0x000000000084a704                udp_free
 .text          0x000000000084a748      0x2a4 ../candy_avb_sss_bsp/\libucosii_bsp.a(igmp.o)
                0x000000000084a748                igmpv1_input
 .text          0x000000000084a9ec      0x6c8 ../candy_avb_sss_bsp/\libucosii_bsp.a(igmp2.o)
                0x000000000084a9ec                igmpv2_input
                0x000000000084ab10                igmpv2_process_report
                0x000000000084ac44                igmpv2_process_query
                0x000000000084ae30                igmpv2_chk_set_timer
                0x000000000084af74                igmpv2_chk4_rtr_alert_opt
 .text          0x000000000084b0b4      0x88c ../candy_avb_sss_bsp/\libucosii_bsp.a(ipopt.o)
                0x000000000084b0b4                IPADDR_TO_NETP
                0x000000000084b1e8                ip_setmoptions
                0x000000000084b7b0                ip_getmoptions
                0x000000000084b8b8                ip_freemoptions
 .text          0x000000000084b940      0x6e8 ../candy_avb_sss_bsp/\libucosii_bsp.a(u_mctest.o)
                0x000000000084b940                u_mctest_init
                0x000000000084b974                u_mctest_run
 .text          0x000000000084c028      0x37c ../candy_avb_sss_bsp/\libucosii_bsp.a(dhcsetup.o)
                0x000000000084c028                dhc_setup
                0x000000000084c290                dhc_main_ipset
 .text          0x000000000084c3a4      0x3b4 ../candy_avb_sss_bsp/\libucosii_bsp.a(memdev.o)
                0x000000000084c3a4                init_memdev
                0x000000000084c3fc                md_fopen
                0x000000000084c424                md_fclose
                0x000000000084c448                md_fread
                0x000000000084c5a4                md_fwrite
                0x000000000084c61c                md_fseek
                0x000000000084c648                md_ftell
                0x000000000084c66c                md_fgetc
                0x000000000084c734                md_unlink
 .text          0x000000000084c758      0x780 ../candy_avb_sss_bsp/\libucosii_bsp.a(parseip.o)
                0x000000000084c758                parse_ipad
                0x000000000084ca54                inet_addr
                0x000000000084cab4                hextoa
                0x000000000084cb00                inet_pton
                0x000000000084cb94                inet_ntop
                0x000000000084cc18                print46_addr
                0x000000000084cc74                inet46_addr
                0x000000000084cd38                inet_setport
                0x000000000084cda4                convert_ip
 .text          0x000000000084ced8      0x1a0 ../candy_avb_sss_bsp/\libucosii_bsp.a(tcpcksum.o)
                0x000000000084ced8                tcp_cksum
 .text          0x000000000084d078      0x888 ../candy_avb_sss_bsp/\libucosii_bsp.a(in_pcb.o)
                0x000000000084d078                in_pcballoc
                0x000000000084d100                in_pcbdetach
                0x000000000084d158                in_pcbbind
                0x000000000084d368                in_pcbconnect
                0x000000000084d548                in_pcbdisconnect
                0x000000000084d5a4                in_setsockaddr
                0x000000000084d628                in_setpeeraddr
                0x000000000084d6ac                in_pcblookup
 .text          0x000000000084d900     0x18e4 ../candy_avb_sss_bsp/\libucosii_bsp.a(vfsfiles.o)
                0x000000000084d900                set_vfopen_error
                0x000000000084d92c                get_vfopen_error
                0x000000000084d94c                vf_alloc_and_link_vop
                0x000000000084d9bc                vf_alloc_buffer
                0x000000000084da84                vf_free_buffer
                0x000000000084dad4                vfopen_locked
                0x000000000084de0c                vfopen
                0x000000000084de5c                vfclose_locked
                0x000000000084e018                vfclose
                0x000000000084e05c                vfflush
                0x000000000084e0a4                vfgets
                0x000000000084e174                vfeof
                0x000000000084e1c4                vunlink_flag_open_files
                0x000000000084e220                vunlink
                0x000000000084e420                vfread
                0x000000000084e5ac                vfwrite_locked
                0x000000000084e95c                vfwrite
                0x000000000084e9bc                vfseek
                0x000000000084eb08                vftell
                0x000000000084ec18                vgetc_locked
                0x000000000084ed10                vgetc
                0x000000000084ed58                vfslookup_locked
                0x000000000084ee7c                vfslookup
                0x000000000084eec4                strippath
                0x000000000084f090                isvfile_locked
                0x000000000084f0e8                isvfile
                0x000000000084f130                vferror
                0x000000000084f18c                vclearerr
 .text          0x000000000084f1e4       0x24 ../candy_avb_sss_bsp/\libucosii_bsp.a(vfsport.o)
                0x000000000084f1e4                prep_vfs
 .text          0x000000000084f208        0x0 ../candy_avb_sss_bsp/\libucosii_bsp.a(alt_exception_entry.o)
 .text          0x000000000084f208      0x15c ../candy_avb_sss_bsp/\libucosii_bsp.a(alt_fcntl.o)
                0x000000000084f244                alt_fcntl
 .text          0x000000000084f364      0x108 ../candy_avb_sss_bsp/\libucosii_bsp.a(alt_find_file.o)
                0x000000000084f364                alt_find_file
 .text          0x000000000084f46c       0xdc ../candy_avb_sss_bsp/\libucosii_bsp.a(alt_get_fd.o)
                0x000000000084f46c                alt_get_fd
 .text          0x000000000084f548       0x9c ../candy_avb_sss_bsp/\libucosii_bsp.a(alt_instruction_exception_entry.o)
                0x000000000084f548                alt_exception_cause_generated_bad_addr
 .text          0x000000000084f5e4     0x11cc ../candy_avb_sss_bsp/\libucosii_bsp.a(icmp.o)
                0x000000000084f5e4                icmprcv
                0x0000000000850148                icmp_destun
                0x0000000000850448                icmp_timex
                0x000000000085075c                icmp_du
 .text          0x00000000008507b0        0x0 c:/intelfpga_lite/18.1/nios2eds/bin/gnu/h-x86_64-mingw32/bin/../lib/gcc/nios2-elf/5.3.0/../../../../../H-x86_64-mingw32/nios2-elf/lib\libc.a(lib_a-atexit.o)
 .text.atexit   0x00000000008507b0       0x14 c:/intelfpga_lite/18.1/nios2eds/bin/gnu/h-x86_64-mingw32/bin/../lib/gcc/nios2-elf/5.3.0/../../../../../H-x86_64-mingw32/nios2-elf/lib\libc.a(lib_a-atexit.o)
                0x00000000008507b0                atexit
 .text          0x00000000008507c4        0x0 c:/intelfpga_lite/18.1/nios2eds/bin/gnu/h-x86_64-mingw32/bin/../lib/gcc/nios2-elf/5.3.0/../../../../../H-x86_64-mingw32/nios2-elf/lib\libc.a(lib_a-atoi.o)
 .text.atoi     0x00000000008507c4        0xc c:/intelfpga_lite/18.1/nios2eds/bin/gnu/h-x86_64-mingw32/bin/../lib/gcc/nios2-elf/5.3.0/../../../../../H-x86_64-mingw32/nios2-elf/lib\libc.a(lib_a-atoi.o)
                0x00000000008507c4                atoi
 .text._atoi_r  0x00000000008507d0        0xc c:/intelfpga_lite/18.1/nios2eds/bin/gnu/h-x86_64-mingw32/bin/../lib/gcc/nios2-elf/5.3.0/../../../../../H-x86_64-mingw32/nios2-elf/lib\libc.a(lib_a-atoi.o)
                0x00000000008507d0                _atoi_r
 .text          0x00000000008507dc        0x0 c:/intelfpga_lite/18.1/nios2eds/bin/gnu/h-x86_64-mingw32/bin/../lib/gcc/nios2-elf/5.3.0/../../../../../H-x86_64-mingw32/nios2-elf/lib\libc.a(lib_a-exit.o)
 .text.exit     0x00000000008507dc       0x38 c:/intelfpga_lite/18.1/nios2eds/bin/gnu/h-x86_64-mingw32/bin/../lib/gcc/nios2-elf/5.3.0/../../../../../H-x86_64-mingw32/nios2-elf/lib\libc.a(lib_a-exit.o)
                0x00000000008507dc                exit
 .text          0x0000000000850814        0x0 c:/intelfpga_lite/18.1/nios2eds/bin/gnu/h-x86_64-mingw32/bin/../lib/gcc/nios2-elf/5.3.0/../../../../../H-x86_64-mingw32/nios2-elf/lib\libc.a(lib_a-getc.o)
 .text._getc_r  0x0000000000850814       0x70 c:/intelfpga_lite/18.1/nios2eds/bin/gnu/h-x86_64-mingw32/bin/../lib/gcc/nios2-elf/5.3.0/../../../../../H-x86_64-mingw32/nios2-elf/lib\libc.a(lib_a-getc.o)
                0x0000000000850814                _getc_r
 .text.getc     0x0000000000850884       0x88 c:/intelfpga_lite/18.1/nios2eds/bin/gnu/h-x86_64-mingw32/bin/../lib/gcc/nios2-elf/5.3.0/../../../../../H-x86_64-mingw32/nios2-elf/lib\libc.a(lib_a-getc.o)
                0x0000000000850884                getc
 .text          0x000000000085090c        0x0 c:/intelfpga_lite/18.1/nios2eds/bin/gnu/h-x86_64-mingw32/bin/../lib/gcc/nios2-elf/5.3.0/../../../../../H-x86_64-mingw32/nios2-elf/lib\libc.a(lib_a-malign.o)
 .text.memalign
                0x000000000085090c       0x18 c:/intelfpga_lite/18.1/nios2eds/bin/gnu/h-x86_64-mingw32/bin/../lib/gcc/nios2-elf/5.3.0/../../../../../H-x86_64-mingw32/nios2-elf/lib\libc.a(lib_a-malign.o)
                0x000000000085090c                memalign
 .text          0x0000000000850924        0x0 c:/intelfpga_lite/18.1/nios2eds/bin/gnu/h-x86_64-mingw32/bin/../lib/gcc/nios2-elf/5.3.0/../../../../../H-x86_64-mingw32/nios2-elf/lib\libc.a(lib_a-malignr.o)
 .text._memalign_r
                0x0000000000850924      0x198 c:/intelfpga_lite/18.1/nios2eds/bin/gnu/h-x86_64-mingw32/bin/../lib/gcc/nios2-elf/5.3.0/../../../../../H-x86_64-mingw32/nios2-elf/lib\libc.a(lib_a-malignr.o)
                0x0000000000850924                _memalign_r
 .text          0x0000000000850abc        0x0 c:/intelfpga_lite/18.1/nios2eds/bin/gnu/h-x86_64-mingw32/bin/../lib/gcc/nios2-elf/5.3.0/../../../../../H-x86_64-mingw32/nios2-elf/lib\libc.a(lib_a-memcmp.o)
 .text.memcmp   0x0000000000850abc       0x7c c:/intelfpga_lite/18.1/nios2eds/bin/gnu/h-x86_64-mingw32/bin/../lib/gcc/nios2-elf/5.3.0/../../../../../H-x86_64-mingw32/nios2-elf/lib\libc.a(lib_a-memcmp.o)
                0x0000000000850abc                memcmp
 .text          0x0000000000850b38        0x0 c:/intelfpga_lite/18.1/nios2eds/bin/gnu/h-x86_64-mingw32/bin/../lib/gcc/nios2-elf/5.3.0/../../../../../H-x86_64-mingw32/nios2-elf/lib\libc.a(lib_a-putchar.o)
 .text._putchar_r
                0x0000000000850b38        0x8 c:/intelfpga_lite/18.1/nios2eds/bin/gnu/h-x86_64-mingw32/bin/../lib/gcc/nios2-elf/5.3.0/../../../../../H-x86_64-mingw32/nios2-elf/lib\libc.a(lib_a-putchar.o)
                0x0000000000850b38                _putchar_r
 .text.putchar  0x0000000000850b40       0x18 c:/intelfpga_lite/18.1/nios2eds/bin/gnu/h-x86_64-mingw32/bin/../lib/gcc/nios2-elf/5.3.0/../../../../../H-x86_64-mingw32/nios2-elf/lib\libc.a(lib_a-putchar.o)
                0x0000000000850b40                putchar
 .text          0x0000000000850b58        0x0 c:/intelfpga_lite/18.1/nios2eds/bin/gnu/h-x86_64-mingw32/bin/../lib/gcc/nios2-elf/5.3.0/../../../../../H-x86_64-mingw32/nios2-elf/lib\libc.a(lib_a-rget.o)
 .text.__srget_r
                0x0000000000850b58       0x74 c:/intelfpga_lite/18.1/nios2eds/bin/gnu/h-x86_64-mingw32/bin/../lib/gcc/nios2-elf/5.3.0/../../../../../H-x86_64-mingw32/nios2-elf/lib\libc.a(lib_a-rget.o)
                0x0000000000850b58                __srget_r
 .text.__srget  0x0000000000850bcc       0x14 c:/intelfpga_lite/18.1/nios2eds/bin/gnu/h-x86_64-mingw32/bin/../lib/gcc/nios2-elf/5.3.0/../../../../../H-x86_64-mingw32/nios2-elf/lib\libc.a(lib_a-rget.o)
                0x0000000000850bcc                __srget
 .text          0x0000000000850be0        0x0 c:/intelfpga_lite/18.1/nios2eds/bin/gnu/h-x86_64-mingw32/bin/../lib/gcc/nios2-elf/5.3.0/../../../../../H-x86_64-mingw32/nios2-elf/lib\libc.a(lib_a-strcpy.o)
 .text.strcpy   0x0000000000850be0       0x90 c:/intelfpga_lite/18.1/nios2eds/bin/gnu/h-x86_64-mingw32/bin/../lib/gcc/nios2-elf/5.3.0/../../../../../H-x86_64-mingw32/nios2-elf/lib\libc.a(lib_a-strcpy.o)
                0x0000000000850be0                strcpy
 .text          0x0000000000850c70        0x0 c:/intelfpga_lite/18.1/nios2eds/bin/gnu/h-x86_64-mingw32/bin/../lib/gcc/nios2-elf/5.3.0/../../../../../H-x86_64-mingw32/nios2-elf/lib\libc.a(lib_a-strncmp.o)
 .text.strncmp  0x0000000000850c70       0xd0 c:/intelfpga_lite/18.1/nios2eds/bin/gnu/h-x86_64-mingw32/bin/../lib/gcc/nios2-elf/5.3.0/../../../../../H-x86_64-mingw32/nios2-elf/lib\libc.a(lib_a-strncmp.o)
                0x0000000000850c70                strncmp
 .text          0x0000000000850d40        0x0 c:/intelfpga_lite/18.1/nios2eds/bin/gnu/h-x86_64-mingw32/bin/../lib/gcc/nios2-elf/5.3.0/../../../../../H-x86_64-mingw32/nios2-elf/lib\libc.a(lib_a-strncpy.o)
 .text.strncpy  0x0000000000850d40       0xec c:/intelfpga_lite/18.1/nios2eds/bin/gnu/h-x86_64-mingw32/bin/../lib/gcc/nios2-elf/5.3.0/../../../../../H-x86_64-mingw32/nios2-elf/lib\libc.a(lib_a-strncpy.o)
                0x0000000000850d40                strncpy
 .text          0x0000000000850e2c        0x0 c:/intelfpga_lite/18.1/nios2eds/bin/gnu/h-x86_64-mingw32/bin/../lib/gcc/nios2-elf/5.3.0/../../../../../H-x86_64-mingw32/nios2-elf/lib\libc.a(lib_a-strtol.o)
 .text._strtol_r
                0x0000000000850e2c      0x238 c:/intelfpga_lite/18.1/nios2eds/bin/gnu/h-x86_64-mingw32/bin/../lib/gcc/nios2-elf/5.3.0/../../../../../H-x86_64-mingw32/nios2-elf/lib\libc.a(lib_a-strtol.o)
                0x0000000000850e2c                _strtol_r
 .text.strtol   0x0000000000851064       0x1c c:/intelfpga_lite/18.1/nios2eds/bin/gnu/h-x86_64-mingw32/bin/../lib/gcc/nios2-elf/5.3.0/../../../../../H-x86_64-mingw32/nios2-elf/lib\libc.a(lib_a-strtol.o)
                0x0000000000851064                strtol
 .text          0x0000000000851080        0x0 c:/intelfpga_lite/18.1/nios2eds/bin/gnu/h-x86_64-mingw32/bin/../lib/gcc/nios2-elf/5.3.0/../../../../../H-x86_64-mingw32/nios2-elf/lib\libc.a(lib_a-vprintf.o)
 .text.vprintf  0x0000000000851080       0x1c c:/intelfpga_lite/18.1/nios2eds/bin/gnu/h-x86_64-mingw32/bin/../lib/gcc/nios2-elf/5.3.0/../../../../../H-x86_64-mingw32/nios2-elf/lib\libc.a(lib_a-vprintf.o)
                0x0000000000851080                vprintf
 .text._vprintf_r
                0x000000000085109c       0x10 c:/intelfpga_lite/18.1/nios2eds/bin/gnu/h-x86_64-mingw32/bin/../lib/gcc/nios2-elf/5.3.0/../../../../../H-x86_64-mingw32/nios2-elf/lib\libc.a(lib_a-vprintf.o)
                0x000000000085109c                _vprintf_r
 .text          0x00000000008510ac        0x0 c:/intelfpga_lite/18.1/nios2eds/bin/gnu/h-x86_64-mingw32/bin/../lib/gcc/nios2-elf/5.3.0/../../../../../H-x86_64-mingw32/nios2-elf/lib\libc.a(lib_a-vsprintf.o)
 .text._vsprintf_r
                0x00000000008510ac       0x50 c:/intelfpga_lite/18.1/nios2eds/bin/gnu/h-x86_64-mingw32/bin/../lib/gcc/nios2-elf/5.3.0/../../../../../H-x86_64-mingw32/nios2-elf/lib\libc.a(lib_a-vsprintf.o)
                0x00000000008510ac                _vsprintf_r
 .text.vsprintf
                0x00000000008510fc       0x1c c:/intelfpga_lite/18.1/nios2eds/bin/gnu/h-x86_64-mingw32/bin/../lib/gcc/nios2-elf/5.3.0/../../../../../H-x86_64-mingw32/nios2-elf/lib\libc.a(lib_a-vsprintf.o)
                0x00000000008510fc                vsprintf
 .text          0x0000000000851118        0x0 c:/intelfpga_lite/18.1/nios2eds/bin/gnu/h-x86_64-mingw32/bin/../lib/gcc/nios2-elf/5.3.0/../../../../../H-x86_64-mingw32/nios2-elf/lib\libc.a(lib_a-__atexit.o)
 .text.__register_exitproc
                0x0000000000851118      0x118 c:/intelfpga_lite/18.1/nios2eds/bin/gnu/h-x86_64-mingw32/bin/../lib/gcc/nios2-elf/5.3.0/../../../../../H-x86_64-mingw32/nios2-elf/lib\libc.a(lib_a-__atexit.o)
                0x0000000000851118                __register_exitproc
 .text          0x0000000000851230        0x0 c:/intelfpga_lite/18.1/nios2eds/bin/gnu/h-x86_64-mingw32/bin/../lib/gcc/nios2-elf/5.3.0/../../../../../H-x86_64-mingw32/nios2-elf/lib\libc.a(lib_a-__call_atexit.o)
 .text.__call_exitprocs
                0x0000000000851230      0x180 c:/intelfpga_lite/18.1/nios2eds/bin/gnu/h-x86_64-mingw32/bin/../lib/gcc/nios2-elf/5.3.0/../../../../../H-x86_64-mingw32/nios2-elf/lib\libc.a(lib_a-__call_atexit.o)
                0x0000000000851230                __call_exitprocs
 .text          0x00000000008513b0        0x0 c:/intelfpga_lite/18.1/nios2eds/bin/gnu/h-x86_64-mingw32/bin/../lib/gcc/nios2-elf/5.3.0/../../../../../H-x86_64-mingw32/nios2-elf/lib\libc.a(lib_a-ctype_.o)
 .text          0x00000000008513b0        0x0 c:/intelfpga_lite/18.1/nios2eds/bin/gnu/h-x86_64-mingw32/bin/../lib/gcc/nios2-elf/5.3.0/../../../../../H-x86_64-mingw32/nios2-elf/lib\libc.a(lib_a-refill.o)
 .text.lflush   0x00000000008513b0       0x1c c:/intelfpga_lite/18.1/nios2eds/bin/gnu/h-x86_64-mingw32/bin/../lib/gcc/nios2-elf/5.3.0/../../../../../H-x86_64-mingw32/nios2-elf/lib\libc.a(lib_a-refill.o)
 .text.__srefill_r
                0x00000000008513cc      0x1d4 c:/intelfpga_lite/18.1/nios2eds/bin/gnu/h-x86_64-mingw32/bin/../lib/gcc/nios2-elf/5.3.0/../../../../../H-x86_64-mingw32/nios2-elf/lib\libc.a(lib_a-refill.o)
                0x00000000008513cc                __srefill_r
 .text          0x00000000008515a0        0x0 c:/intelfpga_lite/18.1/nios2eds/bin/gnu/h-x86_64-mingw32/bin/../lib/gcc/nios2-elf/5.3.0/../../../../../H-x86_64-mingw32/nios2-elf/lib\libc.a(lib_a-vfprintfr_1.o)
 .text._vfprintf_r
                0x00000000008515a0       0x18 c:/intelfpga_lite/18.1/nios2eds/bin/gnu/h-x86_64-mingw32/bin/../lib/gcc/nios2-elf/5.3.0/../../../../../H-x86_64-mingw32/nios2-elf/lib\libc.a(lib_a-vfprintfr_1.o)
                0x00000000008515a0                _vfprintf_r
 .text          0x00000000008515b8       0x34 ../candy_avb_sss_bsp/\libucosii_bsp.a(alt_exit.o)
                0x00000000008515b8                _exit
 *(.gnu.warning.*)
 *(.fini)
                [!provide]                        PROVIDE (__etext, ABSOLUTE (.))
                [!provide]                        PROVIDE (_etext, ABSOLUTE (.))
                [!provide]                        PROVIDE (etext, ABSOLUTE (.))
 *(.eh_frame_hdr)
                0x00000000008515ec                . = ALIGN (0x4)
                [!provide]                        PROVIDE (__preinit_array_start, ABSOLUTE (.))
 *(.preinit_array)
                [!provide]                        PROVIDE (__preinit_array_end, ABSOLUTE (.))
                [!provide]                        PROVIDE (__init_array_start, ABSOLUTE (.))
 *(.init_array)
                [!provide]                        PROVIDE (__init_array_end, ABSOLUTE (.))
                [!provide]                        PROVIDE (__fini_array_start, ABSOLUTE (.))
 *(.fini_array)
                [!provide]                        PROVIDE (__fini_array_end, ABSOLUTE (.))
 *(.eh_frame)
 *(.gcc_except_table .gcc_except_table.*)
 *(.dynamic)
                0x00000000008515ec                PROVIDE (__CTOR_LIST__, ABSOLUTE (.))
 *(.ctors)
 *(SORT(.ctors.*))
                0x00000000008515ec                PROVIDE (__CTOR_END__, ABSOLUTE (.))
                0x00000000008515ec                PROVIDE (__DTOR_LIST__, ABSOLUTE (.))
 *(.dtors)
 *(SORT(.dtors.*))
                0x00000000008515ec                PROVIDE (__DTOR_END__, ABSOLUTE (.))
 *(.jcr)
                0x00000000008515ec                . = ALIGN (0x4)

.rodata         0x00000000008515ec     0x5e24
                [!provide]                        PROVIDE (__ram_rodata_start, ABSOLUTE (.))
                0x00000000008515ec                . = ALIGN (0x4)
 *(.rodata .rodata.* .gnu.linkonce.r.*)
 .rodata        0x00000000008515ec       0x88 obj/default/SigmaStudioFW.o
 .rodata        0x0000000000851674      0xba2 obj/default/alt_error_handler.o
 *fill*         0x0000000000852216        0x2 
 .rodata        0x0000000000852218       0x3a obj/default/iniche_init.o
 *fill*         0x0000000000852252        0x2 
 .rodata        0x0000000000852254       0x1a obj/default/osc.o
 *fill*         0x000000000085226e        0x2 
 .rodata        0x0000000000852270       0xdc obj/default/osc_server.o
 .rodata        0x000000000085234c       0x4b obj/default/sigmadsp.o
 *fill*         0x0000000000852397        0x1 
 .rodata        0x0000000000852398       0x27 obj/default/tse_my_system.o
 .rodata        0x00000000008523bf      0x100 c:/intelfpga_lite/18.1/nios2eds/bin/gnu/h-x86_64-mingw32/bin/../lib/gcc/nios2-elf/5.3.0\libgcc.a(_clz.o)
                0x00000000008523bf                __clz_tab
 *fill*         0x00000000008524bf        0x1 
 .rodata.str1.4
                0x00000000008524c0        0x2 c:/intelfpga_lite/18.1/nios2eds/bin/gnu/h-x86_64-mingw32/bin/../lib/gcc/nios2-elf/5.3.0/../../../../../H-x86_64-mingw32/nios2-elf/lib\libc.a(lib_a-impure.o)
 *fill*         0x00000000008524c2        0x2 
 .rodata.str1.4
                0x00000000008524c4        0x3 c:/intelfpga_lite/18.1/nios2eds/bin/gnu/h-x86_64-mingw32/bin/../lib/gcc/nios2-elf/5.3.0/../../../../../H-x86_64-mingw32/nios2-elf/lib\libc.a(lib_a-perror.o)
 *fill*         0x00000000008524c7        0x1 
 .rodata.str1.4
                0x00000000008524c8        0x2 c:/intelfpga_lite/18.1/nios2eds/bin/gnu/h-x86_64-mingw32/bin/../lib/gcc/nios2-elf/5.3.0/../../../../../H-x86_64-mingw32/nios2-elf/lib\libc.a(lib_a-puts.o)
 *fill*         0x00000000008524ca        0x2 
 .rodata.str1.4
                0x00000000008524cc      0x6fd c:/intelfpga_lite/18.1/nios2eds/bin/gnu/h-x86_64-mingw32/bin/../lib/gcc/nios2-elf/5.3.0/../../../../../H-x86_64-mingw32/nios2-elf/lib\libc.a(lib_a-strerror.o)
                                        0x701 (size before relaxing)
 *fill*         0x0000000000852bc9        0x3 
 .rodata.str1.4
                0x0000000000852bcc       0x42 c:/intelfpga_lite/18.1/nios2eds/bin/gnu/h-x86_64-mingw32/bin/../lib/gcc/nios2-elf/5.3.0/../../../../../H-x86_64-mingw32/nios2-elf/lib\libc.a(lib_a-svfprintf.o)
 .rodata.zeroes.4389
                0x0000000000852c0e       0x10 c:/intelfpga_lite/18.1/nios2eds/bin/gnu/h-x86_64-mingw32/bin/../lib/gcc/nios2-elf/5.3.0/../../../../../H-x86_64-mingw32/nios2-elf/lib\libc.a(lib_a-svfprintf.o)
 .rodata.blanks.4388
                0x0000000000852c1e       0x10 c:/intelfpga_lite/18.1/nios2eds/bin/gnu/h-x86_64-mingw32/bin/../lib/gcc/nios2-elf/5.3.0/../../../../../H-x86_64-mingw32/nios2-elf/lib\libc.a(lib_a-svfprintf.o)
 .rodata.str1.4
                0x0000000000852c2e       0x42 c:/intelfpga_lite/18.1/nios2eds/bin/gnu/h-x86_64-mingw32/bin/../lib/gcc/nios2-elf/5.3.0/../../../../../H-x86_64-mingw32/nios2-elf/lib\libc.a(lib_a-vfprintf.o)
 .rodata.zeroes.4404
                0x0000000000852c2e       0x10 c:/intelfpga_lite/18.1/nios2eds/bin/gnu/h-x86_64-mingw32/bin/../lib/gcc/nios2-elf/5.3.0/../../../../../H-x86_64-mingw32/nios2-elf/lib\libc.a(lib_a-vfprintf.o)
 .rodata.blanks.4403
                0x0000000000852c3e       0x10 c:/intelfpga_lite/18.1/nios2eds/bin/gnu/h-x86_64-mingw32/bin/../lib/gcc/nios2-elf/5.3.0/../../../../../H-x86_64-mingw32/nios2-elf/lib\libc.a(lib_a-vfprintf.o)
 *fill*         0x0000000000852c4e        0x2 
 .rodata.str1.4
                0x0000000000852c50       0x10 c:/intelfpga_lite/18.1/nios2eds/bin/gnu/h-x86_64-mingw32/bin/../lib/gcc/nios2-elf/5.3.0/../../../../../H-x86_64-mingw32/nios2-elf/lib\libc.a(lib_a-dtoa.o)
                                         0x12 (size before relaxing)
 .rodata.str1.4
                0x0000000000852c60        0xc c:/intelfpga_lite/18.1/nios2eds/bin/gnu/h-x86_64-mingw32/bin/../lib/gcc/nios2-elf/5.3.0/../../../../../H-x86_64-mingw32/nios2-elf/lib\libc.a(lib_a-locale.o)
                                         0x12 (size before relaxing)
 .rodata.p05.2768
                0x0000000000852c6c        0xc c:/intelfpga_lite/18.1/nios2eds/bin/gnu/h-x86_64-mingw32/bin/../lib/gcc/nios2-elf/5.3.0/../../../../../H-x86_64-mingw32/nios2-elf/lib\libc.a(lib_a-mprec.o)
 .rodata.__mprec_tinytens
                0x0000000000852c78       0x28 c:/intelfpga_lite/18.1/nios2eds/bin/gnu/h-x86_64-mingw32/bin/../lib/gcc/nios2-elf/5.3.0/../../../../../H-x86_64-mingw32/nios2-elf/lib\libc.a(lib_a-mprec.o)
                0x0000000000852c78                __mprec_tinytens
 .rodata.__mprec_bigtens
                0x0000000000852ca0       0x28 c:/intelfpga_lite/18.1/nios2eds/bin/gnu/h-x86_64-mingw32/bin/../lib/gcc/nios2-elf/5.3.0/../../../../../H-x86_64-mingw32/nios2-elf/lib\libc.a(lib_a-mprec.o)
                0x0000000000852ca0                __mprec_bigtens
 .rodata.__mprec_tens
                0x0000000000852cc8       0xc8 c:/intelfpga_lite/18.1/nios2eds/bin/gnu/h-x86_64-mingw32/bin/../lib/gcc/nios2-elf/5.3.0/../../../../../H-x86_64-mingw32/nios2-elf/lib\libc.a(lib_a-mprec.o)
                0x0000000000852cc8                __mprec_tens
 .rodata.str1.4
                0x0000000000852d90       0x2f c:/intelfpga_lite/18.1/nios2eds/bin/gnu/h-x86_64-mingw32/bin/../lib/gcc/nios2-elf/5.3.0/../../../../../H-x86_64-mingw32/nios2-elf/lib\libc.a(lib_a-svfiprintf.o)
 .rodata.zeroes.4333
                0x0000000000852d90       0x10 c:/intelfpga_lite/18.1/nios2eds/bin/gnu/h-x86_64-mingw32/bin/../lib/gcc/nios2-elf/5.3.0/../../../../../H-x86_64-mingw32/nios2-elf/lib\libc.a(lib_a-svfiprintf.o)
 .rodata.blanks.4332
                0x0000000000852da0       0x10 c:/intelfpga_lite/18.1/nios2eds/bin/gnu/h-x86_64-mingw32/bin/../lib/gcc/nios2-elf/5.3.0/../../../../../H-x86_64-mingw32/nios2-elf/lib\libc.a(lib_a-svfiprintf.o)
 .rodata.str1.4
                0x0000000000852db0       0x2f c:/intelfpga_lite/18.1/nios2eds/bin/gnu/h-x86_64-mingw32/bin/../lib/gcc/nios2-elf/5.3.0/../../../../../H-x86_64-mingw32/nios2-elf/lib\libc.a(lib_a-vfiprintf.o)
 .rodata.zeroes.4349
                0x0000000000852db0       0x10 c:/intelfpga_lite/18.1/nios2eds/bin/gnu/h-x86_64-mingw32/bin/../lib/gcc/nios2-elf/5.3.0/../../../../../H-x86_64-mingw32/nios2-elf/lib\libc.a(lib_a-vfiprintf.o)
 .rodata.blanks.4348
                0x0000000000852dc0       0x10 c:/intelfpga_lite/18.1/nios2eds/bin/gnu/h-x86_64-mingw32/bin/../lib/gcc/nios2-elf/5.3.0/../../../../../H-x86_64-mingw32/nios2-elf/lib\libc.a(lib_a-vfiprintf.o)
 .rodata        0x0000000000852dd0       0x10 ../candy_avb_sss_bsp/\libucosii_bsp.a(alt_main.o)
 .rodata        0x0000000000852de0      0x11e ../candy_avb_sss_bsp/\libucosii_bsp.a(os_core.o)
                0x0000000000852de0                OSUnMapTbl
 *fill*         0x0000000000852efe        0x2 
 .rodata        0x0000000000852f00       0xa5 ../candy_avb_sss_bsp/\libucosii_bsp.a(alt_sys_init.o)
 *fill*         0x0000000000852fa5        0x3 
 .rodata        0x0000000000852fa8      0x1ed ../candy_avb_sss_bsp/\libucosii_bsp.a(altera_msgdma.o)
 *fill*         0x0000000000853195        0x3 
 .rodata        0x0000000000853198      0x385 ../candy_avb_sss_bsp/\libucosii_bsp.a(ins_tse_mac.o)
 *fill*         0x000000000085351d        0x3 
 .rodata        0x0000000000853520       0xd7 ../candy_avb_sss_bsp/\libucosii_bsp.a(ipnet.o)
 *fill*         0x00000000008535f7        0x1 
 .rodata        0x00000000008535f8       0xec ../candy_avb_sss_bsp/\libucosii_bsp.a(ipstart.o)
 .rodata        0x00000000008536e4      0x54b ../candy_avb_sss_bsp/\libucosii_bsp.a(igmp_cmn.o)
 *fill*         0x0000000000853c2f        0x1 
 .rodata        0x0000000000853c30       0xb6 ../candy_avb_sss_bsp/\libucosii_bsp.a(in_utils.o)
 *fill*         0x0000000000853ce6        0x2 
 .rodata        0x0000000000853ce8       0x34 ../candy_avb_sss_bsp/\libucosii_bsp.a(netmain.o)
 .rodata        0x0000000000853d1c      0x1a8 ../candy_avb_sss_bsp/\libucosii_bsp.a(tk_crnos.o)
 .rodata        0x0000000000853ec4        0x7 ../candy_avb_sss_bsp/\libucosii_bsp.a(dhcpclnt.o)
 *fill*         0x0000000000853ecb        0x1 
 .rodata        0x0000000000853ecc      0x117 ../candy_avb_sss_bsp/\libucosii_bsp.a(pktalloc.o)
 *fill*         0x0000000000853fe3        0x1 
 .rodata        0x0000000000853fe4       0x81 ../candy_avb_sss_bsp/\libucosii_bsp.a(udp_open.o)
 *fill*         0x0000000000854065        0x3 
 .rodata        0x0000000000854068       0x2c ../candy_avb_sss_bsp/\libucosii_bsp.a(brdutils.o)
 .rodata        0x0000000000854094      0x26a ../candy_avb_sss_bsp/\libucosii_bsp.a(osportco.o)
 *fill*         0x00000000008542fe        0x2 
 .rodata        0x0000000000854300       0x9f ../candy_avb_sss_bsp/\libucosii_bsp.a(targnios.o)
 *fill*         0x000000000085439f        0x1 
 .rodata        0x00000000008543a0       0x90 ../candy_avb_sss_bsp/\libucosii_bsp.a(nptcp.o)
 .rodata        0x0000000000854430        0x7 ../candy_avb_sss_bsp/\libucosii_bsp.a(sockcall.o)
 *fill*         0x0000000000854437        0x1 
 .rodata        0x0000000000854438       0x4d ../candy_avb_sss_bsp/\libucosii_bsp.a(socket.o)
 *fill*         0x0000000000854485        0x3 
 .rodata        0x0000000000854488       0x3f ../candy_avb_sss_bsp/\libucosii_bsp.a(socket2.o)
 *fill*         0x00000000008544c7        0x1 
 .rodata        0x00000000008544c8       0x1e ../candy_avb_sss_bsp/\libucosii_bsp.a(tcp_in.o)
 *fill*         0x00000000008544e6        0x2 
 .rodata        0x00000000008544e8       0x3d ../candy_avb_sss_bsp/\libucosii_bsp.a(tcp_out.o)
 *fill*         0x0000000000854525        0x3 
 .rodata        0x0000000000854528       0x23 ../candy_avb_sss_bsp/\libucosii_bsp.a(tcp_subr.o)
 *fill*         0x000000000085454b        0x1 
 .rodata        0x000000000085454c       0x2b ../candy_avb_sss_bsp/\libucosii_bsp.a(tcp_usr.o)
 *fill*         0x0000000000854577        0x1 
 .rodata        0x0000000000854578        0xa ../candy_avb_sss_bsp/\libucosii_bsp.a(alt_dev.o)
 *fill*         0x0000000000854582        0x2 
 .rodata        0x0000000000854584        0x2 ../candy_avb_sss_bsp/\libucosii_bsp.a(os_cpu_c.o)
 *fill*         0x0000000000854586        0x2 
 .rodata        0x0000000000854588     0x1c66 ../candy_avb_sss_bsp/\libucosii_bsp.a(altera_avalon_tse.o)
 *fill*         0x00000000008561ee        0x2 
 .rodata        0x00000000008561f0      0x1d1 ../candy_avb_sss_bsp/\libucosii_bsp.a(allports.o)
 *fill*         0x00000000008563c1        0x3 
 .rodata        0x00000000008563c4       0x32 ../candy_avb_sss_bsp/\libucosii_bsp.a(tk_misc.o)
 *fill*         0x00000000008563f6        0x2 
 .rodata        0x00000000008563f8       0x41 ../candy_avb_sss_bsp/\libucosii_bsp.a(et_arp.o)
 *fill*         0x0000000000856439        0x3 
 .rodata        0x000000000085643c      0x1dc ../candy_avb_sss_bsp/\libucosii_bsp.a(ip.o)
 .rodata        0x0000000000856618      0x155 ../candy_avb_sss_bsp/\libucosii_bsp.a(ip_reasm.o)
 *fill*         0x000000000085676d        0x3 
 .rodata        0x0000000000856770      0x11d ../candy_avb_sss_bsp/\libucosii_bsp.a(ipdemux.o)
 *fill*         0x000000000085688d        0x3 
 .rodata        0x0000000000856890       0x31 ../candy_avb_sss_bsp/\libucosii_bsp.a(ipport.o)
 *fill*         0x00000000008568c1        0x3 
 .rodata        0x00000000008568c4       0x22 ../candy_avb_sss_bsp/\libucosii_bsp.a(ipraw.o)
 *fill*         0x00000000008568e6        0x2 
 .rodata        0x00000000008568e8       0x35 ../candy_avb_sss_bsp/\libucosii_bsp.a(iproute.o)
 *fill*         0x000000000085691d        0x3 
 .rodata        0x0000000000856920       0xe8 ../candy_avb_sss_bsp/\libucosii_bsp.a(udp.o)
 .rodata        0x0000000000856a08      0x2ae ../candy_avb_sss_bsp/\libucosii_bsp.a(u_mctest.o)
 *fill*         0x0000000000856cb6        0x2 
 .rodata        0x0000000000856cb8       0xf5 ../candy_avb_sss_bsp/\libucosii_bsp.a(dhcsetup.o)
 *fill*         0x0000000000856dad        0x3 
 .rodata        0x0000000000856db0       0x93 ../candy_avb_sss_bsp/\libucosii_bsp.a(parseip.o)
 *fill*         0x0000000000856e43        0x1 
 .rodata        0x0000000000856e44       0x31 ../candy_avb_sss_bsp/\libucosii_bsp.a(vfsfiles.o)
 *fill*         0x0000000000856e75        0x3 
 .rodata        0x0000000000856e78      0x317 ../candy_avb_sss_bsp/\libucosii_bsp.a(icmp.o)
 .rodata._ctype_
                0x000000000085718f      0x101 c:/intelfpga_lite/18.1/nios2eds/bin/gnu/h-x86_64-mingw32/bin/../lib/gcc/nios2-elf/5.3.0/../../../../../H-x86_64-mingw32/nios2-elf/lib\libc.a(lib_a-ctype_.o)
                0x000000000085718f                _ctype_
 .rodata._ctype_b
                0x0000000000857290      0x180 c:/intelfpga_lite/18.1/nios2eds/bin/gnu/h-x86_64-mingw32/bin/../lib/gcc/nios2-elf/5.3.0/../../../../../H-x86_64-mingw32/nios2-elf/lib\libc.a(lib_a-ctype_.o)
 *(.rodata1)
                0x0000000000857410                . = ALIGN (0x4)
                [!provide]                        PROVIDE (__ram_rodata_end, ABSOLUTE (.))
                [!provide]                        PROVIDE (__flash_rodata_start, LOADADDR (.rodata))

.rwdata         0x0000000000857410     0x2618
                [!provide]                        PROVIDE (__ram_rwdata_start, ABSOLUTE (.))
                0x0000000000857410                . = ALIGN (0x4)
 *(.got.plt)
 *(.got)
 *(.data1)
 *(.data .data.* .gnu.linkonce.d.*)
 .data          0x0000000000857410        0x0 ../candy_avb_sss_bsp//obj/HAL/src/crt0.o
 .data          0x0000000000857410        0x0 obj/default/SigmaStudioFW.o
 .data          0x0000000000857410        0x0 obj/default/alt_error_handler.o
 .data          0x0000000000857410      0x320 obj/default/iniche_init.o
                0x0000000000857410                Program_Data_IC_1
                0x0000000000857555                Param_Data_IC_1
                0x0000000000857585                R10_PLAYBACK_OUTPUT_SIGNAL_PATH_REGISTERS_IC_1_Default
                0x0000000000857593                Program_Data_IC_2
                0x00000000008576d8                Param_Data_IC_2
                0x0000000000857708                R10_PLAYBACK_OUTPUT_SIGNAL_PATH_REGISTERS_IC_2_Default
                0x0000000000857718                ssstask
 .data          0x0000000000857730        0x0 obj/default/network_utilities.o
 .data          0x0000000000857730       0x11 obj/default/osc.o
 .data          0x0000000000857741        0x0 obj/default/osc_server.o
 .data          0x0000000000857741        0x0 obj/default/sigmadsp.o
 *fill*         0x0000000000857741        0x3 
 .data          0x0000000000857744      0x130 obj/default/tse_my_system.o
                0x0000000000857744                tse_mac_device
 .data          0x0000000000857874        0x0 c:/intelfpga_lite/18.1/nios2eds/bin/gnu/h-x86_64-mingw32/bin/../lib/gcc/nios2-elf/5.3.0\libgcc.a(_floatdisf.o)
 .data          0x0000000000857874        0x0 c:/intelfpga_lite/18.1/nios2eds/bin/gnu/h-x86_64-mingw32/bin/../lib/gcc/nios2-elf/5.3.0\libgcc.a(addsf3.o)
 .data          0x0000000000857874        0x0 c:/intelfpga_lite/18.1/nios2eds/bin/gnu/h-x86_64-mingw32/bin/../lib/gcc/nios2-elf/5.3.0\libgcc.a(mulsf3.o)
 .data          0x0000000000857874        0x0 c:/intelfpga_lite/18.1/nios2eds/bin/gnu/h-x86_64-mingw32/bin/../lib/gcc/nios2-elf/5.3.0\libgcc.a(fixsfsi.o)
 .data          0x0000000000857874        0x0 c:/intelfpga_lite/18.1/nios2eds/bin/gnu/h-x86_64-mingw32/bin/../lib/gcc/nios2-elf/5.3.0\libgcc.a(floatsisf.o)
 .data          0x0000000000857874        0x0 c:/intelfpga_lite/18.1/nios2eds/bin/gnu/h-x86_64-mingw32/bin/../lib/gcc/nios2-elf/5.3.0\libgcc.a(adddf3.o)
 .data          0x0000000000857874        0x0 c:/intelfpga_lite/18.1/nios2eds/bin/gnu/h-x86_64-mingw32/bin/../lib/gcc/nios2-elf/5.3.0\libgcc.a(divdf3.o)
 .data          0x0000000000857874        0x0 c:/intelfpga_lite/18.1/nios2eds/bin/gnu/h-x86_64-mingw32/bin/../lib/gcc/nios2-elf/5.3.0\libgcc.a(muldf3.o)
 .data          0x0000000000857874        0x0 c:/intelfpga_lite/18.1/nios2eds/bin/gnu/h-x86_64-mingw32/bin/../lib/gcc/nios2-elf/5.3.0\libgcc.a(floatsidf.o)
 .data          0x0000000000857874        0x0 c:/intelfpga_lite/18.1/nios2eds/bin/gnu/h-x86_64-mingw32/bin/../lib/gcc/nios2-elf/5.3.0\libgcc.a(floatunsidf.o)
 .data          0x0000000000857874        0x0 c:/intelfpga_lite/18.1/nios2eds/bin/gnu/h-x86_64-mingw32/bin/../lib/gcc/nios2-elf/5.3.0\libgcc.a(extendsfdf2.o)
 .data          0x0000000000857874        0x0 c:/intelfpga_lite/18.1/nios2eds/bin/gnu/h-x86_64-mingw32/bin/../lib/gcc/nios2-elf/5.3.0\libgcc.a(truncdfsf2.o)
 .data          0x0000000000857874        0x0 c:/intelfpga_lite/18.1/nios2eds/bin/gnu/h-x86_64-mingw32/bin/../lib/gcc/nios2-elf/5.3.0\libgcc.a(_clzsi2.o)
 .data          0x0000000000857874        0x0 c:/intelfpga_lite/18.1/nios2eds/bin/gnu/h-x86_64-mingw32/bin/../lib/gcc/nios2-elf/5.3.0\libgcc.a(lib2-divmod.o)
 .data          0x0000000000857874        0x0 c:/intelfpga_lite/18.1/nios2eds/bin/gnu/h-x86_64-mingw32/bin/../lib/gcc/nios2-elf/5.3.0\libgcc.a(_clz.o)
 .data          0x0000000000857874        0x0 c:/intelfpga_lite/18.1/nios2eds/bin/gnu/h-x86_64-mingw32/bin/../lib/gcc/nios2-elf/5.3.0/../../../../../H-x86_64-mingw32/nios2-elf/lib\libc.a(lib_a-calloc.o)
 .data          0x0000000000857874        0x0 c:/intelfpga_lite/18.1/nios2eds/bin/gnu/h-x86_64-mingw32/bin/../lib/gcc/nios2-elf/5.3.0/../../../../../H-x86_64-mingw32/nios2-elf/lib\libc.a(lib_a-callocr.o)
 .data          0x0000000000857874        0x0 c:/intelfpga_lite/18.1/nios2eds/bin/gnu/h-x86_64-mingw32/bin/../lib/gcc/nios2-elf/5.3.0/../../../../../H-x86_64-mingw32/nios2-elf/lib\libc.a(lib_a-fprintf.o)
 .data          0x0000000000857874        0x0 c:/intelfpga_lite/18.1/nios2eds/bin/gnu/h-x86_64-mingw32/bin/../lib/gcc/nios2-elf/5.3.0/../../../../../H-x86_64-mingw32/nios2-elf/lib\libc.a(lib_a-fwrite.o)
 .data          0x0000000000857874        0x0 c:/intelfpga_lite/18.1/nios2eds/bin/gnu/h-x86_64-mingw32/bin/../lib/gcc/nios2-elf/5.3.0/../../../../../H-x86_64-mingw32/nios2-elf/lib\libc.a(lib_a-impure.o)
 .data.impure_data
                0x0000000000857874      0x424 c:/intelfpga_lite/18.1/nios2eds/bin/gnu/h-x86_64-mingw32/bin/../lib/gcc/nios2-elf/5.3.0/../../../../../H-x86_64-mingw32/nios2-elf/lib\libc.a(lib_a-impure.o)
 .data          0x0000000000857c98        0x0 c:/intelfpga_lite/18.1/nios2eds/bin/gnu/h-x86_64-mingw32/bin/../lib/gcc/nios2-elf/5.3.0/../../../../../H-x86_64-mingw32/nios2-elf/lib\libc.a(lib_a-malloc.o)
 .data          0x0000000000857c98        0x0 c:/intelfpga_lite/18.1/nios2eds/bin/gnu/h-x86_64-mingw32/bin/../lib/gcc/nios2-elf/5.3.0/../../../../../H-x86_64-mingw32/nios2-elf/lib\libc.a(lib_a-mallocr.o)
 .data.__malloc_av_
                0x0000000000857c98      0x408 c:/intelfpga_lite/18.1/nios2eds/bin/gnu/h-x86_64-mingw32/bin/../lib/gcc/nios2-elf/5.3.0/../../../../../H-x86_64-mingw32/nios2-elf/lib\libc.a(lib_a-mallocr.o)
                0x0000000000857c98                __malloc_av_
 .data          0x00000000008580a0        0x0 c:/intelfpga_lite/18.1/nios2eds/bin/gnu/h-x86_64-mingw32/bin/../lib/gcc/nios2-elf/5.3.0/../../../../../H-x86_64-mingw32/nios2-elf/lib\libc.a(lib_a-memcpy.o)
 .data          0x00000000008580a0        0x0 c:/intelfpga_lite/18.1/nios2eds/bin/gnu/h-x86_64-mingw32/bin/../lib/gcc/nios2-elf/5.3.0/../../../../../H-x86_64-mingw32/nios2-elf/lib\libc.a(lib_a-memset.o)
 .data          0x00000000008580a0        0x0 c:/intelfpga_lite/18.1/nios2eds/bin/gnu/h-x86_64-mingw32/bin/../lib/gcc/nios2-elf/5.3.0/../../../../../H-x86_64-mingw32/nios2-elf/lib\libc.a(lib_a-perror.o)
 .data          0x00000000008580a0        0x0 c:/intelfpga_lite/18.1/nios2eds/bin/gnu/h-x86_64-mingw32/bin/../lib/gcc/nios2-elf/5.3.0/../../../../../H-x86_64-mingw32/nios2-elf/lib\libc.a(lib_a-printf.o)
 .data          0x00000000008580a0        0x0 c:/intelfpga_lite/18.1/nios2eds/bin/gnu/h-x86_64-mingw32/bin/../lib/gcc/nios2-elf/5.3.0/../../../../../H-x86_64-mingw32/nios2-elf/lib\libc.a(lib_a-puts.o)
 .data          0x00000000008580a0        0x0 c:/intelfpga_lite/18.1/nios2eds/bin/gnu/h-x86_64-mingw32/bin/../lib/gcc/nios2-elf/5.3.0/../../../../../H-x86_64-mingw32/nios2-elf/lib\libc.a(lib_a-sbrkr.o)
 .data          0x00000000008580a0        0x0 c:/intelfpga_lite/18.1/nios2eds/bin/gnu/h-x86_64-mingw32/bin/../lib/gcc/nios2-elf/5.3.0/../../../../../H-x86_64-mingw32/nios2-elf/lib\libc.a(lib_a-sprintf.o)
 .data          0x00000000008580a0        0x0 c:/intelfpga_lite/18.1/nios2eds/bin/gnu/h-x86_64-mingw32/bin/../lib/gcc/nios2-elf/5.3.0/../../../../../H-x86_64-mingw32/nios2-elf/lib\libc.a(lib_a-strchr.o)
 .data          0x00000000008580a0        0x0 c:/intelfpga_lite/18.1/nios2eds/bin/gnu/h-x86_64-mingw32/bin/../lib/gcc/nios2-elf/5.3.0/../../../../../H-x86_64-mingw32/nios2-elf/lib\libc.a(lib_a-strcmp.o)
 .data          0x00000000008580a0        0x0 c:/intelfpga_lite/18.1/nios2eds/bin/gnu/h-x86_64-mingw32/bin/../lib/gcc/nios2-elf/5.3.0/../../../../../H-x86_64-mingw32/nios2-elf/lib\libc.a(lib_a-strerror.o)
 .data          0x00000000008580a0        0x0 c:/intelfpga_lite/18.1/nios2eds/bin/gnu/h-x86_64-mingw32/bin/../lib/gcc/nios2-elf/5.3.0/../../../../../H-x86_64-mingw32/nios2-elf/lib\libc.a(lib_a-strlen.o)
 .data          0x00000000008580a0        0x0 c:/intelfpga_lite/18.1/nios2eds/bin/gnu/h-x86_64-mingw32/bin/../lib/gcc/nios2-elf/5.3.0/../../../../../H-x86_64-mingw32/nios2-elf/lib\libc.a(lib_a-svfprintf.o)
 .data          0x00000000008580a0        0x0 c:/intelfpga_lite/18.1/nios2eds/bin/gnu/h-x86_64-mingw32/bin/../lib/gcc/nios2-elf/5.3.0/../../../../../H-x86_64-mingw32/nios2-elf/lib\libc.a(lib_a-u_strerr.o)
 .data          0x00000000008580a0        0x0 c:/intelfpga_lite/18.1/nios2eds/bin/gnu/h-x86_64-mingw32/bin/../lib/gcc/nios2-elf/5.3.0/../../../../../H-x86_64-mingw32/nios2-elf/lib\libc.a(lib_a-vfprintf.o)
 .data          0x00000000008580a0        0x0 c:/intelfpga_lite/18.1/nios2eds/bin/gnu/h-x86_64-mingw32/bin/../lib/gcc/nios2-elf/5.3.0/../../../../../H-x86_64-mingw32/nios2-elf/lib\libc.a(lib_a-wsetup.o)
 .data          0x00000000008580a0        0x0 c:/intelfpga_lite/18.1/nios2eds/bin/gnu/h-x86_64-mingw32/bin/../lib/gcc/nios2-elf/5.3.0/../../../../../H-x86_64-mingw32/nios2-elf/lib\libc.a(lib_a-dtoa.o)
 .data          0x00000000008580a0        0x0 c:/intelfpga_lite/18.1/nios2eds/bin/gnu/h-x86_64-mingw32/bin/../lib/gcc/nios2-elf/5.3.0/../../../../../H-x86_64-mingw32/nios2-elf/lib\libc.a(lib_a-fflush.o)
 .data          0x00000000008580a0        0x0 c:/intelfpga_lite/18.1/nios2eds/bin/gnu/h-x86_64-mingw32/bin/../lib/gcc/nios2-elf/5.3.0/../../../../../H-x86_64-mingw32/nios2-elf/lib\libc.a(lib_a-findfp.o)
 .data          0x00000000008580a0        0x0 c:/intelfpga_lite/18.1/nios2eds/bin/gnu/h-x86_64-mingw32/bin/../lib/gcc/nios2-elf/5.3.0/../../../../../H-x86_64-mingw32/nios2-elf/lib\libc.a(lib_a-fputc.o)
 .data          0x00000000008580a0        0x0 c:/intelfpga_lite/18.1/nios2eds/bin/gnu/h-x86_64-mingw32/bin/../lib/gcc/nios2-elf/5.3.0/../../../../../H-x86_64-mingw32/nios2-elf/lib\libc.a(lib_a-fputs.o)
 .data          0x00000000008580a0        0x0 c:/intelfpga_lite/18.1/nios2eds/bin/gnu/h-x86_64-mingw32/bin/../lib/gcc/nios2-elf/5.3.0/../../../../../H-x86_64-mingw32/nios2-elf/lib\libc.a(lib_a-freer.o)
 .data          0x00000000008580a0        0x0 c:/intelfpga_lite/18.1/nios2eds/bin/gnu/h-x86_64-mingw32/bin/../lib/gcc/nios2-elf/5.3.0/../../../../../H-x86_64-mingw32/nios2-elf/lib\libc.a(lib_a-fvwrite.o)
 .data          0x00000000008580a0        0x0 c:/intelfpga_lite/18.1/nios2eds/bin/gnu/h-x86_64-mingw32/bin/../lib/gcc/nios2-elf/5.3.0/../../../../../H-x86_64-mingw32/nios2-elf/lib\libc.a(lib_a-fwalk.o)
 .data          0x00000000008580a0        0x0 c:/intelfpga_lite/18.1/nios2eds/bin/gnu/h-x86_64-mingw32/bin/../lib/gcc/nios2-elf/5.3.0/../../../../../H-x86_64-mingw32/nios2-elf/lib\libc.a(lib_a-int_errno.o)
 .data          0x00000000008580a0        0x0 c:/intelfpga_lite/18.1/nios2eds/bin/gnu/h-x86_64-mingw32/bin/../lib/gcc/nios2-elf/5.3.0/../../../../../H-x86_64-mingw32/nios2-elf/lib\libc.a(lib_a-locale.o)
 .data.lc_message_charset
                0x00000000008580a0       0x20 c:/intelfpga_lite/18.1/nios2eds/bin/gnu/h-x86_64-mingw32/bin/../lib/gcc/nios2-elf/5.3.0/../../../../../H-x86_64-mingw32/nios2-elf/lib\libc.a(lib_a-locale.o)
 .data.lc_ctype_charset
                0x00000000008580c0       0x20 c:/intelfpga_lite/18.1/nios2eds/bin/gnu/h-x86_64-mingw32/bin/../lib/gcc/nios2-elf/5.3.0/../../../../../H-x86_64-mingw32/nios2-elf/lib\libc.a(lib_a-locale.o)
 .data.lconv    0x00000000008580e0       0x38 c:/intelfpga_lite/18.1/nios2eds/bin/gnu/h-x86_64-mingw32/bin/../lib/gcc/nios2-elf/5.3.0/../../../../../H-x86_64-mingw32/nios2-elf/lib\libc.a(lib_a-locale.o)
 .data          0x0000000000858118        0x0 c:/intelfpga_lite/18.1/nios2eds/bin/gnu/h-x86_64-mingw32/bin/../lib/gcc/nios2-elf/5.3.0/../../../../../H-x86_64-mingw32/nios2-elf/lib\libc.a(lib_a-makebuf.o)
 .data          0x0000000000858118        0x0 c:/intelfpga_lite/18.1/nios2eds/bin/gnu/h-x86_64-mingw32/bin/../lib/gcc/nios2-elf/5.3.0/../../../../../H-x86_64-mingw32/nios2-elf/lib\libc.a(lib_a-memchr.o)
 .data          0x0000000000858118        0x0 c:/intelfpga_lite/18.1/nios2eds/bin/gnu/h-x86_64-mingw32/bin/../lib/gcc/nios2-elf/5.3.0/../../../../../H-x86_64-mingw32/nios2-elf/lib\libc.a(lib_a-memmove.o)
 .data          0x0000000000858118        0x0 c:/intelfpga_lite/18.1/nios2eds/bin/gnu/h-x86_64-mingw32/bin/../lib/gcc/nios2-elf/5.3.0/../../../../../H-x86_64-mingw32/nios2-elf/lib\libc.a(lib_a-mprec.o)
 .data          0x0000000000858118        0x0 c:/intelfpga_lite/18.1/nios2eds/bin/gnu/h-x86_64-mingw32/bin/../lib/gcc/nios2-elf/5.3.0/../../../../../H-x86_64-mingw32/nios2-elf/lib\libc.a(lib_a-putc.o)
 .data          0x0000000000858118        0x0 c:/intelfpga_lite/18.1/nios2eds/bin/gnu/h-x86_64-mingw32/bin/../lib/gcc/nios2-elf/5.3.0/../../../../../H-x86_64-mingw32/nios2-elf/lib\libc.a(lib_a-reallocr.o)
 .data          0x0000000000858118        0x0 c:/intelfpga_lite/18.1/nios2eds/bin/gnu/h-x86_64-mingw32/bin/../lib/gcc/nios2-elf/5.3.0/../../../../../H-x86_64-mingw32/nios2-elf/lib\libc.a(lib_a-s_fpclassify.o)
 .data          0x0000000000858118        0x0 c:/intelfpga_lite/18.1/nios2eds/bin/gnu/h-x86_64-mingw32/bin/../lib/gcc/nios2-elf/5.3.0/../../../../../H-x86_64-mingw32/nios2-elf/lib\libc.a(lib_a-stdio.o)
 .data          0x0000000000858118        0x0 c:/intelfpga_lite/18.1/nios2eds/bin/gnu/h-x86_64-mingw32/bin/../lib/gcc/nios2-elf/5.3.0/../../../../../H-x86_64-mingw32/nios2-elf/lib\libc.a(lib_a-svfiprintf.o)
 .data          0x0000000000858118        0x0 c:/intelfpga_lite/18.1/nios2eds/bin/gnu/h-x86_64-mingw32/bin/../lib/gcc/nios2-elf/5.3.0/../../../../../H-x86_64-mingw32/nios2-elf/lib\libc.a(lib_a-vfiprintf.o)
 .data          0x0000000000858118        0x0 c:/intelfpga_lite/18.1/nios2eds/bin/gnu/h-x86_64-mingw32/bin/../lib/gcc/nios2-elf/5.3.0/../../../../../H-x86_64-mingw32/nios2-elf/lib\libc.a(lib_a-wbuf.o)
 .data          0x0000000000858118        0x0 c:/intelfpga_lite/18.1/nios2eds/bin/gnu/h-x86_64-mingw32/bin/../lib/gcc/nios2-elf/5.3.0/../../../../../H-x86_64-mingw32/nios2-elf/lib\libc.a(lib_a-writer.o)
 .data          0x0000000000858118        0x0 c:/intelfpga_lite/18.1/nios2eds/bin/gnu/h-x86_64-mingw32/bin/../lib/gcc/nios2-elf/5.3.0/../../../../../H-x86_64-mingw32/nios2-elf/lib\libc.a(closer.o)
 .data          0x0000000000858118        0x0 c:/intelfpga_lite/18.1/nios2eds/bin/gnu/h-x86_64-mingw32/bin/../lib/gcc/nios2-elf/5.3.0/../../../../../H-x86_64-mingw32/nios2-elf/lib\libc.a(lib_a-fclose.o)
 .data          0x0000000000858118        0x0 c:/intelfpga_lite/18.1/nios2eds/bin/gnu/h-x86_64-mingw32/bin/../lib/gcc/nios2-elf/5.3.0/../../../../../H-x86_64-mingw32/nios2-elf/lib\libc.a(lib_a-fputwc.o)
 .data          0x0000000000858118        0x0 c:/intelfpga_lite/18.1/nios2eds/bin/gnu/h-x86_64-mingw32/bin/../lib/gcc/nios2-elf/5.3.0/../../../../../H-x86_64-mingw32/nios2-elf/lib\libc.a(lib_a-fstatr.o)
 .data          0x0000000000858118        0x0 c:/intelfpga_lite/18.1/nios2eds/bin/gnu/h-x86_64-mingw32/bin/../lib/gcc/nios2-elf/5.3.0/../../../../../H-x86_64-mingw32/nios2-elf/lib\libc.a(lib_a-isattyr.o)
 .data          0x0000000000858118        0x0 c:/intelfpga_lite/18.1/nios2eds/bin/gnu/h-x86_64-mingw32/bin/../lib/gcc/nios2-elf/5.3.0/../../../../../H-x86_64-mingw32/nios2-elf/lib\libc.a(lib_a-lseekr.o)
 .data          0x0000000000858118        0x0 c:/intelfpga_lite/18.1/nios2eds/bin/gnu/h-x86_64-mingw32/bin/../lib/gcc/nios2-elf/5.3.0/../../../../../H-x86_64-mingw32/nios2-elf/lib\libc.a(lib_a-readr.o)
 .data          0x0000000000858118        0x0 c:/intelfpga_lite/18.1/nios2eds/bin/gnu/h-x86_64-mingw32/bin/../lib/gcc/nios2-elf/5.3.0/../../../../../H-x86_64-mingw32/nios2-elf/lib\libc.a(lib_a-wcrtomb.o)
 .data          0x0000000000858118        0x0 c:/intelfpga_lite/18.1/nios2eds/bin/gnu/h-x86_64-mingw32/bin/../lib/gcc/nios2-elf/5.3.0/../../../../../H-x86_64-mingw32/nios2-elf/lib\libc.a(lib_a-wctomb_r.o)
 .data          0x0000000000858118        0x0 c:/intelfpga_lite/18.1/nios2eds/bin/gnu/h-x86_64-mingw32/bin/../lib/gcc/nios2-elf/5.3.0\libgcc.a(_udivdi3.o)
 .data          0x0000000000858118        0x0 c:/intelfpga_lite/18.1/nios2eds/bin/gnu/h-x86_64-mingw32/bin/../lib/gcc/nios2-elf/5.3.0\libgcc.a(_umoddi3.o)
 .data          0x0000000000858118        0x0 c:/intelfpga_lite/18.1/nios2eds/bin/gnu/h-x86_64-mingw32/bin/../lib/gcc/nios2-elf/5.3.0\libgcc.a(eqdf2.o)
 .data          0x0000000000858118        0x0 c:/intelfpga_lite/18.1/nios2eds/bin/gnu/h-x86_64-mingw32/bin/../lib/gcc/nios2-elf/5.3.0\libgcc.a(gedf2.o)
 .data          0x0000000000858118        0x0 c:/intelfpga_lite/18.1/nios2eds/bin/gnu/h-x86_64-mingw32/bin/../lib/gcc/nios2-elf/5.3.0\libgcc.a(ledf2.o)
 .data          0x0000000000858118        0x0 c:/intelfpga_lite/18.1/nios2eds/bin/gnu/h-x86_64-mingw32/bin/../lib/gcc/nios2-elf/5.3.0\libgcc.a(subdf3.o)
 .data          0x0000000000858118        0x0 c:/intelfpga_lite/18.1/nios2eds/bin/gnu/h-x86_64-mingw32/bin/../lib/gcc/nios2-elf/5.3.0\libgcc.a(fixdfsi.o)
 .data          0x0000000000858118        0x0 ../candy_avb_sss_bsp/\libucosii_bsp.a(alt_fstat.o)
 .data          0x0000000000858118        0x0 ../candy_avb_sss_bsp/\libucosii_bsp.a(alt_isatty.o)
 .data          0x0000000000858118        0x0 ../candy_avb_sss_bsp/\libucosii_bsp.a(alt_lseek.o)
 .data          0x0000000000858118        0x0 ../candy_avb_sss_bsp/\libucosii_bsp.a(alt_main.o)
 .data          0x0000000000858118        0x0 ../candy_avb_sss_bsp/\libucosii_bsp.a(alt_sbrk.o)
 .data          0x0000000000858118        0x0 ../candy_avb_sss_bsp/\libucosii_bsp.a(alt_usleep.o)
 .data          0x0000000000858118        0x0 ../candy_avb_sss_bsp/\libucosii_bsp.a(alt_env_lock.o)
 .data          0x0000000000858118        0x0 ../candy_avb_sss_bsp/\libucosii_bsp.a(alt_malloc_lock.o)
 .data          0x0000000000858118        0x0 ../candy_avb_sss_bsp/\libucosii_bsp.a(os_core.o)
 .data          0x0000000000858118        0x0 ../candy_avb_sss_bsp/\libucosii_bsp.a(os_dbg.o)
 .data          0x0000000000858118        0x0 ../candy_avb_sss_bsp/\libucosii_bsp.a(os_flag.o)
 .data          0x0000000000858118        0x0 ../candy_avb_sss_bsp/\libucosii_bsp.a(os_mem.o)
 .data          0x0000000000858118        0x0 ../candy_avb_sss_bsp/\libucosii_bsp.a(os_q.o)
 .data          0x0000000000858118        0x0 ../candy_avb_sss_bsp/\libucosii_bsp.a(os_sem.o)
 .data          0x0000000000858118        0x0 ../candy_avb_sss_bsp/\libucosii_bsp.a(os_task.o)
 .data          0x0000000000858118        0x0 ../candy_avb_sss_bsp/\libucosii_bsp.a(os_time.o)
 *fill*         0x0000000000858118        0x8 
 .data          0x0000000000858120     0x1360 ../candy_avb_sss_bsp/\libucosii_bsp.a(alt_sys_init.o)
 .data          0x0000000000859480        0x0 ../candy_avb_sss_bsp/\libucosii_bsp.a(altera_avalon_jtag_uart_fd.o)
 .data          0x0000000000859480        0x0 ../candy_avb_sss_bsp/\libucosii_bsp.a(altera_avalon_jtag_uart_init.o)
 .data          0x0000000000859480        0x0 ../candy_avb_sss_bsp/\libucosii_bsp.a(altera_avalon_jtag_uart_ioctl.o)
 .data          0x0000000000859480        0x0 ../candy_avb_sss_bsp/\libucosii_bsp.a(altera_avalon_jtag_uart_read.o)
 .data          0x0000000000859480        0x0 ../candy_avb_sss_bsp/\libucosii_bsp.a(altera_avalon_jtag_uart_write.o)
 .data          0x0000000000859480        0x0 ../candy_avb_sss_bsp/\libucosii_bsp.a(altera_avalon_timer_sc.o)
 .data          0x0000000000859480        0x0 ../candy_avb_sss_bsp/\libucosii_bsp.a(altera_avalon_uart_fd.o)
 .data          0x0000000000859480        0x0 ../candy_avb_sss_bsp/\libucosii_bsp.a(altera_avalon_uart_init.o)
 .data          0x0000000000859480        0x0 ../candy_avb_sss_bsp/\libucosii_bsp.a(altera_avalon_uart_read.o)
 .data          0x0000000000859480        0x0 ../candy_avb_sss_bsp/\libucosii_bsp.a(altera_avalon_uart_write.o)
 .data          0x0000000000859480        0x0 ../candy_avb_sss_bsp/\libucosii_bsp.a(altera_modular_adc.o)
 .data          0x0000000000859480        0x0 ../candy_avb_sss_bsp/\libucosii_bsp.a(altera_msgdma.o)
 .data          0x0000000000859480        0x0 ../candy_avb_sss_bsp/\libucosii_bsp.a(altera_onchip_flash.o)
 .data          0x0000000000859480        0x0 ../candy_avb_sss_bsp/\libucosii_bsp.a(ins_tse_mac.o)
 .data          0x0000000000859480        0x0 ../candy_avb_sss_bsp/\libucosii_bsp.a(alt_iniche_close.o)
 .data          0x0000000000859480        0x0 ../candy_avb_sss_bsp/\libucosii_bsp.a(alt_iniche_dev.o)
 .data          0x0000000000859480        0x0 ../candy_avb_sss_bsp/\libucosii_bsp.a(alt_iniche_read.o)
 .data          0x0000000000859480        0x0 ../candy_avb_sss_bsp/\libucosii_bsp.a(alt_iniche_write.o)
 .data          0x0000000000859480        0x0 ../candy_avb_sss_bsp/\libucosii_bsp.a(ipnet.o)
 .data          0x0000000000859480        0x0 ../candy_avb_sss_bsp/\libucosii_bsp.a(ipstart.o)
 .data          0x0000000000859480        0x0 ../candy_avb_sss_bsp/\libucosii_bsp.a(igmp_cmn.o)
 .data          0x0000000000859480        0x0 ../candy_avb_sss_bsp/\libucosii_bsp.a(bsdsock.o)
 .data          0x0000000000859480        0x0 ../candy_avb_sss_bsp/\libucosii_bsp.a(cksum.o)
 .data          0x0000000000859480        0x0 ../candy_avb_sss_bsp/\libucosii_bsp.a(in_utils.o)
 .data          0x0000000000859480       0x30 ../candy_avb_sss_bsp/\libucosii_bsp.a(netmain.o)
                0x0000000000859480                nettasks
 .data          0x00000000008594b0        0x0 ../candy_avb_sss_bsp/\libucosii_bsp.a(tk_crnos.o)
 .data          0x00000000008594b0        0x0 ../candy_avb_sss_bsp/\libucosii_bsp.a(dhcpclnt.o)
 .data          0x00000000008594b0        0x0 ../candy_avb_sss_bsp/\libucosii_bsp.a(dhcputil.o)
 .data          0x00000000008594b0        0x0 ../candy_avb_sss_bsp/\libucosii_bsp.a(pktalloc.o)
 .data          0x00000000008594b0        0x0 ../candy_avb_sss_bsp/\libucosii_bsp.a(q.o)
 .data          0x00000000008594b0        0x0 ../candy_avb_sss_bsp/\libucosii_bsp.a(udp_open.o)
 .data          0x00000000008594b0        0x0 ../candy_avb_sss_bsp/\libucosii_bsp.a(asm_cksum.o)
 .data          0x00000000008594b0        0x0 ../candy_avb_sss_bsp/\libucosii_bsp.a(brdutils.o)
 .data          0x00000000008594b0        0x0 ../candy_avb_sss_bsp/\libucosii_bsp.a(osportco.o)
 .data          0x00000000008594b0        0x0 ../candy_avb_sss_bsp/\libucosii_bsp.a(targnios.o)
 .data          0x00000000008594b0       0x48 ../candy_avb_sss_bsp/\libucosii_bsp.a(nptcp.o)
                0x00000000008594b0                tcp_protosw
                0x00000000008594c8                udp_protosw
                0x00000000008594e0                rawip_protosw
 .data          0x00000000008594f8        0x0 ../candy_avb_sss_bsp/\libucosii_bsp.a(rawsock.o)
 .data          0x00000000008594f8        0x0 ../candy_avb_sss_bsp/\libucosii_bsp.a(sockcall.o)
 .data          0x00000000008594f8        0x0 ../candy_avb_sss_bsp/\libucosii_bsp.a(socket.o)
 .data          0x00000000008594f8        0x0 ../candy_avb_sss_bsp/\libucosii_bsp.a(socket2.o)
 .data          0x00000000008594f8        0x0 ../candy_avb_sss_bsp/\libucosii_bsp.a(soselect.o)
 .data          0x00000000008594f8        0x0 ../candy_avb_sss_bsp/\libucosii_bsp.a(tcp_in.o)
 .data          0x00000000008594f8        0xb ../candy_avb_sss_bsp/\libucosii_bsp.a(tcp_out.o)
                0x00000000008594f8                tcp_outflags
 .data          0x0000000000859503        0x0 ../candy_avb_sss_bsp/\libucosii_bsp.a(tcp_subr.o)
 .data          0x0000000000859503        0xd ../candy_avb_sss_bsp/\libucosii_bsp.a(tcp_timr.o)
                0x0000000000859503                tcp_backoff
 .data          0x0000000000859510        0x0 ../candy_avb_sss_bsp/\libucosii_bsp.a(tcp_usr.o)
 .data          0x0000000000859510        0x0 ../candy_avb_sss_bsp/\libucosii_bsp.a(tcpport.o)
 .data          0x0000000000859510        0x0 ../candy_avb_sss_bsp/\libucosii_bsp.a(udpsock.o)
 .data          0x0000000000859510        0x0 ../candy_avb_sss_bsp/\libucosii_bsp.a(alt_alarm_start.o)
 .data          0x0000000000859510        0x0 ../candy_avb_sss_bsp/\libucosii_bsp.a(alt_busy_sleep.o)
 .data          0x0000000000859510        0x0 ../candy_avb_sss_bsp/\libucosii_bsp.a(alt_close.o)
 .data          0x0000000000859510        0x0 ../candy_avb_sss_bsp/\libucosii_bsp.a(alt_dcache_flush.o)
 .data          0x0000000000859510      0x1a8 ../candy_avb_sss_bsp/\libucosii_bsp.a(alt_dev.o)
                0x0000000000859510                alt_dev_null
                0x0000000000859538                alt_fd_list
 .data          0x00000000008596b8        0x0 ../candy_avb_sss_bsp/\libucosii_bsp.a(alt_dev_llist_insert.o)
 .data          0x00000000008596b8        0x0 ../candy_avb_sss_bsp/\libucosii_bsp.a(alt_do_ctors.o)
 .data          0x00000000008596b8        0x0 ../candy_avb_sss_bsp/\libucosii_bsp.a(alt_do_dtors.o)
 .data          0x00000000008596b8        0x0 ../candy_avb_sss_bsp/\libucosii_bsp.a(alt_errno.o)
 .data          0x00000000008596b8        0x0 ../candy_avb_sss_bsp/\libucosii_bsp.a(alt_find_dev.o)
 .data          0x00000000008596b8        0x0 ../candy_avb_sss_bsp/\libucosii_bsp.a(alt_flash_dev.o)
 .data          0x00000000008596b8        0x0 ../candy_avb_sss_bsp/\libucosii_bsp.a(alt_iic.o)
 .data          0x00000000008596b8        0x0 ../candy_avb_sss_bsp/\libucosii_bsp.a(alt_iic_isr_register.o)
 .data          0x00000000008596b8        0x0 ../candy_avb_sss_bsp/\libucosii_bsp.a(alt_io_redirect.o)
 .data          0x00000000008596b8        0x0 ../candy_avb_sss_bsp/\libucosii_bsp.a(alt_irq_entry.o)
 .data          0x00000000008596b8        0x0 ../candy_avb_sss_bsp/\libucosii_bsp.a(alt_irq_handler.o)
 .data          0x00000000008596b8        0x0 ../candy_avb_sss_bsp/\libucosii_bsp.a(alt_irq_vars.o)
 .data          0x00000000008596b8        0x0 ../candy_avb_sss_bsp/\libucosii_bsp.a(alt_open.o)
 .data          0x00000000008596b8        0x0 ../candy_avb_sss_bsp/\libucosii_bsp.a(alt_printf.o)
 .data          0x00000000008596b8        0x0 ../candy_avb_sss_bsp/\libucosii_bsp.a(alt_putchar.o)
 .data          0x00000000008596b8        0x0 ../candy_avb_sss_bsp/\libucosii_bsp.a(alt_read.o)
 .data          0x00000000008596b8        0x0 ../candy_avb_sss_bsp/\libucosii_bsp.a(alt_release_fd.o)
 .data          0x00000000008596b8        0x0 ../candy_avb_sss_bsp/\libucosii_bsp.a(alt_remap_cached.o)
 .data          0x00000000008596b8        0x0 ../candy_avb_sss_bsp/\libucosii_bsp.a(alt_tick.o)
 .data          0x00000000008596b8        0x0 ../candy_avb_sss_bsp/\libucosii_bsp.a(alt_uncached_free.o)
 .data          0x00000000008596b8        0x0 ../candy_avb_sss_bsp/\libucosii_bsp.a(alt_uncached_malloc.o)
 .data          0x00000000008596b8        0x0 ../candy_avb_sss_bsp/\libucosii_bsp.a(alt_write.o)
 .data          0x00000000008596b8        0x0 ../candy_avb_sss_bsp/\libucosii_bsp.a(altera_nios2_gen2_irq.o)
 .data          0x00000000008596b8        0x0 ../candy_avb_sss_bsp/\libucosii_bsp.a(os_cpu_a.o)
 .data          0x00000000008596b8        0x0 ../candy_avb_sss_bsp/\libucosii_bsp.a(os_cpu_c.o)
 .data          0x00000000008596b8        0x0 ../candy_avb_sss_bsp/\libucosii_bsp.a(altera_avalon_tse.o)
 .data          0x00000000008596b8       0x18 ../candy_avb_sss_bsp/\libucosii_bsp.a(allports.o)
                0x00000000008596b8                icmpdu_types
 .data          0x00000000008596d0        0x0 ../candy_avb_sss_bsp/\libucosii_bsp.a(timeouts.o)
 .data          0x00000000008596d0        0x0 ../candy_avb_sss_bsp/\libucosii_bsp.a(tk_misc.o)
 .data          0x00000000008596d0        0x0 ../candy_avb_sss_bsp/\libucosii_bsp.a(alt_iniche_fcntl.o)
 .data          0x00000000008596d0        0x0 ../candy_avb_sss_bsp/\libucosii_bsp.a(et_arp.o)
 .data          0x00000000008596d0        0x0 ../candy_avb_sss_bsp/\libucosii_bsp.a(iface.o)
 .data          0x00000000008596d0        0x0 ../candy_avb_sss_bsp/\libucosii_bsp.a(ip.o)
 .data          0x00000000008596d0        0x0 ../candy_avb_sss_bsp/\libucosii_bsp.a(ip_reasm.o)
 .data          0x00000000008596d0        0x0 ../candy_avb_sss_bsp/\libucosii_bsp.a(ipdemux.o)
 .data          0x00000000008596d0        0x0 ../candy_avb_sss_bsp/\libucosii_bsp.a(ipmc.o)
 .data          0x00000000008596d0        0x0 ../candy_avb_sss_bsp/\libucosii_bsp.a(ipport.o)
 .data          0x00000000008596d0        0x0 ../candy_avb_sss_bsp/\libucosii_bsp.a(ipraw.o)
 .data          0x00000000008596d0        0x9 ../candy_avb_sss_bsp/\libucosii_bsp.a(iproute.o)
                0x00000000008596d0                rtp_priority
 .data          0x00000000008596d9        0x0 ../candy_avb_sss_bsp/\libucosii_bsp.a(udp.o)
 .data          0x00000000008596d9        0x0 ../candy_avb_sss_bsp/\libucosii_bsp.a(igmp.o)
 .data          0x00000000008596d9        0x0 ../candy_avb_sss_bsp/\libucosii_bsp.a(igmp2.o)
 .data          0x00000000008596d9        0x0 ../candy_avb_sss_bsp/\libucosii_bsp.a(ipopt.o)
 .data          0x00000000008596d9        0x0 ../candy_avb_sss_bsp/\libucosii_bsp.a(u_mctest.o)
 .data          0x00000000008596d9        0x0 ../candy_avb_sss_bsp/\libucosii_bsp.a(dhcsetup.o)
 *fill*         0x00000000008596d9        0x3 
 .data          0x00000000008596dc       0xd4 ../candy_avb_sss_bsp/\libucosii_bsp.a(memdev.o)
                0x00000000008596dc                mdio
                0x0000000000859700                mdlist
 .data          0x00000000008597b0        0x0 ../candy_avb_sss_bsp/\libucosii_bsp.a(parseip.o)
 .data          0x00000000008597b0        0x0 ../candy_avb_sss_bsp/\libucosii_bsp.a(tcpcksum.o)
 .data          0x00000000008597b0        0x0 ../candy_avb_sss_bsp/\libucosii_bsp.a(in_pcb.o)
 .data          0x00000000008597b0       0x80 ../candy_avb_sss_bsp/\libucosii_bsp.a(vfsfiles.o)
                0x00000000008597b0                vfs_root_path
 .data          0x0000000000859830        0x0 ../candy_avb_sss_bsp/\libucosii_bsp.a(vfsport.o)
 .data          0x0000000000859830        0x0 ../candy_avb_sss_bsp/\libucosii_bsp.a(alt_exception_entry.o)
 .data          0x0000000000859830        0x0 ../candy_avb_sss_bsp/\libucosii_bsp.a(alt_fcntl.o)
 .data          0x0000000000859830        0x0 ../candy_avb_sss_bsp/\libucosii_bsp.a(alt_find_file.o)
 .data          0x0000000000859830        0x0 ../candy_avb_sss_bsp/\libucosii_bsp.a(alt_get_fd.o)
 .data          0x0000000000859830        0x0 ../candy_avb_sss_bsp/\libucosii_bsp.a(alt_instruction_exception_entry.o)
 .data          0x0000000000859830       0x18 ../candy_avb_sss_bsp/\libucosii_bsp.a(icmp.o)
 .data          0x0000000000859848        0x0 c:/intelfpga_lite/18.1/nios2eds/bin/gnu/h-x86_64-mingw32/bin/../lib/gcc/nios2-elf/5.3.0/../../../../../H-x86_64-mingw32/nios2-elf/lib\libc.a(lib_a-atexit.o)
 .data          0x0000000000859848        0x0 c:/intelfpga_lite/18.1/nios2eds/bin/gnu/h-x86_64-mingw32/bin/../lib/gcc/nios2-elf/5.3.0/../../../../../H-x86_64-mingw32/nios2-elf/lib\libc.a(lib_a-atoi.o)
 .data          0x0000000000859848        0x0 c:/intelfpga_lite/18.1/nios2eds/bin/gnu/h-x86_64-mingw32/bin/../lib/gcc/nios2-elf/5.3.0/../../../../../H-x86_64-mingw32/nios2-elf/lib\libc.a(lib_a-exit.o)
 .data          0x0000000000859848        0x0 c:/intelfpga_lite/18.1/nios2eds/bin/gnu/h-x86_64-mingw32/bin/../lib/gcc/nios2-elf/5.3.0/../../../../../H-x86_64-mingw32/nios2-elf/lib\libc.a(lib_a-getc.o)
 .data          0x0000000000859848        0x0 c:/intelfpga_lite/18.1/nios2eds/bin/gnu/h-x86_64-mingw32/bin/../lib/gcc/nios2-elf/5.3.0/../../../../../H-x86_64-mingw32/nios2-elf/lib\libc.a(lib_a-malign.o)
 .data          0x0000000000859848        0x0 c:/intelfpga_lite/18.1/nios2eds/bin/gnu/h-x86_64-mingw32/bin/../lib/gcc/nios2-elf/5.3.0/../../../../../H-x86_64-mingw32/nios2-elf/lib\libc.a(lib_a-malignr.o)
 .data          0x0000000000859848        0x0 c:/intelfpga_lite/18.1/nios2eds/bin/gnu/h-x86_64-mingw32/bin/../lib/gcc/nios2-elf/5.3.0/../../../../../H-x86_64-mingw32/nios2-elf/lib\libc.a(lib_a-memcmp.o)
 .data          0x0000000000859848        0x0 c:/intelfpga_lite/18.1/nios2eds/bin/gnu/h-x86_64-mingw32/bin/../lib/gcc/nios2-elf/5.3.0/../../../../../H-x86_64-mingw32/nios2-elf/lib\libc.a(lib_a-putchar.o)
 .data          0x0000000000859848        0x0 c:/intelfpga_lite/18.1/nios2eds/bin/gnu/h-x86_64-mingw32/bin/../lib/gcc/nios2-elf/5.3.0/../../../../../H-x86_64-mingw32/nios2-elf/lib\libc.a(lib_a-rget.o)
 .data          0x0000000000859848        0x0 c:/intelfpga_lite/18.1/nios2eds/bin/gnu/h-x86_64-mingw32/bin/../lib/gcc/nios2-elf/5.3.0/../../../../../H-x86_64-mingw32/nios2-elf/lib\libc.a(lib_a-strcpy.o)
 .data          0x0000000000859848        0x0 c:/intelfpga_lite/18.1/nios2eds/bin/gnu/h-x86_64-mingw32/bin/../lib/gcc/nios2-elf/5.3.0/../../../../../H-x86_64-mingw32/nios2-elf/lib\libc.a(lib_a-strncmp.o)
 .data          0x0000000000859848        0x0 c:/intelfpga_lite/18.1/nios2eds/bin/gnu/h-x86_64-mingw32/bin/../lib/gcc/nios2-elf/5.3.0/../../../../../H-x86_64-mingw32/nios2-elf/lib\libc.a(lib_a-strncpy.o)
 .data          0x0000000000859848        0x0 c:/intelfpga_lite/18.1/nios2eds/bin/gnu/h-x86_64-mingw32/bin/../lib/gcc/nios2-elf/5.3.0/../../../../../H-x86_64-mingw32/nios2-elf/lib\libc.a(lib_a-strtol.o)
 .data          0x0000000000859848        0x0 c:/intelfpga_lite/18.1/nios2eds/bin/gnu/h-x86_64-mingw32/bin/../lib/gcc/nios2-elf/5.3.0/../../../../../H-x86_64-mingw32/nios2-elf/lib\libc.a(lib_a-vprintf.o)
 .data          0x0000000000859848        0x0 c:/intelfpga_lite/18.1/nios2eds/bin/gnu/h-x86_64-mingw32/bin/../lib/gcc/nios2-elf/5.3.0/../../../../../H-x86_64-mingw32/nios2-elf/lib\libc.a(lib_a-vsprintf.o)
 .data          0x0000000000859848        0x0 c:/intelfpga_lite/18.1/nios2eds/bin/gnu/h-x86_64-mingw32/bin/../lib/gcc/nios2-elf/5.3.0/../../../../../H-x86_64-mingw32/nios2-elf/lib\libc.a(lib_a-__atexit.o)
 .data          0x0000000000859848        0x0 c:/intelfpga_lite/18.1/nios2eds/bin/gnu/h-x86_64-mingw32/bin/../lib/gcc/nios2-elf/5.3.0/../../../../../H-x86_64-mingw32/nios2-elf/lib\libc.a(lib_a-__call_atexit.o)
 .data          0x0000000000859848        0x0 c:/intelfpga_lite/18.1/nios2eds/bin/gnu/h-x86_64-mingw32/bin/../lib/gcc/nios2-elf/5.3.0/../../../../../H-x86_64-mingw32/nios2-elf/lib\libc.a(lib_a-ctype_.o)
 .data          0x0000000000859848        0x0 c:/intelfpga_lite/18.1/nios2eds/bin/gnu/h-x86_64-mingw32/bin/../lib/gcc/nios2-elf/5.3.0/../../../../../H-x86_64-mingw32/nios2-elf/lib\libc.a(lib_a-refill.o)
 .data          0x0000000000859848        0x0 c:/intelfpga_lite/18.1/nios2eds/bin/gnu/h-x86_64-mingw32/bin/../lib/gcc/nios2-elf/5.3.0/../../../../../H-x86_64-mingw32/nios2-elf/lib\libc.a(lib_a-vfprintfr_1.o)
 .data          0x0000000000859848        0x0 ../candy_avb_sss_bsp/\libucosii_bsp.a(alt_exit.o)
                0x0000000000861848                _gp = ABSOLUTE ((. + 0x8000))
                [!provide]                        PROVIDE (gp, _gp)
 *(.rwdata .rwdata.*)
 *(.sdata .sdata.* .gnu.linkonce.s.*)
 .sdata         0x0000000000859848       0x74 obj/default/iniche_init.o
                0x0000000000859848                NON_MODULO_RAM_Data_IC_1
                0x0000000000859850                R0_SAMPLE_RATE_SETTING_IC_1_Default
                0x0000000000859851                R2_CLKCTRLREGISTER_IC_1_Default
                0x0000000000859852                R3_PLLCRLREGISTER_IC_1_Default
                0x0000000000859858                R4_DELAY_IC_1_Default
                0x000000000085985a                R5_SERIAL_PORT_CONTROL_REGISTERS_IC_1_Default
                0x000000000085985c                R6_ALC_CONTROL_REGISTERS_IC_1_Default
                0x0000000000859860                R8_RECORD_INPUT_SIGNAL_PATH_REGISTERS_IC_1_Default
                0x0000000000859868                R9_ADC_CONTROL_REGISTERS_IC_1_Default
                0x000000000085986b                R12_DAC_CONTROL_REGISTERS_IC_1_Default
                0x000000000085986e                R13_SERIAL_PORT_PAD_CONTROL_REGISTERS_IC_1_Default
                0x000000000085986f                R14_COMMUNICATION_PORT_PAD_CONTROL_REGISTERS_IC_1_Default
                0x0000000000859871                R15_JACKREGISTER_IC_1_Default
                0x0000000000859872                R21_DSP_ENABLE_REGISTER_IC_1_Default
                0x0000000000859873                R22_CRC_REGISTERS_IC_1_Default
                0x0000000000859878                R24_NON_MODULO_REGISTERS_IC_1_Default
                0x000000000085987a                R25_WATCHDOG_REGISTERS_IC_1_Default
                0x000000000085987f                R26_SAMPLE_RATE_SETTING_IC_1_Default
                0x0000000000859880                R32_CLOCK_ENABLE_REGISTERS_IC_1_Default
                0x0000000000859882                R36_SAMPLE_RATE_SETTING_IC_1_Default
                0x0000000000859883                R37_DSP_RUN_REGISTER_IC_1_Default
                0x0000000000859884                R39_DEJITTER_REGISTER_CONTROL_IC_1_Default
                0x0000000000859885                NON_MODULO_RAM_Data_IC_2
                0x000000000085988d                R0_SAMPLE_RATE_SETTING_IC_2_Default
                0x000000000085988e                R2_CLKCTRLREGISTER_IC_2_Default
                0x000000000085988f                R3_PLLCRLREGISTER_IC_2_Default
                0x0000000000859895                R4_DELAY_IC_2_Default
                0x0000000000859897                R8_RECORD_INPUT_SIGNAL_PATH_REGISTERS_IC_2_Default
                0x000000000085989f                R9_ADC_CONTROL_REGISTERS_IC_2_Default
                0x00000000008598a2                R12_DAC_CONTROL_REGISTERS_IC_2_Default
                0x00000000008598a5                R13_SERIAL_PORT_PAD_CONTROL_REGISTERS_IC_2_Default
                0x00000000008598a6                R14_COMMUNICATION_PORT_PAD_CONTROL_REGISTERS_IC_2_Default
                0x00000000008598a8                R15_JACKREGISTER_IC_2_Default
                0x00000000008598a9                R21_DSP_ENABLE_REGISTER_IC_2_Default
                0x00000000008598aa                R22_CRC_REGISTERS_IC_2_Default
                0x00000000008598af                R24_NON_MODULO_REGISTERS_IC_2_Default
                0x00000000008598b1                R25_WATCHDOG_REGISTERS_IC_2_Default
                0x00000000008598b6                R26_SAMPLE_RATE_SETTING_IC_2_Default
                0x00000000008598b7                R32_CLOCK_ENABLE_REGISTERS_IC_2_Default
                0x00000000008598b9                R36_SAMPLE_RATE_SETTING_IC_2_Default
                0x00000000008598ba                R37_DSP_RUN_REGISTER_IC_2_Default
                0x00000000008598bb                R39_DEJITTER_REGISTER_CONTROL_IC_2_Default
 .sdata         0x00000000008598bc        0x8 obj/default/osc.o
 .sdata._global_impure_ptr
                0x00000000008598c4        0x4 c:/intelfpga_lite/18.1/nios2eds/bin/gnu/h-x86_64-mingw32/bin/../lib/gcc/nios2-elf/5.3.0/../../../../../H-x86_64-mingw32/nios2-elf/lib\libc.a(lib_a-impure.o)
                0x00000000008598c4                _global_impure_ptr
 .sdata._impure_ptr
                0x00000000008598c8        0x4 c:/intelfpga_lite/18.1/nios2eds/bin/gnu/h-x86_64-mingw32/bin/../lib/gcc/nios2-elf/5.3.0/../../../../../H-x86_64-mingw32/nios2-elf/lib\libc.a(lib_a-impure.o)
                0x00000000008598c8                _impure_ptr
 .sdata.__malloc_sbrk_base
                0x00000000008598cc        0x4 c:/intelfpga_lite/18.1/nios2eds/bin/gnu/h-x86_64-mingw32/bin/../lib/gcc/nios2-elf/5.3.0/../../../../../H-x86_64-mingw32/nios2-elf/lib\libc.a(lib_a-mallocr.o)
                0x00000000008598cc                __malloc_sbrk_base
 .sdata.__malloc_trim_threshold
                0x00000000008598d0        0x4 c:/intelfpga_lite/18.1/nios2eds/bin/gnu/h-x86_64-mingw32/bin/../lib/gcc/nios2-elf/5.3.0/../../../../../H-x86_64-mingw32/nios2-elf/lib\libc.a(lib_a-mallocr.o)
                0x00000000008598d0                __malloc_trim_threshold
 .sdata.__mb_cur_max
                0x00000000008598d4        0x4 c:/intelfpga_lite/18.1/nios2eds/bin/gnu/h-x86_64-mingw32/bin/../lib/gcc/nios2-elf/5.3.0/../../../../../H-x86_64-mingw32/nios2-elf/lib\libc.a(lib_a-locale.o)
                0x00000000008598d4                __mb_cur_max
 .sdata.__wctomb
                0x00000000008598d8        0x4 c:/intelfpga_lite/18.1/nios2eds/bin/gnu/h-x86_64-mingw32/bin/../lib/gcc/nios2-elf/5.3.0/../../../../../H-x86_64-mingw32/nios2-elf/lib\libc.a(lib_a-wctomb_r.o)
                0x00000000008598d8                __wctomb
 .sdata         0x00000000008598dc        0x4 ../candy_avb_sss_bsp/\libucosii_bsp.a(alt_sbrk.o)
 .sdata         0x00000000008598e0        0x4 ../candy_avb_sss_bsp/\libucosii_bsp.a(alt_env_lock.o)
 .sdata         0x00000000008598e4        0x4 ../candy_avb_sss_bsp/\libucosii_bsp.a(alt_malloc_lock.o)
 .sdata         0x00000000008598e8       0x72 ../candy_avb_sss_bsp/\libucosii_bsp.a(os_dbg.o)
                0x00000000008598e8                OSDebugEn
                0x00000000008598ec                OSEndiannessTest
                0x00000000008598f0                OSEventEn
                0x00000000008598f2                OSEventMax
                0x00000000008598f4                OSEventNameSize
                0x00000000008598f6                OSEventSize
                0x00000000008598f8                OSEventTblSize
                0x00000000008598fa                OSEventMultiEn
                0x00000000008598fc                OSFlagEn
                0x00000000008598fe                OSFlagGrpSize
                0x0000000000859900                OSFlagNodeSize
                0x0000000000859902                OSFlagWidth
                0x0000000000859904                OSFlagMax
                0x0000000000859906                OSFlagNameSize
                0x0000000000859908                OSLowestPrio
                0x000000000085990a                OSMboxEn
                0x000000000085990c                OSMemEn
                0x000000000085990e                OSMemMax
                0x0000000000859910                OSMemNameSize
                0x0000000000859912                OSMemSize
                0x0000000000859914                OSMemTblSize
                0x0000000000859916                OSMutexEn
                0x0000000000859918                OSPtrSize
                0x000000000085991a                OSQEn
                0x000000000085991c                OSQMax
                0x000000000085991e                OSQSize
                0x0000000000859920                OSRdyTblSize
                0x0000000000859922                OSSemEn
                0x0000000000859924                OSStkWidth
                0x0000000000859926                OSTaskCreateEn
                0x0000000000859928                OSTaskCreateExtEn
                0x000000000085992a                OSTaskDelEn
                0x000000000085992c                OSTaskIdleStkSize
                0x000000000085992e                OSTaskProfileEn
                0x0000000000859930                OSTaskMax
                0x0000000000859932                OSTaskNameSize
                0x0000000000859934                OSTaskStatEn
                0x0000000000859936                OSTaskStatStkSize
                0x0000000000859938                OSTaskStatStkChkEn
                0x000000000085993a                OSTaskSwHookEn
                0x000000000085993c                OSTCBPrioTblMax
                0x000000000085993e                OSTCBSize
                0x0000000000859940                OSTicksPerSec
                0x0000000000859942                OSTimeTickHookEn
                0x0000000000859944                OSVersionNbr
                0x0000000000859946                OSTmrEn
                0x0000000000859948                OSTmrCfgMax
                0x000000000085994a                OSTmrCfgNameSize
                0x000000000085994c                OSTmrCfgWheelSize
                0x000000000085994e                OSTmrCfgTicksPerSec
                0x0000000000859950                OSTmrSize
                0x0000000000859952                OSTmrTblSize
                0x0000000000859954                OSTmrWheelSize
                0x0000000000859956                OSTmrWheelTblSize
                0x0000000000859958                OSDataSize
 *fill*         0x000000000085995a        0x2 
 .sdata         0x000000000085995c        0x4 ../candy_avb_sss_bsp/\libucosii_bsp.a(alt_sys_init.o)
                0x000000000085995c                eth_tse_0_name
 .sdata         0x0000000000859960        0x8 ../candy_avb_sss_bsp/\libucosii_bsp.a(altera_modular_adc.o)
                0x0000000000859960                altera_modular_adc_list
 .sdata         0x0000000000859968        0x8 ../candy_avb_sss_bsp/\libucosii_bsp.a(altera_msgdma.o)
                0x0000000000859968                alt_msgdma_list
 .sdata         0x0000000000859970        0x8 ../candy_avb_sss_bsp/\libucosii_bsp.a(altera_onchip_flash.o)
                0x0000000000859970                altera_onchip_flash_list
 .sdata         0x0000000000859978        0x8 ../candy_avb_sss_bsp/\libucosii_bsp.a(alt_iniche_dev.o)
                0x0000000000859978                alt_iniche_dev_list
 .sdata         0x0000000000859980        0x4 ../candy_avb_sss_bsp/\libucosii_bsp.a(ipstart.o)
                0x0000000000859980                ipmcfail_str
 .sdata         0x0000000000859984        0x4 ../candy_avb_sss_bsp/\libucosii_bsp.a(cksum.o)
 .sdata         0x0000000000859988        0x4 ../candy_avb_sss_bsp/\libucosii_bsp.a(netmain.o)
                0x0000000000859988                num_net_tasks
 .sdata         0x000000000085998c        0xc ../candy_avb_sss_bsp/\libucosii_bsp.a(dhcpclnt.o)
                0x000000000085998c                xids
                0x0000000000859990                reqlist
                0x0000000000859994                reqlist_len
 .sdata         0x0000000000859998       0x10 ../candy_avb_sss_bsp/\libucosii_bsp.a(pktalloc.o)
                0x0000000000859998                lilbufs
                0x000000000085999c                lilbufsiz
                0x00000000008599a0                bigbufs
                0x00000000008599a4                bigbufsiz
 .sdata         0x00000000008599a8        0x4 ../candy_avb_sss_bsp/\libucosii_bsp.a(brdutils.o)
                0x00000000008599a8                kb_last
 .sdata         0x00000000008599ac        0x4 ../candy_avb_sss_bsp/\libucosii_bsp.a(nptcp.o)
                0x00000000008599ac                TCPTV_MSL
 .sdata         0x00000000008599b0        0x2 ../candy_avb_sss_bsp/\libucosii_bsp.a(socket.o)
                0x00000000008599b0                socket_defaults
 .sdata         0x00000000008599b2        0x1 ../candy_avb_sss_bsp/\libucosii_bsp.a(tcp_in.o)
                0x00000000008599b2                tcprexmtthresh
 *fill*         0x00000000008599b3        0x1 
 .sdata         0x00000000008599b4        0x4 ../candy_avb_sss_bsp/\libucosii_bsp.a(tcp_subr.o)
                0x00000000008599b4                tcp_ttl
 .sdata         0x00000000008599b8        0x8 ../candy_avb_sss_bsp/\libucosii_bsp.a(tcp_timr.o)
                0x00000000008599b8                tcp_keepidle
                0x00000000008599bc                tcp_keepintvl
 .sdata         0x00000000008599c0        0x8 ../candy_avb_sss_bsp/\libucosii_bsp.a(tcp_usr.o)
                0x00000000008599c0                tcp_sendspace
                0x00000000008599c4                tcp_recvspace
 .sdata         0x00000000008599c8       0x14 ../candy_avb_sss_bsp/\libucosii_bsp.a(alt_dev.o)
                0x00000000008599c8                alt_fs_list
                0x00000000008599d0                alt_dev_list
                0x00000000008599d8                alt_max_fd
 .sdata         0x00000000008599dc        0x4 ../candy_avb_sss_bsp/\libucosii_bsp.a(alt_errno.o)
                0x00000000008599dc                alt_errno
 .sdata         0x00000000008599e0        0x8 ../candy_avb_sss_bsp/\libucosii_bsp.a(alt_flash_dev.o)
                0x00000000008599e0                alt_flash_dev_list
 .sdata         0x00000000008599e8        0x4 ../candy_avb_sss_bsp/\libucosii_bsp.a(alt_irq_vars.o)
                0x00000000008599e8                alt_priority_mask
 .sdata         0x00000000008599ec        0x8 ../candy_avb_sss_bsp/\libucosii_bsp.a(alt_tick.o)
                0x00000000008599ec                alt_alarm_list
 .sdata         0x00000000008599f4        0x1 ../candy_avb_sss_bsp/\libucosii_bsp.a(altera_avalon_tse.o)
                0x00000000008599f4                max_mac_system
 *fill*         0x00000000008599f5        0x3 
 .sdata         0x00000000008599f8       0x10 ../candy_avb_sss_bsp/\libucosii_bsp.a(allports.o)
                0x00000000008599f8                name
                0x00000000008599fc                prompt
                0x0000000000859a00                pingdelay
                0x0000000000859a04                deflength
 .sdata         0x0000000000859a08        0x4 ../candy_avb_sss_bsp/\libucosii_bsp.a(et_arp.o)
                0x0000000000859a08                arp_ageout
 .sdata         0x0000000000859a0c        0x8 ../candy_avb_sss_bsp/\libucosii_bsp.a(ip.o)
                0x0000000000859a10                ipRoutes
 .sdata         0x0000000000859a14        0x4 ../candy_avb_sss_bsp/\libucosii_bsp.a(u_mctest.o)
 .sdata         0x0000000000859a18        0x4 ../candy_avb_sss_bsp/\libucosii_bsp.a(memdev.o)
                0x0000000000859a18                mdlist_size
 .sdata         0x0000000000859a1c        0x4 ../candy_avb_sss_bsp/\libucosii_bsp.a(parseip.o)
                0x0000000000859a1c                pton_error
 .sdata         0x0000000000859a20        0x4 ../candy_avb_sss_bsp/\libucosii_bsp.a(vfsfiles.o)
                0x0000000000859a20                http_root_path
 .sdata.__ctype_ptr__
                0x0000000000859a24        0x4 c:/intelfpga_lite/18.1/nios2eds/bin/gnu/h-x86_64-mingw32/bin/../lib/gcc/nios2-elf/5.3.0/../../../../../H-x86_64-mingw32/nios2-elf/lib\libc.a(lib_a-ctype_.o)
                0x0000000000859a24                __ctype_ptr__
 *(.sdata2 .sdata2.* .gnu.linkonce.s2.*)
                0x0000000000859a28                . = ALIGN (0x4)
                0x0000000000859a28                _edata = ABSOLUTE (.)
                [!provide]                        PROVIDE (edata, ABSOLUTE (.))
                [!provide]                        PROVIDE (__ram_rwdata_end, ABSOLUTE (.))
                [!provide]                        PROVIDE (__flash_rwdata_start, LOADADDR (.rwdata))

.bss            0x0000000000859a28     0xeedc
                0x0000000000859a28                __bss_start = ABSOLUTE (.)
                [!provide]                        PROVIDE (__sbss_start, ABSOLUTE (.))
                [!provide]                        PROVIDE (___sbss_start, ABSOLUTE (.))
 *(.dynsbss)
 *(.sbss .sbss.* .gnu.linkonce.sb.*)
 .sbss          0x0000000000859a28       0x22 obj/default/iniche_init.o
                0x0000000000859a28                R1_DSP_RUN_REGISTER_IC_1_Default
                0x0000000000859a29                R7_MICCTRLREGISTER_IC_1_Default
                0x0000000000859a2a                R11_CONVERTER_CONTROL_REGISTERS_IC_1_Default
                0x0000000000859a2c                R23_GPIO_REGISTERS_IC_1_Default
                0x0000000000859a30                R27_ROUTING_MATRIX_INPUTS_IC_1_Default
                0x0000000000859a31                R28_ROUTING_MATRIX_OUTPUTS_IC_1_Default
                0x0000000000859a32                R29_SERIAL_DATAGPIO_PIN_CONFIG_IC_1_Default
                0x0000000000859a33                R30_DSP_SLEW_MODES_IC_1_Default
                0x0000000000859a34                R31_SERIAL_PORT_SAMPLE_RATE_SETTING_IC_1_Default
                0x0000000000859a35                R38_DEJITTER_REGISTER_CONTROL_IC_1_Default
                0x0000000000859a36                R1_DSP_RUN_REGISTER_IC_2_Default
                0x0000000000859a37                R5_SERIAL_PORT_CONTROL_REGISTERS_IC_2_Default
                0x0000000000859a39                R6_ALC_CONTROL_REGISTERS_IC_2_Default
                0x0000000000859a3d                R7_MICCTRLREGISTER_IC_2_Default
                0x0000000000859a3e                R11_CONVERTER_CONTROL_REGISTERS_IC_2_Default
                0x0000000000859a40                R23_GPIO_REGISTERS_IC_2_Default
                0x0000000000859a44                R27_ROUTING_MATRIX_INPUTS_IC_2_Default
                0x0000000000859a45                R28_ROUTING_MATRIX_OUTPUTS_IC_2_Default
                0x0000000000859a46                R29_SERIAL_DATAGPIO_PIN_CONFIG_IC_2_Default
                0x0000000000859a47                R30_DSP_SLEW_MODES_IC_2_Default
                0x0000000000859a48                R31_SERIAL_PORT_SAMPLE_RATE_SETTING_IC_2_Default
                0x0000000000859a49                R38_DEJITTER_REGISTER_CONTROL_IC_2_Default
 .sbss          0x0000000000859a4a        0x1 obj/default/iniche_init.o
                0x0000000000859a4a                to_ssstask
 *fill*         0x0000000000859a4b        0x1 
 .sbss          0x0000000000859a4c       0x1b obj/default/osc.o
 *fill*         0x0000000000859a67        0x1 
 .sbss          0x0000000000859a68        0xc obj/default/osc_server.o
                0x0000000000859a68                SigmaDSPEventFlag
                0x0000000000859a6c                SigmaDSPCommandQ
                0x0000000000859a70                SigmaDSPCommunicateSem
 .sbss          0x0000000000859a74        0xc obj/default/sigmadsp.o
                0x0000000000859a74                adc
                0x0000000000859a7c                adc_busy
 .sbss.__malloc_max_total_mem
                0x0000000000859a80        0x4 c:/intelfpga_lite/18.1/nios2eds/bin/gnu/h-x86_64-mingw32/bin/../lib/gcc/nios2-elf/5.3.0/../../../../../H-x86_64-mingw32/nios2-elf/lib\libc.a(lib_a-mallocr.o)
                0x0000000000859a80                __malloc_max_total_mem
 .sbss.__malloc_max_sbrked_mem
                0x0000000000859a84        0x4 c:/intelfpga_lite/18.1/nios2eds/bin/gnu/h-x86_64-mingw32/bin/../lib/gcc/nios2-elf/5.3.0/../../../../../H-x86_64-mingw32/nios2-elf/lib\libc.a(lib_a-mallocr.o)
                0x0000000000859a84                __malloc_max_sbrked_mem
 .sbss.__malloc_top_pad
                0x0000000000859a88        0x4 c:/intelfpga_lite/18.1/nios2eds/bin/gnu/h-x86_64-mingw32/bin/../lib/gcc/nios2-elf/5.3.0/../../../../../H-x86_64-mingw32/nios2-elf/lib\libc.a(lib_a-mallocr.o)
                0x0000000000859a88                __malloc_top_pad
 .sbss          0x0000000000859a8c        0x4 c:/intelfpga_lite/18.1/nios2eds/bin/gnu/h-x86_64-mingw32/bin/../lib/gcc/nios2-elf/5.3.0/../../../../../H-x86_64-mingw32/nios2-elf/lib\libc.a(lib_a-int_errno.o)
                0x0000000000859a8c                errno
 .sbss._PathLocale
                0x0000000000859a90        0x4 c:/intelfpga_lite/18.1/nios2eds/bin/gnu/h-x86_64-mingw32/bin/../lib/gcc/nios2-elf/5.3.0/../../../../../H-x86_64-mingw32/nios2-elf/lib\libc.a(lib_a-locale.o)
                0x0000000000859a90                _PathLocale
 .sbss.__mlocale_changed
                0x0000000000859a94        0x4 c:/intelfpga_lite/18.1/nios2eds/bin/gnu/h-x86_64-mingw32/bin/../lib/gcc/nios2-elf/5.3.0/../../../../../H-x86_64-mingw32/nios2-elf/lib\libc.a(lib_a-locale.o)
                0x0000000000859a94                __mlocale_changed
 .sbss.__nlocale_changed
                0x0000000000859a98        0x4 c:/intelfpga_lite/18.1/nios2eds/bin/gnu/h-x86_64-mingw32/bin/../lib/gcc/nios2-elf/5.3.0/../../../../../H-x86_64-mingw32/nios2-elf/lib\libc.a(lib_a-locale.o)
                0x0000000000859a98                __nlocale_changed
 .sbss          0x0000000000859a9c        0xc ../candy_avb_sss_bsp/\libucosii_bsp.a(alt_main.o)
                0x0000000000859a9c                alt_argc
                0x0000000000859aa0                alt_argv
                0x0000000000859aa4                alt_envp
 .sbss          0x0000000000859aa8        0x8 ../candy_avb_sss_bsp/\libucosii_bsp.a(alt_env_lock.o)
                0x0000000000859aac                alt_envsem
 .sbss          0x0000000000859ab0        0x8 ../candy_avb_sss_bsp/\libucosii_bsp.a(alt_malloc_lock.o)
                0x0000000000859ab4                alt_heapsem
 .sbss          0x0000000000859ab8       0x50 ../candy_avb_sss_bsp/\libucosii_bsp.a(os_core.o)
                0x0000000000859ab8                OSLockNesting
                0x0000000000859ab9                OSRunning
                0x0000000000859abc                OSIdleCtr
                0x0000000000859ac0                OSPrioHighRdy
                0x0000000000859ac1                OSPrioCur
                0x0000000000859ac4                OSTCBList
                0x0000000000859ac8                OSTickStepState
                0x0000000000859acc                OSCtxSwCtr
                0x0000000000859ad0                OSIdleCtrMax
                0x0000000000859ad4                OSTCBFreeList
                0x0000000000859ad8                OSCPUUsage
                0x0000000000859ad9                OSTaskCtr
                0x0000000000859adc                OSMemFreeList
                0x0000000000859ae0                OSTCBHighRdy
                0x0000000000859ae4                OSQFreeList
                0x0000000000859ae8                OSRdyGrp
                0x0000000000859ae9                OSRdyTbl
                0x0000000000859aec                OSEventFreeList
                0x0000000000859af0                OSIntNesting
                0x0000000000859af4                OSTCBCur
                0x0000000000859af8                OSTime
                0x0000000000859afc                OSFlagFreeList
                0x0000000000859b00                OSStatRdy
                0x0000000000859b04                OSIdleCtrRun
 .sbss          0x0000000000859b08        0x1 ../candy_avb_sss_bsp/\libucosii_bsp.a(ins_tse_mac.o)
                0x0000000000859b08                number_of_tse_mac
 *fill*         0x0000000000859b09        0x3 
 .sbss          0x0000000000859b0c        0xc ../candy_avb_sss_bsp/\libucosii_bsp.a(ipnet.o)
                0x0000000000859b0c                MaxLnh
                0x0000000000859b10                MaxMtu
                0x0000000000859b14                NDEBUG
 .sbss          0x0000000000859b18        0x8 ../candy_avb_sss_bsp/\libucosii_bsp.a(ipstart.o)
                0x0000000000859b18                ifNumber
 .sbss          0x0000000000859b20       0x10 ../candy_avb_sss_bsp/\libucosii_bsp.a(igmp_cmn.o)
                0x0000000000859b20                igmp_timers_are_running
                0x0000000000859b24                igmp_cticks
                0x0000000000859b28                igmp_all_hosts_group
                0x0000000000859b2c                igmp_all_rtrs_group
 .sbss          0x0000000000859b30        0xe ../candy_avb_sss_bsp/\libucosii_bsp.a(netmain.o)
                0x0000000000859b30                netmain_wakes
                0x0000000000859b34                nettick_wakes
                0x0000000000859b38                iniche_net_ready
                0x0000000000859b3c                to_netmain
                0x0000000000859b3d                to_nettick
 *fill*         0x0000000000859b3e        0x2 
 .sbss          0x0000000000859b40        0x4 ../candy_avb_sss_bsp/\libucosii_bsp.a(tk_crnos.o)
                0x0000000000859b40                tcp_sleep_timeout
 .sbss          0x0000000000859b44       0x34 ../candy_avb_sss_bsp/\libucosii_bsp.a(dhcpclnt.o)
                0x0000000000859b44                dhc_conn
                0x0000000000859b48                dsc_errors
                0x0000000000859b4c                dsc_discovers
                0x0000000000859b50                dsc_offers
                0x0000000000859b54                dsc_requests
                0x0000000000859b58                dsc_acks
                0x0000000000859b5c                dsc_bpreplys
                0x0000000000859b60                dsc_declines
                0x0000000000859b64                dsc_releases
                0x0000000000859b68                dsc_naks
                0x0000000000859b6c                dsc_renew
                0x0000000000859b70                dsc_rebind
                0x0000000000859b74                dsc_rlyerrs
 .sbss          0x0000000000859b78        0x4 ../candy_avb_sss_bsp/\libucosii_bsp.a(udp_open.o)
                0x0000000000859b78                firstudp
 .sbss          0x0000000000859b7c       0x18 ../candy_avb_sss_bsp/\libucosii_bsp.a(brdutils.o)
                0x0000000000859b7c                cticks_initialized
                0x0000000000859b80                irq_level
                0x0000000000859b8c                cticks_factor
                0x0000000000859b90                OS_TPS
 .sbss          0x0000000000859b94       0x18 ../candy_avb_sss_bsp/\libucosii_bsp.a(osportco.o)
                0x0000000000859b94                tcp_sleep_count
                0x0000000000859b98                tcp_wakeup_count
                0x0000000000859b9c                netq_intmask
                0x0000000000859ba0                old_mode
                0x0000000000859ba4                global_TCPwakeup_setIndx
                0x0000000000859ba8                cticks
 .sbss          0x0000000000859bac        0xc ../candy_avb_sss_bsp/\libucosii_bsp.a(targnios.o)
                0x0000000000859bac                memtrapsize
                0x0000000000859bb0                mheap_sem_ptr
                0x0000000000859bb4                rcvdq_sem_ptr
 .sbss          0x0000000000859bb8       0x12 ../candy_avb_sss_bsp/\libucosii_bsp.a(nptcp.o)
                0x0000000000859bb8                nextslow
                0x0000000000859bc0                mbstat
                0x0000000000859bc8                select_wait
 *fill*         0x0000000000859bca        0x2 
 .sbss          0x0000000000859bcc        0x8 ../candy_avb_sss_bsp/\libucosii_bsp.a(tcp_in.o)
                0x0000000000859bcc                tcpprintfs
                0x0000000000859bd0                dropline
 .sbss          0x0000000000859bd4        0x4 ../candy_avb_sss_bsp/\libucosii_bsp.a(tcp_out.o)
                0x0000000000859bd4                tcp_optionbuf
 .sbss          0x0000000000859bd8        0x8 ../candy_avb_sss_bsp/\libucosii_bsp.a(tcp_timr.o)
                0x0000000000859bd8                tcp_maxidle
                0x0000000000859bdc                tcp_iss
 .sbss          0x0000000000859be0        0x4 ../candy_avb_sss_bsp/\libucosii_bsp.a(alt_dev.o)
                0x0000000000859be0                alt_fd_list_lock
 .sbss          0x0000000000859be4        0x4 ../candy_avb_sss_bsp/\libucosii_bsp.a(alt_irq_vars.o)
                0x0000000000859be4                alt_irq_active
 .sbss          0x0000000000859be8        0x8 ../candy_avb_sss_bsp/\libucosii_bsp.a(alt_tick.o)
                0x0000000000859be8                _alt_tick_rate
                0x0000000000859bec                _alt_nticks
 .sbss          0x0000000000859bf0        0x4 ../candy_avb_sss_bsp/\libucosii_bsp.a(altera_avalon_tse.o)
                0x0000000000859bf0                phy_profile_count
                0x0000000000859bf1                mac_group_count
 .sbss          0x0000000000859bf4        0x8 ../candy_avb_sss_bsp/\libucosii_bsp.a(allports.o)
                0x0000000000859bf4                activehost
 .sbss          0x0000000000859bfc        0xc ../candy_avb_sss_bsp/\libucosii_bsp.a(timeouts.o)
                0x0000000000859bfc                nextppp
                0x0000000000859c00                port_1s_callout
 .sbss          0x0000000000859c08       0x1c ../candy_avb_sss_bsp/\libucosii_bsp.a(et_arp.o)
                0x0000000000859c0c                arpcache
                0x0000000000859c14                arpReqsIn
                0x0000000000859c18                arpReqsOut
                0x0000000000859c1c                arpRepsIn
                0x0000000000859c20                arpRepsOut
 .sbss          0x0000000000859c24        0x4 ../candy_avb_sss_bsp/\libucosii_bsp.a(ip.o)
                0x0000000000859c24                rt_mib
 .sbss          0x0000000000859c28        0xc ../candy_avb_sss_bsp/\libucosii_bsp.a(ip_reasm.o)
                0x0000000000859c28                ipr_curr_mem
                0x0000000000859c2c                h_ireq
                0x0000000000859c30                ire_cticks
 .sbss          0x0000000000859c34       0x11 ../candy_avb_sss_bsp/\libucosii_bsp.a(ipport.o)
                0x0000000000859c34                port_prep
                0x0000000000859c38                net_system_exit
                0x0000000000859c3c                so_evtmap_create
                0x0000000000859c40                so_evtmap_delete
                0x0000000000859c44                so_evtmap
 *fill*         0x0000000000859c45        0x3 
 .sbss          0x0000000000859c48        0x4 ../candy_avb_sss_bsp/\libucosii_bsp.a(ipraw.o)
                0x0000000000859c48                ipraw_eps
 .sbss          0x0000000000859c4c        0x4 ../candy_avb_sss_bsp/\libucosii_bsp.a(iproute.o)
                0x0000000000859c4c                cachedRoute
 .sbss          0x0000000000859c50        0x2 ../candy_avb_sss_bsp/\libucosii_bsp.a(udp.o)
 *fill*         0x0000000000859c52        0x2 
 .sbss          0x0000000000859c54        0x8 ../candy_avb_sss_bsp/\libucosii_bsp.a(in_pcb.o)
                0x0000000000859c54                inpcb_cachehits
                0x0000000000859c58                inpcb_cachemiss
 .sbss          0x0000000000859c5c       0x20 ../candy_avb_sss_bsp/\libucosii_bsp.a(vfsfiles.o)
                0x0000000000859c5c                vfsystems
                0x0000000000859c60                vfiles
                0x0000000000859c64                vfsfiles
                0x0000000000859c68                vfopen_error
                0x0000000000859c6c                vfs_dir_stale
                0x0000000000859c70                vfs_open_files
                0x0000000000859c74                vfs_total_rw_space
                0x0000000000859c78                vfs_total_dyna_files
 .sbss          0x0000000000859c7c        0x4 ../candy_avb_sss_bsp/\libucosii_bsp.a(alt_instruction_exception_entry.o)
                0x0000000000859c7c                alt_instruction_exception_handler
 .sbss          0x0000000000859c80        0x4 ../candy_avb_sss_bsp/\libucosii_bsp.a(icmp.o)
                0x0000000000859c80                icmpdu_hook
 *(.sbss2 .sbss2.* .gnu.linkonce.sb2.*)
 *(.scommon)
                [!provide]                        PROVIDE (__sbss_end, ABSOLUTE (.))
                [!provide]                        PROVIDE (___sbss_end, ABSOLUTE (.))
 *(.dynbss)
 *(.bss .bss.* .gnu.linkonce.b.*)
 .bss           0x0000000000859c84        0x0 ../candy_avb_sss_bsp//obj/HAL/src/crt0.o
 .bss           0x0000000000859c84     0x1402 obj/default/SigmaStudioFW.o
                0x0000000000859c84                i2c_write_data
 .bss           0x000000000085b086        0x0 obj/default/alt_error_handler.o
 .bss           0x000000000085b086        0x0 obj/default/iniche_init.o
 .bss           0x000000000085b086        0x0 obj/default/network_utilities.o
 .bss           0x000000000085b086     0x3468 obj/default/osc.o
 .bss           0x000000000085e4ee        0x0 obj/default/osc_server.o
 .bss           0x000000000085e4ee        0x0 obj/default/sigmadsp.o
 .bss           0x000000000085e4ee        0x0 obj/default/tse_my_system.o
 .bss           0x000000000085e4ee        0x0 c:/intelfpga_lite/18.1/nios2eds/bin/gnu/h-x86_64-mingw32/bin/../lib/gcc/nios2-elf/5.3.0\libgcc.a(_floatdisf.o)
 .bss           0x000000000085e4ee        0x0 c:/intelfpga_lite/18.1/nios2eds/bin/gnu/h-x86_64-mingw32/bin/../lib/gcc/nios2-elf/5.3.0\libgcc.a(addsf3.o)
 .bss           0x000000000085e4ee        0x0 c:/intelfpga_lite/18.1/nios2eds/bin/gnu/h-x86_64-mingw32/bin/../lib/gcc/nios2-elf/5.3.0\libgcc.a(mulsf3.o)
 .bss           0x000000000085e4ee        0x0 c:/intelfpga_lite/18.1/nios2eds/bin/gnu/h-x86_64-mingw32/bin/../lib/gcc/nios2-elf/5.3.0\libgcc.a(fixsfsi.o)
 .bss           0x000000000085e4ee        0x0 c:/intelfpga_lite/18.1/nios2eds/bin/gnu/h-x86_64-mingw32/bin/../lib/gcc/nios2-elf/5.3.0\libgcc.a(floatsisf.o)
 .bss           0x000000000085e4ee        0x0 c:/intelfpga_lite/18.1/nios2eds/bin/gnu/h-x86_64-mingw32/bin/../lib/gcc/nios2-elf/5.3.0\libgcc.a(adddf3.o)
 .bss           0x000000000085e4ee        0x0 c:/intelfpga_lite/18.1/nios2eds/bin/gnu/h-x86_64-mingw32/bin/../lib/gcc/nios2-elf/5.3.0\libgcc.a(divdf3.o)
 .bss           0x000000000085e4ee        0x0 c:/intelfpga_lite/18.1/nios2eds/bin/gnu/h-x86_64-mingw32/bin/../lib/gcc/nios2-elf/5.3.0\libgcc.a(muldf3.o)
 .bss           0x000000000085e4ee        0x0 c:/intelfpga_lite/18.1/nios2eds/bin/gnu/h-x86_64-mingw32/bin/../lib/gcc/nios2-elf/5.3.0\libgcc.a(floatsidf.o)
 .bss           0x000000000085e4ee        0x0 c:/intelfpga_lite/18.1/nios2eds/bin/gnu/h-x86_64-mingw32/bin/../lib/gcc/nios2-elf/5.3.0\libgcc.a(floatunsidf.o)
 .bss           0x000000000085e4ee        0x0 c:/intelfpga_lite/18.1/nios2eds/bin/gnu/h-x86_64-mingw32/bin/../lib/gcc/nios2-elf/5.3.0\libgcc.a(extendsfdf2.o)
 .bss           0x000000000085e4ee        0x0 c:/intelfpga_lite/18.1/nios2eds/bin/gnu/h-x86_64-mingw32/bin/../lib/gcc/nios2-elf/5.3.0\libgcc.a(truncdfsf2.o)
 .bss           0x000000000085e4ee        0x0 c:/intelfpga_lite/18.1/nios2eds/bin/gnu/h-x86_64-mingw32/bin/../lib/gcc/nios2-elf/5.3.0\libgcc.a(_clzsi2.o)
 .bss           0x000000000085e4ee        0x0 c:/intelfpga_lite/18.1/nios2eds/bin/gnu/h-x86_64-mingw32/bin/../lib/gcc/nios2-elf/5.3.0\libgcc.a(lib2-divmod.o)
 .bss           0x000000000085e4ee        0x0 c:/intelfpga_lite/18.1/nios2eds/bin/gnu/h-x86_64-mingw32/bin/../lib/gcc/nios2-elf/5.3.0\libgcc.a(_clz.o)
 .bss           0x000000000085e4ee        0x0 c:/intelfpga_lite/18.1/nios2eds/bin/gnu/h-x86_64-mingw32/bin/../lib/gcc/nios2-elf/5.3.0/../../../../../H-x86_64-mingw32/nios2-elf/lib\libc.a(lib_a-calloc.o)
 .bss           0x000000000085e4ee        0x0 c:/intelfpga_lite/18.1/nios2eds/bin/gnu/h-x86_64-mingw32/bin/../lib/gcc/nios2-elf/5.3.0/../../../../../H-x86_64-mingw32/nios2-elf/lib\libc.a(lib_a-callocr.o)
 .bss           0x000000000085e4ee        0x0 c:/intelfpga_lite/18.1/nios2eds/bin/gnu/h-x86_64-mingw32/bin/../lib/gcc/nios2-elf/5.3.0/../../../../../H-x86_64-mingw32/nios2-elf/lib\libc.a(lib_a-fprintf.o)
 .bss           0x000000000085e4ee        0x0 c:/intelfpga_lite/18.1/nios2eds/bin/gnu/h-x86_64-mingw32/bin/../lib/gcc/nios2-elf/5.3.0/../../../../../H-x86_64-mingw32/nios2-elf/lib\libc.a(lib_a-fwrite.o)
 .bss           0x000000000085e4ee        0x0 c:/intelfpga_lite/18.1/nios2eds/bin/gnu/h-x86_64-mingw32/bin/../lib/gcc/nios2-elf/5.3.0/../../../../../H-x86_64-mingw32/nios2-elf/lib\libc.a(lib_a-impure.o)
 .bss           0x000000000085e4ee        0x0 c:/intelfpga_lite/18.1/nios2eds/bin/gnu/h-x86_64-mingw32/bin/../lib/gcc/nios2-elf/5.3.0/../../../../../H-x86_64-mingw32/nios2-elf/lib\libc.a(lib_a-malloc.o)
 .bss           0x000000000085e4ee        0x0 c:/intelfpga_lite/18.1/nios2eds/bin/gnu/h-x86_64-mingw32/bin/../lib/gcc/nios2-elf/5.3.0/../../../../../H-x86_64-mingw32/nios2-elf/lib\libc.a(lib_a-mallocr.o)
 *fill*         0x000000000085e4ee        0x2 
 .bss.__malloc_current_mallinfo
                0x000000000085e4f0       0x28 c:/intelfpga_lite/18.1/nios2eds/bin/gnu/h-x86_64-mingw32/bin/../lib/gcc/nios2-elf/5.3.0/../../../../../H-x86_64-mingw32/nios2-elf/lib\libc.a(lib_a-mallocr.o)
                0x000000000085e4f0                __malloc_current_mallinfo
 .bss           0x000000000085e518        0x0 c:/intelfpga_lite/18.1/nios2eds/bin/gnu/h-x86_64-mingw32/bin/../lib/gcc/nios2-elf/5.3.0/../../../../../H-x86_64-mingw32/nios2-elf/lib\libc.a(lib_a-memcpy.o)
 .bss           0x000000000085e518        0x0 c:/intelfpga_lite/18.1/nios2eds/bin/gnu/h-x86_64-mingw32/bin/../lib/gcc/nios2-elf/5.3.0/../../../../../H-x86_64-mingw32/nios2-elf/lib\libc.a(lib_a-memset.o)
 .bss           0x000000000085e518        0x0 c:/intelfpga_lite/18.1/nios2eds/bin/gnu/h-x86_64-mingw32/bin/../lib/gcc/nios2-elf/5.3.0/../../../../../H-x86_64-mingw32/nios2-elf/lib\libc.a(lib_a-perror.o)
 .bss           0x000000000085e518        0x0 c:/intelfpga_lite/18.1/nios2eds/bin/gnu/h-x86_64-mingw32/bin/../lib/gcc/nios2-elf/5.3.0/../../../../../H-x86_64-mingw32/nios2-elf/lib\libc.a(lib_a-printf.o)
 .bss           0x000000000085e518        0x0 c:/intelfpga_lite/18.1/nios2eds/bin/gnu/h-x86_64-mingw32/bin/../lib/gcc/nios2-elf/5.3.0/../../../../../H-x86_64-mingw32/nios2-elf/lib\libc.a(lib_a-puts.o)
 .bss           0x000000000085e518        0x0 c:/intelfpga_lite/18.1/nios2eds/bin/gnu/h-x86_64-mingw32/bin/../lib/gcc/nios2-elf/5.3.0/../../../../../H-x86_64-mingw32/nios2-elf/lib\libc.a(lib_a-sbrkr.o)
 .bss           0x000000000085e518        0x0 c:/intelfpga_lite/18.1/nios2eds/bin/gnu/h-x86_64-mingw32/bin/../lib/gcc/nios2-elf/5.3.0/../../../../../H-x86_64-mingw32/nios2-elf/lib\libc.a(lib_a-sprintf.o)
 .bss           0x000000000085e518        0x0 c:/intelfpga_lite/18.1/nios2eds/bin/gnu/h-x86_64-mingw32/bin/../lib/gcc/nios2-elf/5.3.0/../../../../../H-x86_64-mingw32/nios2-elf/lib\libc.a(lib_a-strchr.o)
 .bss           0x000000000085e518        0x0 c:/intelfpga_lite/18.1/nios2eds/bin/gnu/h-x86_64-mingw32/bin/../lib/gcc/nios2-elf/5.3.0/../../../../../H-x86_64-mingw32/nios2-elf/lib\libc.a(lib_a-strcmp.o)
 .bss           0x000000000085e518        0x0 c:/intelfpga_lite/18.1/nios2eds/bin/gnu/h-x86_64-mingw32/bin/../lib/gcc/nios2-elf/5.3.0/../../../../../H-x86_64-mingw32/nios2-elf/lib\libc.a(lib_a-strerror.o)
 .bss           0x000000000085e518        0x0 c:/intelfpga_lite/18.1/nios2eds/bin/gnu/h-x86_64-mingw32/bin/../lib/gcc/nios2-elf/5.3.0/../../../../../H-x86_64-mingw32/nios2-elf/lib\libc.a(lib_a-strlen.o)
 .bss           0x000000000085e518        0x0 c:/intelfpga_lite/18.1/nios2eds/bin/gnu/h-x86_64-mingw32/bin/../lib/gcc/nios2-elf/5.3.0/../../../../../H-x86_64-mingw32/nios2-elf/lib\libc.a(lib_a-svfprintf.o)
 .bss           0x000000000085e518        0x0 c:/intelfpga_lite/18.1/nios2eds/bin/gnu/h-x86_64-mingw32/bin/../lib/gcc/nios2-elf/5.3.0/../../../../../H-x86_64-mingw32/nios2-elf/lib\libc.a(lib_a-u_strerr.o)
 .bss           0x000000000085e518        0x0 c:/intelfpga_lite/18.1/nios2eds/bin/gnu/h-x86_64-mingw32/bin/../lib/gcc/nios2-elf/5.3.0/../../../../../H-x86_64-mingw32/nios2-elf/lib\libc.a(lib_a-vfprintf.o)
 .bss           0x000000000085e518        0x0 c:/intelfpga_lite/18.1/nios2eds/bin/gnu/h-x86_64-mingw32/bin/../lib/gcc/nios2-elf/5.3.0/../../../../../H-x86_64-mingw32/nios2-elf/lib\libc.a(lib_a-wsetup.o)
 .bss           0x000000000085e518        0x0 c:/intelfpga_lite/18.1/nios2eds/bin/gnu/h-x86_64-mingw32/bin/../lib/gcc/nios2-elf/5.3.0/../../../../../H-x86_64-mingw32/nios2-elf/lib\libc.a(lib_a-dtoa.o)
 .bss           0x000000000085e518        0x0 c:/intelfpga_lite/18.1/nios2eds/bin/gnu/h-x86_64-mingw32/bin/../lib/gcc/nios2-elf/5.3.0/../../../../../H-x86_64-mingw32/nios2-elf/lib\libc.a(lib_a-fflush.o)
 .bss           0x000000000085e518        0x0 c:/intelfpga_lite/18.1/nios2eds/bin/gnu/h-x86_64-mingw32/bin/../lib/gcc/nios2-elf/5.3.0/../../../../../H-x86_64-mingw32/nios2-elf/lib\libc.a(lib_a-findfp.o)
 .bss           0x000000000085e518        0x0 c:/intelfpga_lite/18.1/nios2eds/bin/gnu/h-x86_64-mingw32/bin/../lib/gcc/nios2-elf/5.3.0/../../../../../H-x86_64-mingw32/nios2-elf/lib\libc.a(lib_a-fputc.o)
 .bss           0x000000000085e518        0x0 c:/intelfpga_lite/18.1/nios2eds/bin/gnu/h-x86_64-mingw32/bin/../lib/gcc/nios2-elf/5.3.0/../../../../../H-x86_64-mingw32/nios2-elf/lib\libc.a(lib_a-fputs.o)
 .bss           0x000000000085e518        0x0 c:/intelfpga_lite/18.1/nios2eds/bin/gnu/h-x86_64-mingw32/bin/../lib/gcc/nios2-elf/5.3.0/../../../../../H-x86_64-mingw32/nios2-elf/lib\libc.a(lib_a-freer.o)
 .bss           0x000000000085e518        0x0 c:/intelfpga_lite/18.1/nios2eds/bin/gnu/h-x86_64-mingw32/bin/../lib/gcc/nios2-elf/5.3.0/../../../../../H-x86_64-mingw32/nios2-elf/lib\libc.a(lib_a-fvwrite.o)
 .bss           0x000000000085e518        0x0 c:/intelfpga_lite/18.1/nios2eds/bin/gnu/h-x86_64-mingw32/bin/../lib/gcc/nios2-elf/5.3.0/../../../../../H-x86_64-mingw32/nios2-elf/lib\libc.a(lib_a-fwalk.o)
 .bss           0x000000000085e518        0x0 c:/intelfpga_lite/18.1/nios2eds/bin/gnu/h-x86_64-mingw32/bin/../lib/gcc/nios2-elf/5.3.0/../../../../../H-x86_64-mingw32/nios2-elf/lib\libc.a(lib_a-int_errno.o)
 .bss           0x000000000085e518        0x0 c:/intelfpga_lite/18.1/nios2eds/bin/gnu/h-x86_64-mingw32/bin/../lib/gcc/nios2-elf/5.3.0/../../../../../H-x86_64-mingw32/nios2-elf/lib\libc.a(lib_a-locale.o)
 .bss           0x000000000085e518        0x0 c:/intelfpga_lite/18.1/nios2eds/bin/gnu/h-x86_64-mingw32/bin/../lib/gcc/nios2-elf/5.3.0/../../../../../H-x86_64-mingw32/nios2-elf/lib\libc.a(lib_a-makebuf.o)
 .bss           0x000000000085e518        0x0 c:/intelfpga_lite/18.1/nios2eds/bin/gnu/h-x86_64-mingw32/bin/../lib/gcc/nios2-elf/5.3.0/../../../../../H-x86_64-mingw32/nios2-elf/lib\libc.a(lib_a-memchr.o)
 .bss           0x000000000085e518        0x0 c:/intelfpga_lite/18.1/nios2eds/bin/gnu/h-x86_64-mingw32/bin/../lib/gcc/nios2-elf/5.3.0/../../../../../H-x86_64-mingw32/nios2-elf/lib\libc.a(lib_a-memmove.o)
 .bss           0x000000000085e518        0x0 c:/intelfpga_lite/18.1/nios2eds/bin/gnu/h-x86_64-mingw32/bin/../lib/gcc/nios2-elf/5.3.0/../../../../../H-x86_64-mingw32/nios2-elf/lib\libc.a(lib_a-mprec.o)
 .bss           0x000000000085e518        0x0 c:/intelfpga_lite/18.1/nios2eds/bin/gnu/h-x86_64-mingw32/bin/../lib/gcc/nios2-elf/5.3.0/../../../../../H-x86_64-mingw32/nios2-elf/lib\libc.a(lib_a-putc.o)
 .bss           0x000000000085e518        0x0 c:/intelfpga_lite/18.1/nios2eds/bin/gnu/h-x86_64-mingw32/bin/../lib/gcc/nios2-elf/5.3.0/../../../../../H-x86_64-mingw32/nios2-elf/lib\libc.a(lib_a-reallocr.o)
 .bss           0x000000000085e518        0x0 c:/intelfpga_lite/18.1/nios2eds/bin/gnu/h-x86_64-mingw32/bin/../lib/gcc/nios2-elf/5.3.0/../../../../../H-x86_64-mingw32/nios2-elf/lib\libc.a(lib_a-s_fpclassify.o)
 .bss           0x000000000085e518        0x0 c:/intelfpga_lite/18.1/nios2eds/bin/gnu/h-x86_64-mingw32/bin/../lib/gcc/nios2-elf/5.3.0/../../../../../H-x86_64-mingw32/nios2-elf/lib\libc.a(lib_a-stdio.o)
 .bss           0x000000000085e518        0x0 c:/intelfpga_lite/18.1/nios2eds/bin/gnu/h-x86_64-mingw32/bin/../lib/gcc/nios2-elf/5.3.0/../../../../../H-x86_64-mingw32/nios2-elf/lib\libc.a(lib_a-svfiprintf.o)
 .bss           0x000000000085e518        0x0 c:/intelfpga_lite/18.1/nios2eds/bin/gnu/h-x86_64-mingw32/bin/../lib/gcc/nios2-elf/5.3.0/../../../../../H-x86_64-mingw32/nios2-elf/lib\libc.a(lib_a-vfiprintf.o)
 .bss           0x000000000085e518        0x0 c:/intelfpga_lite/18.1/nios2eds/bin/gnu/h-x86_64-mingw32/bin/../lib/gcc/nios2-elf/5.3.0/../../../../../H-x86_64-mingw32/nios2-elf/lib\libc.a(lib_a-wbuf.o)
 .bss           0x000000000085e518        0x0 c:/intelfpga_lite/18.1/nios2eds/bin/gnu/h-x86_64-mingw32/bin/../lib/gcc/nios2-elf/5.3.0/../../../../../H-x86_64-mingw32/nios2-elf/lib\libc.a(lib_a-writer.o)
 .bss           0x000000000085e518        0x0 c:/intelfpga_lite/18.1/nios2eds/bin/gnu/h-x86_64-mingw32/bin/../lib/gcc/nios2-elf/5.3.0/../../../../../H-x86_64-mingw32/nios2-elf/lib\libc.a(closer.o)
 .bss           0x000000000085e518        0x0 c:/intelfpga_lite/18.1/nios2eds/bin/gnu/h-x86_64-mingw32/bin/../lib/gcc/nios2-elf/5.3.0/../../../../../H-x86_64-mingw32/nios2-elf/lib\libc.a(lib_a-fclose.o)
 .bss           0x000000000085e518        0x0 c:/intelfpga_lite/18.1/nios2eds/bin/gnu/h-x86_64-mingw32/bin/../lib/gcc/nios2-elf/5.3.0/../../../../../H-x86_64-mingw32/nios2-elf/lib\libc.a(lib_a-fputwc.o)
 .bss           0x000000000085e518        0x0 c:/intelfpga_lite/18.1/nios2eds/bin/gnu/h-x86_64-mingw32/bin/../lib/gcc/nios2-elf/5.3.0/../../../../../H-x86_64-mingw32/nios2-elf/lib\libc.a(lib_a-fstatr.o)
 .bss           0x000000000085e518        0x0 c:/intelfpga_lite/18.1/nios2eds/bin/gnu/h-x86_64-mingw32/bin/../lib/gcc/nios2-elf/5.3.0/../../../../../H-x86_64-mingw32/nios2-elf/lib\libc.a(lib_a-isattyr.o)
 .bss           0x000000000085e518        0x0 c:/intelfpga_lite/18.1/nios2eds/bin/gnu/h-x86_64-mingw32/bin/../lib/gcc/nios2-elf/5.3.0/../../../../../H-x86_64-mingw32/nios2-elf/lib\libc.a(lib_a-lseekr.o)
 .bss           0x000000000085e518        0x0 c:/intelfpga_lite/18.1/nios2eds/bin/gnu/h-x86_64-mingw32/bin/../lib/gcc/nios2-elf/5.3.0/../../../../../H-x86_64-mingw32/nios2-elf/lib\libc.a(lib_a-readr.o)
 .bss           0x000000000085e518        0x0 c:/intelfpga_lite/18.1/nios2eds/bin/gnu/h-x86_64-mingw32/bin/../lib/gcc/nios2-elf/5.3.0/../../../../../H-x86_64-mingw32/nios2-elf/lib\libc.a(lib_a-wcrtomb.o)
 .bss           0x000000000085e518        0x0 c:/intelfpga_lite/18.1/nios2eds/bin/gnu/h-x86_64-mingw32/bin/../lib/gcc/nios2-elf/5.3.0/../../../../../H-x86_64-mingw32/nios2-elf/lib\libc.a(lib_a-wctomb_r.o)
 .bss           0x000000000085e518        0x0 c:/intelfpga_lite/18.1/nios2eds/bin/gnu/h-x86_64-mingw32/bin/../lib/gcc/nios2-elf/5.3.0\libgcc.a(_udivdi3.o)
 .bss           0x000000000085e518        0x0 c:/intelfpga_lite/18.1/nios2eds/bin/gnu/h-x86_64-mingw32/bin/../lib/gcc/nios2-elf/5.3.0\libgcc.a(_umoddi3.o)
 .bss           0x000000000085e518        0x0 c:/intelfpga_lite/18.1/nios2eds/bin/gnu/h-x86_64-mingw32/bin/../lib/gcc/nios2-elf/5.3.0\libgcc.a(eqdf2.o)
 .bss           0x000000000085e518        0x0 c:/intelfpga_lite/18.1/nios2eds/bin/gnu/h-x86_64-mingw32/bin/../lib/gcc/nios2-elf/5.3.0\libgcc.a(gedf2.o)
 .bss           0x000000000085e518        0x0 c:/intelfpga_lite/18.1/nios2eds/bin/gnu/h-x86_64-mingw32/bin/../lib/gcc/nios2-elf/5.3.0\libgcc.a(ledf2.o)
 .bss           0x000000000085e518        0x0 c:/intelfpga_lite/18.1/nios2eds/bin/gnu/h-x86_64-mingw32/bin/../lib/gcc/nios2-elf/5.3.0\libgcc.a(subdf3.o)
 .bss           0x000000000085e518        0x0 c:/intelfpga_lite/18.1/nios2eds/bin/gnu/h-x86_64-mingw32/bin/../lib/gcc/nios2-elf/5.3.0\libgcc.a(fixdfsi.o)
 .bss           0x000000000085e518        0x0 ../candy_avb_sss_bsp/\libucosii_bsp.a(alt_fstat.o)
 .bss           0x000000000085e518        0x0 ../candy_avb_sss_bsp/\libucosii_bsp.a(alt_isatty.o)
 .bss           0x000000000085e518        0x0 ../candy_avb_sss_bsp/\libucosii_bsp.a(alt_lseek.o)
 .bss           0x000000000085e518        0x0 ../candy_avb_sss_bsp/\libucosii_bsp.a(alt_main.o)
 .bss           0x000000000085e518        0x0 ../candy_avb_sss_bsp/\libucosii_bsp.a(alt_sbrk.o)
 .bss           0x000000000085e518        0x0 ../candy_avb_sss_bsp/\libucosii_bsp.a(alt_usleep.o)
 .bss           0x000000000085e518        0x0 ../candy_avb_sss_bsp/\libucosii_bsp.a(alt_env_lock.o)
 .bss           0x000000000085e518        0x0 ../candy_avb_sss_bsp/\libucosii_bsp.a(alt_malloc_lock.o)
 .bss           0x000000000085e518        0x0 ../candy_avb_sss_bsp/\libucosii_bsp.a(os_core.o)
 .bss           0x000000000085e518        0x0 ../candy_avb_sss_bsp/\libucosii_bsp.a(os_dbg.o)
 .bss           0x000000000085e518        0x0 ../candy_avb_sss_bsp/\libucosii_bsp.a(os_flag.o)
 .bss           0x000000000085e518        0x0 ../candy_avb_sss_bsp/\libucosii_bsp.a(os_mem.o)
 .bss           0x000000000085e518        0x0 ../candy_avb_sss_bsp/\libucosii_bsp.a(os_q.o)
 .bss           0x000000000085e518        0x0 ../candy_avb_sss_bsp/\libucosii_bsp.a(os_sem.o)
 .bss           0x000000000085e518        0x0 ../candy_avb_sss_bsp/\libucosii_bsp.a(os_task.o)
 .bss           0x000000000085e518        0x0 ../candy_avb_sss_bsp/\libucosii_bsp.a(os_time.o)
 .bss           0x000000000085e518        0x0 ../candy_avb_sss_bsp/\libucosii_bsp.a(alt_sys_init.o)
 .bss           0x000000000085e518        0x0 ../candy_avb_sss_bsp/\libucosii_bsp.a(altera_avalon_jtag_uart_fd.o)
 .bss           0x000000000085e518        0x0 ../candy_avb_sss_bsp/\libucosii_bsp.a(altera_avalon_jtag_uart_init.o)
 .bss           0x000000000085e518        0x0 ../candy_avb_sss_bsp/\libucosii_bsp.a(altera_avalon_jtag_uart_ioctl.o)
 .bss           0x000000000085e518        0x0 ../candy_avb_sss_bsp/\libucosii_bsp.a(altera_avalon_jtag_uart_read.o)
 .bss           0x000000000085e518        0x0 ../candy_avb_sss_bsp/\libucosii_bsp.a(altera_avalon_jtag_uart_write.o)
 .bss           0x000000000085e518        0x0 ../candy_avb_sss_bsp/\libucosii_bsp.a(altera_avalon_timer_sc.o)
 .bss           0x000000000085e518        0x0 ../candy_avb_sss_bsp/\libucosii_bsp.a(altera_avalon_uart_fd.o)
 .bss           0x000000000085e518        0x0 ../candy_avb_sss_bsp/\libucosii_bsp.a(altera_avalon_uart_init.o)
 .bss           0x000000000085e518        0x0 ../candy_avb_sss_bsp/\libucosii_bsp.a(altera_avalon_uart_read.o)
 .bss           0x000000000085e518        0x0 ../candy_avb_sss_bsp/\libucosii_bsp.a(altera_avalon_uart_write.o)
 .bss           0x000000000085e518        0x0 ../candy_avb_sss_bsp/\libucosii_bsp.a(altera_modular_adc.o)
 .bss           0x000000000085e518        0x0 ../candy_avb_sss_bsp/\libucosii_bsp.a(altera_msgdma.o)
 .bss           0x000000000085e518        0x0 ../candy_avb_sss_bsp/\libucosii_bsp.a(altera_onchip_flash.o)
 .bss           0x000000000085e518        0x0 ../candy_avb_sss_bsp/\libucosii_bsp.a(ins_tse_mac.o)
 .bss           0x000000000085e518        0x0 ../candy_avb_sss_bsp/\libucosii_bsp.a(alt_iniche_close.o)
 .bss           0x000000000085e518        0x0 ../candy_avb_sss_bsp/\libucosii_bsp.a(alt_iniche_dev.o)
 .bss           0x000000000085e518        0x0 ../candy_avb_sss_bsp/\libucosii_bsp.a(alt_iniche_read.o)
 .bss           0x000000000085e518        0x0 ../candy_avb_sss_bsp/\libucosii_bsp.a(alt_iniche_write.o)
 .bss           0x000000000085e518        0x0 ../candy_avb_sss_bsp/\libucosii_bsp.a(ipnet.o)
 .bss           0x000000000085e518       0x3c ../candy_avb_sss_bsp/\libucosii_bsp.a(ipstart.o)
 .bss           0x000000000085e554        0x0 ../candy_avb_sss_bsp/\libucosii_bsp.a(igmp_cmn.o)
 .bss           0x000000000085e554        0x0 ../candy_avb_sss_bsp/\libucosii_bsp.a(bsdsock.o)
 .bss           0x000000000085e554        0x0 ../candy_avb_sss_bsp/\libucosii_bsp.a(cksum.o)
 .bss           0x000000000085e554       0x18 ../candy_avb_sss_bsp/\libucosii_bsp.a(in_utils.o)
 .bss           0x000000000085e56c        0x0 ../candy_avb_sss_bsp/\libucosii_bsp.a(netmain.o)
 .bss           0x000000000085e56c        0x0 ../candy_avb_sss_bsp/\libucosii_bsp.a(tk_crnos.o)
 .bss           0x000000000085e56c        0x0 ../candy_avb_sss_bsp/\libucosii_bsp.a(dhcpclnt.o)
 .bss           0x000000000085e56c        0x0 ../candy_avb_sss_bsp/\libucosii_bsp.a(dhcputil.o)
 .bss           0x000000000085e56c        0x0 ../candy_avb_sss_bsp/\libucosii_bsp.a(pktalloc.o)
 .bss           0x000000000085e56c        0x0 ../candy_avb_sss_bsp/\libucosii_bsp.a(q.o)
 .bss           0x000000000085e56c        0x0 ../candy_avb_sss_bsp/\libucosii_bsp.a(udp_open.o)
 .bss           0x000000000085e56c        0x0 ../candy_avb_sss_bsp/\libucosii_bsp.a(asm_cksum.o)
 .bss           0x000000000085e56c        0x0 ../candy_avb_sss_bsp/\libucosii_bsp.a(brdutils.o)
 .bss           0x000000000085e56c        0x0 ../candy_avb_sss_bsp/\libucosii_bsp.a(osportco.o)
 .bss           0x000000000085e56c        0x0 ../candy_avb_sss_bsp/\libucosii_bsp.a(targnios.o)
 .bss           0x000000000085e56c        0x0 ../candy_avb_sss_bsp/\libucosii_bsp.a(nptcp.o)
 .bss           0x000000000085e56c        0x0 ../candy_avb_sss_bsp/\libucosii_bsp.a(rawsock.o)
 .bss           0x000000000085e56c        0x0 ../candy_avb_sss_bsp/\libucosii_bsp.a(sockcall.o)
 .bss           0x000000000085e56c        0x0 ../candy_avb_sss_bsp/\libucosii_bsp.a(socket.o)
 .bss           0x000000000085e56c        0x0 ../candy_avb_sss_bsp/\libucosii_bsp.a(socket2.o)
 .bss           0x000000000085e56c        0x0 ../candy_avb_sss_bsp/\libucosii_bsp.a(soselect.o)
 .bss           0x000000000085e56c        0x0 ../candy_avb_sss_bsp/\libucosii_bsp.a(tcp_in.o)
 .bss           0x000000000085e56c        0x0 ../candy_avb_sss_bsp/\libucosii_bsp.a(tcp_out.o)
 .bss           0x000000000085e56c        0x0 ../candy_avb_sss_bsp/\libucosii_bsp.a(tcp_subr.o)
 .bss           0x000000000085e56c        0x0 ../candy_avb_sss_bsp/\libucosii_bsp.a(tcp_timr.o)
 .bss           0x000000000085e56c        0x0 ../candy_avb_sss_bsp/\libucosii_bsp.a(tcp_usr.o)
 .bss           0x000000000085e56c        0x0 ../candy_avb_sss_bsp/\libucosii_bsp.a(tcpport.o)
 .bss           0x000000000085e56c        0x0 ../candy_avb_sss_bsp/\libucosii_bsp.a(udpsock.o)
 .bss           0x000000000085e56c        0x0 ../candy_avb_sss_bsp/\libucosii_bsp.a(alt_alarm_start.o)
 .bss           0x000000000085e56c        0x0 ../candy_avb_sss_bsp/\libucosii_bsp.a(alt_busy_sleep.o)
 .bss           0x000000000085e56c        0x0 ../candy_avb_sss_bsp/\libucosii_bsp.a(alt_close.o)
 .bss           0x000000000085e56c        0x0 ../candy_avb_sss_bsp/\libucosii_bsp.a(alt_dcache_flush.o)
 .bss           0x000000000085e56c        0x0 ../candy_avb_sss_bsp/\libucosii_bsp.a(alt_dev.o)
 .bss           0x000000000085e56c        0x0 ../candy_avb_sss_bsp/\libucosii_bsp.a(alt_dev_llist_insert.o)
 .bss           0x000000000085e56c        0x0 ../candy_avb_sss_bsp/\libucosii_bsp.a(alt_do_ctors.o)
 .bss           0x000000000085e56c        0x0 ../candy_avb_sss_bsp/\libucosii_bsp.a(alt_do_dtors.o)
 .bss           0x000000000085e56c        0x0 ../candy_avb_sss_bsp/\libucosii_bsp.a(alt_errno.o)
 .bss           0x000000000085e56c        0x0 ../candy_avb_sss_bsp/\libucosii_bsp.a(alt_find_dev.o)
 .bss           0x000000000085e56c        0x0 ../candy_avb_sss_bsp/\libucosii_bsp.a(alt_flash_dev.o)
 .bss           0x000000000085e56c        0x0 ../candy_avb_sss_bsp/\libucosii_bsp.a(alt_iic.o)
 .bss           0x000000000085e56c        0x0 ../candy_avb_sss_bsp/\libucosii_bsp.a(alt_iic_isr_register.o)
 .bss           0x000000000085e56c        0x0 ../candy_avb_sss_bsp/\libucosii_bsp.a(alt_io_redirect.o)
 .bss           0x000000000085e56c        0x0 ../candy_avb_sss_bsp/\libucosii_bsp.a(alt_irq_entry.o)
 .bss           0x000000000085e56c        0x0 ../candy_avb_sss_bsp/\libucosii_bsp.a(alt_irq_handler.o)
 .bss           0x000000000085e56c        0x0 ../candy_avb_sss_bsp/\libucosii_bsp.a(alt_irq_vars.o)
 .bss           0x000000000085e56c        0x0 ../candy_avb_sss_bsp/\libucosii_bsp.a(alt_open.o)
 .bss           0x000000000085e56c        0x0 ../candy_avb_sss_bsp/\libucosii_bsp.a(alt_printf.o)
 .bss           0x000000000085e56c        0x0 ../candy_avb_sss_bsp/\libucosii_bsp.a(alt_putchar.o)
 .bss           0x000000000085e56c        0x0 ../candy_avb_sss_bsp/\libucosii_bsp.a(alt_read.o)
 .bss           0x000000000085e56c        0x0 ../candy_avb_sss_bsp/\libucosii_bsp.a(alt_release_fd.o)
 .bss           0x000000000085e56c        0x0 ../candy_avb_sss_bsp/\libucosii_bsp.a(alt_remap_cached.o)
 .bss           0x000000000085e56c        0x0 ../candy_avb_sss_bsp/\libucosii_bsp.a(alt_tick.o)
 .bss           0x000000000085e56c        0x0 ../candy_avb_sss_bsp/\libucosii_bsp.a(alt_uncached_free.o)
 .bss           0x000000000085e56c        0x0 ../candy_avb_sss_bsp/\libucosii_bsp.a(alt_uncached_malloc.o)
 .bss           0x000000000085e56c        0x0 ../candy_avb_sss_bsp/\libucosii_bsp.a(alt_write.o)
 .bss           0x000000000085e56c        0x0 ../candy_avb_sss_bsp/\libucosii_bsp.a(altera_nios2_gen2_irq.o)
 .bss           0x000000000085e56c        0x0 ../candy_avb_sss_bsp/\libucosii_bsp.a(os_cpu_a.o)
 .bss           0x000000000085e56c        0x0 ../candy_avb_sss_bsp/\libucosii_bsp.a(os_cpu_c.o)
 .bss           0x000000000085e56c        0x0 ../candy_avb_sss_bsp/\libucosii_bsp.a(altera_avalon_tse.o)
 .bss           0x000000000085e56c        0x0 ../candy_avb_sss_bsp/\libucosii_bsp.a(allports.o)
 .bss           0x000000000085e56c        0x0 ../candy_avb_sss_bsp/\libucosii_bsp.a(timeouts.o)
 .bss           0x000000000085e56c        0x0 ../candy_avb_sss_bsp/\libucosii_bsp.a(tk_misc.o)
 .bss           0x000000000085e56c        0x0 ../candy_avb_sss_bsp/\libucosii_bsp.a(alt_iniche_fcntl.o)
 .bss           0x000000000085e56c        0x0 ../candy_avb_sss_bsp/\libucosii_bsp.a(et_arp.o)
 .bss           0x000000000085e56c        0x0 ../candy_avb_sss_bsp/\libucosii_bsp.a(iface.o)
 .bss           0x000000000085e56c        0x0 ../candy_avb_sss_bsp/\libucosii_bsp.a(ip.o)
 .bss           0x000000000085e56c        0x0 ../candy_avb_sss_bsp/\libucosii_bsp.a(ip_reasm.o)
 .bss           0x000000000085e56c        0x0 ../candy_avb_sss_bsp/\libucosii_bsp.a(ipdemux.o)
 .bss           0x000000000085e56c        0x0 ../candy_avb_sss_bsp/\libucosii_bsp.a(ipmc.o)
 .bss           0x000000000085e56c        0x0 ../candy_avb_sss_bsp/\libucosii_bsp.a(ipport.o)
 .bss           0x000000000085e56c        0x0 ../candy_avb_sss_bsp/\libucosii_bsp.a(ipraw.o)
 .bss           0x000000000085e56c        0x0 ../candy_avb_sss_bsp/\libucosii_bsp.a(iproute.o)
 .bss           0x000000000085e56c        0x0 ../candy_avb_sss_bsp/\libucosii_bsp.a(udp.o)
 .bss           0x000000000085e56c        0x0 ../candy_avb_sss_bsp/\libucosii_bsp.a(igmp.o)
 .bss           0x000000000085e56c        0x0 ../candy_avb_sss_bsp/\libucosii_bsp.a(igmp2.o)
 .bss           0x000000000085e56c        0x0 ../candy_avb_sss_bsp/\libucosii_bsp.a(ipopt.o)
 .bss           0x000000000085e56c        0x0 ../candy_avb_sss_bsp/\libucosii_bsp.a(u_mctest.o)
 .bss           0x000000000085e56c        0x0 ../candy_avb_sss_bsp/\libucosii_bsp.a(dhcsetup.o)
 .bss           0x000000000085e56c        0x0 ../candy_avb_sss_bsp/\libucosii_bsp.a(memdev.o)
 .bss           0x000000000085e56c       0x1e ../candy_avb_sss_bsp/\libucosii_bsp.a(parseip.o)
 .bss           0x000000000085e58a        0x0 ../candy_avb_sss_bsp/\libucosii_bsp.a(tcpcksum.o)
 .bss           0x000000000085e58a        0x0 ../candy_avb_sss_bsp/\libucosii_bsp.a(in_pcb.o)
 .bss           0x000000000085e58a        0x0 ../candy_avb_sss_bsp/\libucosii_bsp.a(vfsfiles.o)
 .bss           0x000000000085e58a        0x0 ../candy_avb_sss_bsp/\libucosii_bsp.a(vfsport.o)
 .bss           0x000000000085e58a        0x0 ../candy_avb_sss_bsp/\libucosii_bsp.a(alt_exception_entry.o)
 .bss           0x000000000085e58a        0x0 ../candy_avb_sss_bsp/\libucosii_bsp.a(alt_fcntl.o)
 .bss           0x000000000085e58a        0x0 ../candy_avb_sss_bsp/\libucosii_bsp.a(alt_find_file.o)
 .bss           0x000000000085e58a        0x0 ../candy_avb_sss_bsp/\libucosii_bsp.a(alt_get_fd.o)
 .bss           0x000000000085e58a        0x0 ../candy_avb_sss_bsp/\libucosii_bsp.a(alt_instruction_exception_entry.o)
 .bss           0x000000000085e58a        0x0 ../candy_avb_sss_bsp/\libucosii_bsp.a(icmp.o)
 .bss           0x000000000085e58a        0x0 c:/intelfpga_lite/18.1/nios2eds/bin/gnu/h-x86_64-mingw32/bin/../lib/gcc/nios2-elf/5.3.0/../../../../../H-x86_64-mingw32/nios2-elf/lib\libc.a(lib_a-atexit.o)
 .bss           0x000000000085e58a        0x0 c:/intelfpga_lite/18.1/nios2eds/bin/gnu/h-x86_64-mingw32/bin/../lib/gcc/nios2-elf/5.3.0/../../../../../H-x86_64-mingw32/nios2-elf/lib\libc.a(lib_a-atoi.o)
 .bss           0x000000000085e58a        0x0 c:/intelfpga_lite/18.1/nios2eds/bin/gnu/h-x86_64-mingw32/bin/../lib/gcc/nios2-elf/5.3.0/../../../../../H-x86_64-mingw32/nios2-elf/lib\libc.a(lib_a-exit.o)
 .bss           0x000000000085e58a        0x0 c:/intelfpga_lite/18.1/nios2eds/bin/gnu/h-x86_64-mingw32/bin/../lib/gcc/nios2-elf/5.3.0/../../../../../H-x86_64-mingw32/nios2-elf/lib\libc.a(lib_a-getc.o)
 .bss           0x000000000085e58a        0x0 c:/intelfpga_lite/18.1/nios2eds/bin/gnu/h-x86_64-mingw32/bin/../lib/gcc/nios2-elf/5.3.0/../../../../../H-x86_64-mingw32/nios2-elf/lib\libc.a(lib_a-malign.o)
 .bss           0x000000000085e58a        0x0 c:/intelfpga_lite/18.1/nios2eds/bin/gnu/h-x86_64-mingw32/bin/../lib/gcc/nios2-elf/5.3.0/../../../../../H-x86_64-mingw32/nios2-elf/lib\libc.a(lib_a-malignr.o)
 .bss           0x000000000085e58a        0x0 c:/intelfpga_lite/18.1/nios2eds/bin/gnu/h-x86_64-mingw32/bin/../lib/gcc/nios2-elf/5.3.0/../../../../../H-x86_64-mingw32/nios2-elf/lib\libc.a(lib_a-memcmp.o)
 .bss           0x000000000085e58a        0x0 c:/intelfpga_lite/18.1/nios2eds/bin/gnu/h-x86_64-mingw32/bin/../lib/gcc/nios2-elf/5.3.0/../../../../../H-x86_64-mingw32/nios2-elf/lib\libc.a(lib_a-putchar.o)
 .bss           0x000000000085e58a        0x0 c:/intelfpga_lite/18.1/nios2eds/bin/gnu/h-x86_64-mingw32/bin/../lib/gcc/nios2-elf/5.3.0/../../../../../H-x86_64-mingw32/nios2-elf/lib\libc.a(lib_a-rget.o)
 .bss           0x000000000085e58a        0x0 c:/intelfpga_lite/18.1/nios2eds/bin/gnu/h-x86_64-mingw32/bin/../lib/gcc/nios2-elf/5.3.0/../../../../../H-x86_64-mingw32/nios2-elf/lib\libc.a(lib_a-strcpy.o)
 .bss           0x000000000085e58a        0x0 c:/intelfpga_lite/18.1/nios2eds/bin/gnu/h-x86_64-mingw32/bin/../lib/gcc/nios2-elf/5.3.0/../../../../../H-x86_64-mingw32/nios2-elf/lib\libc.a(lib_a-strncmp.o)
 .bss           0x000000000085e58a        0x0 c:/intelfpga_lite/18.1/nios2eds/bin/gnu/h-x86_64-mingw32/bin/../lib/gcc/nios2-elf/5.3.0/../../../../../H-x86_64-mingw32/nios2-elf/lib\libc.a(lib_a-strncpy.o)
 .bss           0x000000000085e58a        0x0 c:/intelfpga_lite/18.1/nios2eds/bin/gnu/h-x86_64-mingw32/bin/../lib/gcc/nios2-elf/5.3.0/../../../../../H-x86_64-mingw32/nios2-elf/lib\libc.a(lib_a-strtol.o)
 .bss           0x000000000085e58a        0x0 c:/intelfpga_lite/18.1/nios2eds/bin/gnu/h-x86_64-mingw32/bin/../lib/gcc/nios2-elf/5.3.0/../../../../../H-x86_64-mingw32/nios2-elf/lib\libc.a(lib_a-vprintf.o)
 .bss           0x000000000085e58a        0x0 c:/intelfpga_lite/18.1/nios2eds/bin/gnu/h-x86_64-mingw32/bin/../lib/gcc/nios2-elf/5.3.0/../../../../../H-x86_64-mingw32/nios2-elf/lib\libc.a(lib_a-vsprintf.o)
 .bss           0x000000000085e58a        0x0 c:/intelfpga_lite/18.1/nios2eds/bin/gnu/h-x86_64-mingw32/bin/../lib/gcc/nios2-elf/5.3.0/../../../../../H-x86_64-mingw32/nios2-elf/lib\libc.a(lib_a-__atexit.o)
 .bss           0x000000000085e58a        0x0 c:/intelfpga_lite/18.1/nios2eds/bin/gnu/h-x86_64-mingw32/bin/../lib/gcc/nios2-elf/5.3.0/../../../../../H-x86_64-mingw32/nios2-elf/lib\libc.a(lib_a-__call_atexit.o)
 .bss           0x000000000085e58a        0x0 c:/intelfpga_lite/18.1/nios2eds/bin/gnu/h-x86_64-mingw32/bin/../lib/gcc/nios2-elf/5.3.0/../../../../../H-x86_64-mingw32/nios2-elf/lib\libc.a(lib_a-ctype_.o)
 .bss           0x000000000085e58a        0x0 c:/intelfpga_lite/18.1/nios2eds/bin/gnu/h-x86_64-mingw32/bin/../lib/gcc/nios2-elf/5.3.0/../../../../../H-x86_64-mingw32/nios2-elf/lib\libc.a(lib_a-refill.o)
 .bss           0x000000000085e58a        0x0 c:/intelfpga_lite/18.1/nios2eds/bin/gnu/h-x86_64-mingw32/bin/../lib/gcc/nios2-elf/5.3.0/../../../../../H-x86_64-mingw32/nios2-elf/lib\libc.a(lib_a-vfprintfr_1.o)
 .bss           0x000000000085e58a        0x0 ../candy_avb_sss_bsp/\libucosii_bsp.a(alt_exit.o)
 *(COMMON)
 *fill*         0x000000000085e58a        0x2 
 COMMON         0x000000000085e58c     0x2000 obj/default/iniche_init.o
                0x000000000085e58c                SSSInitialTaskStk
 COMMON         0x000000000086058c     0x4078 obj/default/osc_server.o
                0x000000000086058c                SigmaDSPCommunicateTaskStk
                0x000000000086258c                SigmaDSPManagementTaskStk
                0x000000000086458c                SigmaDSPCommandQTbl
 COMMON         0x0000000000864604     0x3224 ../candy_avb_sss_bsp/\libucosii_bsp.a(os_core.o)
                0x0000000000864604                OSFlagTbl
                0x0000000000864974                OSMemTbl
                0x00000000008655a4                OSTaskStatStk
                0x0000000000865da4                OSQTbl
                0x0000000000865f84                OSTaskIdleStk
                0x0000000000866784                OSEventTbl
                0x00000000008672c4                OSTCBTbl
                0x00000000008677d4                OSTCBPrioTbl
 COMMON         0x0000000000867828       0xe0 ../candy_avb_sss_bsp/\libucosii_bsp.a(alt_sys_init.o)
                0x0000000000867828                eth_tse_0_if
 COMMON         0x0000000000867908      0x2c0 ../candy_avb_sss_bsp/\libucosii_bsp.a(ins_tse_mac.o)
                0x0000000000867908                tse_iniche_dev_driver_data
                0x0000000000867938                tse
 COMMON         0x0000000000867bc8       0x14 ../candy_avb_sss_bsp/\libucosii_bsp.a(ipnet.o)
                0x0000000000867bc8                rcvdq
 COMMON         0x0000000000867bdc      0x310 ../candy_avb_sss_bsp/\libucosii_bsp.a(ipstart.o)
                0x0000000000867bdc                netstatic
                0x0000000000867edc                nets
 COMMON         0x0000000000867eec       0x64 ../candy_avb_sss_bsp/\libucosii_bsp.a(igmp_cmn.o)
                0x0000000000867eec                igmpstats
 COMMON         0x0000000000867f50       0x24 ../candy_avb_sss_bsp/\libucosii_bsp.a(in_utils.o)
                0x0000000000867f50                eth_prt_buf
                0x0000000000867f62                ipreturn
 COMMON         0x0000000000867f74       0xf0 ../candy_avb_sss_bsp/\libucosii_bsp.a(dhcpclnt.o)
                0x0000000000867f74                dhc_states
 COMMON         0x0000000000868064      0x128 ../candy_avb_sss_bsp/\libucosii_bsp.a(pktalloc.o)
                0x0000000000868064                lilfreeq
                0x0000000000868078                memestats
                0x0000000000868088                pktlog
                0x0000000000868178                bigfreeq
 COMMON         0x000000000086818c      0x1ec ../candy_avb_sss_bsp/\libucosii_bsp.a(osportco.o)
                0x000000000086818c                global_tcb_ext
                0x0000000000868288                global_TCPwakeup_set
 COMMON         0x0000000000868378       0x58 ../candy_avb_sss_bsp/\libucosii_bsp.a(targnios.o)
                0x0000000000868378                resid_semaphore
                0x00000000008683b8                app_semaphore
 COMMON         0x00000000008683d0       0x78 ../candy_avb_sss_bsp/\libucosii_bsp.a(nptcp.o)
                0x00000000008683d0                soq
                0x00000000008683e4                tcpmib
                0x0000000000868420                mbufq
                0x0000000000868434                mfreeq
 COMMON         0x0000000000868448       0x28 ../candy_avb_sss_bsp/\libucosii_bsp.a(tcp_in.o)
                0x0000000000868448                tcp_saveti
 COMMON         0x0000000000868470      0x10c ../candy_avb_sss_bsp/\libucosii_bsp.a(tcp_subr.o)
                0x0000000000868470                tcb
                0x000000000086849c                tcpstat
 COMMON         0x000000000086857c      0x100 ../candy_avb_sss_bsp/\libucosii_bsp.a(alt_irq_handler.o)
                0x000000000086857c                alt_irq
 COMMON         0x000000000086867c       0x30 ../candy_avb_sss_bsp/\libucosii_bsp.a(altera_avalon_tse.o)
                0x000000000086867c                pmac_groups
                0x000000000086868c                pphy_profiles
 COMMON         0x00000000008686ac       0x64 ../candy_avb_sss_bsp/\libucosii_bsp.a(timeouts.o)
                0x00000000008686ac                intimers
 COMMON         0x0000000000868710      0x100 ../candy_avb_sss_bsp/\libucosii_bsp.a(et_arp.o)
                0x0000000000868710                arp_table
 COMMON         0x0000000000868810       0x14 ../candy_avb_sss_bsp/\libucosii_bsp.a(iface.o)
                0x0000000000868810                netlist
 COMMON         0x0000000000868824       0x50 ../candy_avb_sss_bsp/\libucosii_bsp.a(ip.o)
                0x0000000000868824                ip_mib
 COMMON         0x0000000000868874       0x18 ../candy_avb_sss_bsp/\libucosii_bsp.a(ip_reasm.o)
                0x0000000000868874                ire_stats
 COMMON         0x000000000086888c       0x10 ../candy_avb_sss_bsp/\libucosii_bsp.a(udp.o)
                0x000000000086888c                udp_mib
 COMMON         0x000000000086889c       0x68 ../candy_avb_sss_bsp/\libucosii_bsp.a(icmp.o)
                0x000000000086889c                icmp_mib
                0x0000000000868904                . = ALIGN (0x4)
                0x0000000000868904                __bss_end = ABSOLUTE (.)

.new_sdram_controller_0
                0x0000000000868904        0x0
                [!provide]                        PROVIDE (_alt_partition_new_sdram_controller_0_start, ABSOLUTE (.))
 *(.new_sdram_controller_0 .new_sdram_controller_0. new_sdram_controller_0.*)
                0x0000000000868904                . = ALIGN (0x4)
                [!provide]                        PROVIDE (_alt_partition_new_sdram_controller_0_end, ABSOLUTE (.))
                0x0000000000868904                _end = ABSOLUTE (.)
                0x0000000000868904                end = ABSOLUTE (.)
                0x0000000000868904                __alt_stack_base = ABSOLUTE (.)
                [!provide]                        PROVIDE (_alt_partition_new_sdram_controller_0_load_addr, LOADADDR (.new_sdram_controller_0))

.onchip_flash_0_data
                0x0000000001100020        0x0
                [!provide]                        PROVIDE (_alt_partition_onchip_flash_0_data_start, ABSOLUTE (.))
 *(.onchip_flash_0_data .onchip_flash_0_data. onchip_flash_0_data.*)
                0x0000000001100020                . = ALIGN (0x4)
                [!provide]                        PROVIDE (_alt_partition_onchip_flash_0_data_end, ABSOLUTE (.))
                [!provide]                        PROVIDE (_alt_partition_onchip_flash_0_data_load_addr, LOADADDR (.onchip_flash_0_data))

.descriptor_memory
                0x0000000001200000        0x0
                [!provide]                        PROVIDE (_alt_partition_descriptor_memory_start, ABSOLUTE (.))
 *(.descriptor_memory .descriptor_memory. descriptor_memory.*)
                0x0000000001200000                . = ALIGN (0x4)
                [!provide]                        PROVIDE (_alt_partition_descriptor_memory_end, ABSOLUTE (.))
                [!provide]                        PROVIDE (_alt_partition_descriptor_memory_load_addr, LOADADDR (.descriptor_memory))

.stab
 *(.stab)

.stabstr
 *(.stabstr)

.stab.excl
 *(.stab.excl)

.stab.exclstr
 *(.stab.exclstr)

.stab.index
 *(.stab.index)

.stab.indexstr
 *(.stab.indexstr)

.comment        0x0000000000000000       0x23
 *(.comment)
 .comment       0x0000000000000000       0x23 obj/default/SigmaStudioFW.o
                                         0x24 (size before relaxing)
 .comment       0x0000000000000023       0x24 obj/default/alt_error_handler.o
 .comment       0x0000000000000023       0x24 obj/default/iniche_init.o
 .comment       0x0000000000000023       0x24 obj/default/network_utilities.o
 .comment       0x0000000000000023       0x24 obj/default/osc.o
 .comment       0x0000000000000023       0x24 obj/default/osc_server.o
 .comment       0x0000000000000023       0x24 obj/default/sigmadsp.o
 .comment       0x0000000000000023       0x24 obj/default/tse_my_system.o
 .comment       0x0000000000000023       0x24 c:/intelfpga_lite/18.1/nios2eds/bin/gnu/h-x86_64-mingw32/bin/../lib/gcc/nios2-elf/5.3.0\libgcc.a(_floatdisf.o)
 .comment       0x0000000000000023       0x24 c:/intelfpga_lite/18.1/nios2eds/bin/gnu/h-x86_64-mingw32/bin/../lib/gcc/nios2-elf/5.3.0\libgcc.a(addsf3.o)
 .comment       0x0000000000000023       0x24 c:/intelfpga_lite/18.1/nios2eds/bin/gnu/h-x86_64-mingw32/bin/../lib/gcc/nios2-elf/5.3.0\libgcc.a(mulsf3.o)
 .comment       0x0000000000000023       0x24 c:/intelfpga_lite/18.1/nios2eds/bin/gnu/h-x86_64-mingw32/bin/../lib/gcc/nios2-elf/5.3.0\libgcc.a(fixsfsi.o)
 .comment       0x0000000000000023       0x24 c:/intelfpga_lite/18.1/nios2eds/bin/gnu/h-x86_64-mingw32/bin/../lib/gcc/nios2-elf/5.3.0\libgcc.a(floatsisf.o)
 .comment       0x0000000000000023       0x24 c:/intelfpga_lite/18.1/nios2eds/bin/gnu/h-x86_64-mingw32/bin/../lib/gcc/nios2-elf/5.3.0\libgcc.a(adddf3.o)
 .comment       0x0000000000000023       0x24 c:/intelfpga_lite/18.1/nios2eds/bin/gnu/h-x86_64-mingw32/bin/../lib/gcc/nios2-elf/5.3.0\libgcc.a(divdf3.o)
 .comment       0x0000000000000023       0x24 c:/intelfpga_lite/18.1/nios2eds/bin/gnu/h-x86_64-mingw32/bin/../lib/gcc/nios2-elf/5.3.0\libgcc.a(muldf3.o)
 .comment       0x0000000000000023       0x24 c:/intelfpga_lite/18.1/nios2eds/bin/gnu/h-x86_64-mingw32/bin/../lib/gcc/nios2-elf/5.3.0\libgcc.a(floatsidf.o)
 .comment       0x0000000000000023       0x24 c:/intelfpga_lite/18.1/nios2eds/bin/gnu/h-x86_64-mingw32/bin/../lib/gcc/nios2-elf/5.3.0\libgcc.a(floatunsidf.o)
 .comment       0x0000000000000023       0x24 c:/intelfpga_lite/18.1/nios2eds/bin/gnu/h-x86_64-mingw32/bin/../lib/gcc/nios2-elf/5.3.0\libgcc.a(extendsfdf2.o)
 .comment       0x0000000000000023       0x24 c:/intelfpga_lite/18.1/nios2eds/bin/gnu/h-x86_64-mingw32/bin/../lib/gcc/nios2-elf/5.3.0\libgcc.a(truncdfsf2.o)
 .comment       0x0000000000000023       0x24 c:/intelfpga_lite/18.1/nios2eds/bin/gnu/h-x86_64-mingw32/bin/../lib/gcc/nios2-elf/5.3.0\libgcc.a(_clzsi2.o)
 .comment       0x0000000000000023       0x24 c:/intelfpga_lite/18.1/nios2eds/bin/gnu/h-x86_64-mingw32/bin/../lib/gcc/nios2-elf/5.3.0\libgcc.a(lib2-divmod.o)
 .comment       0x0000000000000023       0x24 c:/intelfpga_lite/18.1/nios2eds/bin/gnu/h-x86_64-mingw32/bin/../lib/gcc/nios2-elf/5.3.0\libgcc.a(_clz.o)
 .comment       0x0000000000000023       0x24 c:/intelfpga_lite/18.1/nios2eds/bin/gnu/h-x86_64-mingw32/bin/../lib/gcc/nios2-elf/5.3.0/../../../../../H-x86_64-mingw32/nios2-elf/lib\libc.a(lib_a-calloc.o)
 .comment       0x0000000000000023       0x24 c:/intelfpga_lite/18.1/nios2eds/bin/gnu/h-x86_64-mingw32/bin/../lib/gcc/nios2-elf/5.3.0/../../../../../H-x86_64-mingw32/nios2-elf/lib\libc.a(lib_a-callocr.o)
 .comment       0x0000000000000023       0x24 c:/intelfpga_lite/18.1/nios2eds/bin/gnu/h-x86_64-mingw32/bin/../lib/gcc/nios2-elf/5.3.0/../../../../../H-x86_64-mingw32/nios2-elf/lib\libc.a(lib_a-fprintf.o)
 .comment       0x0000000000000023       0x24 c:/intelfpga_lite/18.1/nios2eds/bin/gnu/h-x86_64-mingw32/bin/../lib/gcc/nios2-elf/5.3.0/../../../../../H-x86_64-mingw32/nios2-elf/lib\libc.a(lib_a-fwrite.o)
 .comment       0x0000000000000023       0x24 c:/intelfpga_lite/18.1/nios2eds/bin/gnu/h-x86_64-mingw32/bin/../lib/gcc/nios2-elf/5.3.0/../../../../../H-x86_64-mingw32/nios2-elf/lib\libc.a(lib_a-impure.o)
 .comment       0x0000000000000023       0x24 c:/intelfpga_lite/18.1/nios2eds/bin/gnu/h-x86_64-mingw32/bin/../lib/gcc/nios2-elf/5.3.0/../../../../../H-x86_64-mingw32/nios2-elf/lib\libc.a(lib_a-malloc.o)
 .comment       0x0000000000000023       0x24 c:/intelfpga_lite/18.1/nios2eds/bin/gnu/h-x86_64-mingw32/bin/../lib/gcc/nios2-elf/5.3.0/../../../../../H-x86_64-mingw32/nios2-elf/lib\libc.a(lib_a-mallocr.o)
 .comment       0x0000000000000023       0x24 c:/intelfpga_lite/18.1/nios2eds/bin/gnu/h-x86_64-mingw32/bin/../lib/gcc/nios2-elf/5.3.0/../../../../../H-x86_64-mingw32/nios2-elf/lib\libc.a(lib_a-memcpy.o)
 .comment       0x0000000000000023       0x24 c:/intelfpga_lite/18.1/nios2eds/bin/gnu/h-x86_64-mingw32/bin/../lib/gcc/nios2-elf/5.3.0/../../../../../H-x86_64-mingw32/nios2-elf/lib\libc.a(lib_a-memset.o)
 .comment       0x0000000000000023       0x24 c:/intelfpga_lite/18.1/nios2eds/bin/gnu/h-x86_64-mingw32/bin/../lib/gcc/nios2-elf/5.3.0/../../../../../H-x86_64-mingw32/nios2-elf/lib\libc.a(lib_a-perror.o)
 .comment       0x0000000000000023       0x24 c:/intelfpga_lite/18.1/nios2eds/bin/gnu/h-x86_64-mingw32/bin/../lib/gcc/nios2-elf/5.3.0/../../../../../H-x86_64-mingw32/nios2-elf/lib\libc.a(lib_a-printf.o)
 .comment       0x0000000000000023       0x24 c:/intelfpga_lite/18.1/nios2eds/bin/gnu/h-x86_64-mingw32/bin/../lib/gcc/nios2-elf/5.3.0/../../../../../H-x86_64-mingw32/nios2-elf/lib\libc.a(lib_a-puts.o)
 .comment       0x0000000000000023       0x24 c:/intelfpga_lite/18.1/nios2eds/bin/gnu/h-x86_64-mingw32/bin/../lib/gcc/nios2-elf/5.3.0/../../../../../H-x86_64-mingw32/nios2-elf/lib\libc.a(lib_a-sbrkr.o)
 .comment       0x0000000000000023       0x24 c:/intelfpga_lite/18.1/nios2eds/bin/gnu/h-x86_64-mingw32/bin/../lib/gcc/nios2-elf/5.3.0/../../../../../H-x86_64-mingw32/nios2-elf/lib\libc.a(lib_a-sprintf.o)
 .comment       0x0000000000000023       0x24 c:/intelfpga_lite/18.1/nios2eds/bin/gnu/h-x86_64-mingw32/bin/../lib/gcc/nios2-elf/5.3.0/../../../../../H-x86_64-mingw32/nios2-elf/lib\libc.a(lib_a-strchr.o)
 .comment       0x0000000000000023       0x24 c:/intelfpga_lite/18.1/nios2eds/bin/gnu/h-x86_64-mingw32/bin/../lib/gcc/nios2-elf/5.3.0/../../../../../H-x86_64-mingw32/nios2-elf/lib\libc.a(lib_a-strcmp.o)
 .comment       0x0000000000000023       0x24 c:/intelfpga_lite/18.1/nios2eds/bin/gnu/h-x86_64-mingw32/bin/../lib/gcc/nios2-elf/5.3.0/../../../../../H-x86_64-mingw32/nios2-elf/lib\libc.a(lib_a-strerror.o)
 .comment       0x0000000000000023       0x24 c:/intelfpga_lite/18.1/nios2eds/bin/gnu/h-x86_64-mingw32/bin/../lib/gcc/nios2-elf/5.3.0/../../../../../H-x86_64-mingw32/nios2-elf/lib\libc.a(lib_a-strlen.o)
 .comment       0x0000000000000023       0x24 c:/intelfpga_lite/18.1/nios2eds/bin/gnu/h-x86_64-mingw32/bin/../lib/gcc/nios2-elf/5.3.0/../../../../../H-x86_64-mingw32/nios2-elf/lib\libc.a(lib_a-svfprintf.o)
 .comment       0x0000000000000023       0x24 c:/intelfpga_lite/18.1/nios2eds/bin/gnu/h-x86_64-mingw32/bin/../lib/gcc/nios2-elf/5.3.0/../../../../../H-x86_64-mingw32/nios2-elf/lib\libc.a(lib_a-u_strerr.o)
 .comment       0x0000000000000023       0x24 c:/intelfpga_lite/18.1/nios2eds/bin/gnu/h-x86_64-mingw32/bin/../lib/gcc/nios2-elf/5.3.0/../../../../../H-x86_64-mingw32/nios2-elf/lib\libc.a(lib_a-vfprintf.o)
 .comment       0x0000000000000023       0x24 c:/intelfpga_lite/18.1/nios2eds/bin/gnu/h-x86_64-mingw32/bin/../lib/gcc/nios2-elf/5.3.0/../../../../../H-x86_64-mingw32/nios2-elf/lib\libc.a(lib_a-wsetup.o)
 .comment       0x0000000000000023       0x24 c:/intelfpga_lite/18.1/nios2eds/bin/gnu/h-x86_64-mingw32/bin/../lib/gcc/nios2-elf/5.3.0/../../../../../H-x86_64-mingw32/nios2-elf/lib\libc.a(lib_a-dtoa.o)
 .comment       0x0000000000000023       0x24 c:/intelfpga_lite/18.1/nios2eds/bin/gnu/h-x86_64-mingw32/bin/../lib/gcc/nios2-elf/5.3.0/../../../../../H-x86_64-mingw32/nios2-elf/lib\libc.a(lib_a-fflush.o)
 .comment       0x0000000000000023       0x24 c:/intelfpga_lite/18.1/nios2eds/bin/gnu/h-x86_64-mingw32/bin/../lib/gcc/nios2-elf/5.3.0/../../../../../H-x86_64-mingw32/nios2-elf/lib\libc.a(lib_a-findfp.o)
 .comment       0x0000000000000023       0x24 c:/intelfpga_lite/18.1/nios2eds/bin/gnu/h-x86_64-mingw32/bin/../lib/gcc/nios2-elf/5.3.0/../../../../../H-x86_64-mingw32/nios2-elf/lib\libc.a(lib_a-fputc.o)
 .comment       0x0000000000000023       0x24 c:/intelfpga_lite/18.1/nios2eds/bin/gnu/h-x86_64-mingw32/bin/../lib/gcc/nios2-elf/5.3.0/../../../../../H-x86_64-mingw32/nios2-elf/lib\libc.a(lib_a-fputs.o)
 .comment       0x0000000000000023       0x24 c:/intelfpga_lite/18.1/nios2eds/bin/gnu/h-x86_64-mingw32/bin/../lib/gcc/nios2-elf/5.3.0/../../../../../H-x86_64-mingw32/nios2-elf/lib\libc.a(lib_a-freer.o)
 .comment       0x0000000000000023       0x24 c:/intelfpga_lite/18.1/nios2eds/bin/gnu/h-x86_64-mingw32/bin/../lib/gcc/nios2-elf/5.3.0/../../../../../H-x86_64-mingw32/nios2-elf/lib\libc.a(lib_a-fvwrite.o)
 .comment       0x0000000000000023       0x24 c:/intelfpga_lite/18.1/nios2eds/bin/gnu/h-x86_64-mingw32/bin/../lib/gcc/nios2-elf/5.3.0/../../../../../H-x86_64-mingw32/nios2-elf/lib\libc.a(lib_a-fwalk.o)
 .comment       0x0000000000000023       0x24 c:/intelfpga_lite/18.1/nios2eds/bin/gnu/h-x86_64-mingw32/bin/../lib/gcc/nios2-elf/5.3.0/../../../../../H-x86_64-mingw32/nios2-elf/lib\libc.a(lib_a-int_errno.o)
 .comment       0x0000000000000023       0x24 c:/intelfpga_lite/18.1/nios2eds/bin/gnu/h-x86_64-mingw32/bin/../lib/gcc/nios2-elf/5.3.0/../../../../../H-x86_64-mingw32/nios2-elf/lib\libc.a(lib_a-locale.o)
 .comment       0x0000000000000023       0x24 c:/intelfpga_lite/18.1/nios2eds/bin/gnu/h-x86_64-mingw32/bin/../lib/gcc/nios2-elf/5.3.0/../../../../../H-x86_64-mingw32/nios2-elf/lib\libc.a(lib_a-makebuf.o)
 .comment       0x0000000000000023       0x24 c:/intelfpga_lite/18.1/nios2eds/bin/gnu/h-x86_64-mingw32/bin/../lib/gcc/nios2-elf/5.3.0/../../../../../H-x86_64-mingw32/nios2-elf/lib\libc.a(lib_a-memchr.o)
 .comment       0x0000000000000023       0x24 c:/intelfpga_lite/18.1/nios2eds/bin/gnu/h-x86_64-mingw32/bin/../lib/gcc/nios2-elf/5.3.0/../../../../../H-x86_64-mingw32/nios2-elf/lib\libc.a(lib_a-memmove.o)
 .comment       0x0000000000000023       0x24 c:/intelfpga_lite/18.1/nios2eds/bin/gnu/h-x86_64-mingw32/bin/../lib/gcc/nios2-elf/5.3.0/../../../../../H-x86_64-mingw32/nios2-elf/lib\libc.a(lib_a-mprec.o)
 .comment       0x0000000000000023       0x24 c:/intelfpga_lite/18.1/nios2eds/bin/gnu/h-x86_64-mingw32/bin/../lib/gcc/nios2-elf/5.3.0/../../../../../H-x86_64-mingw32/nios2-elf/lib\libc.a(lib_a-putc.o)
 .comment       0x0000000000000023       0x24 c:/intelfpga_lite/18.1/nios2eds/bin/gnu/h-x86_64-mingw32/bin/../lib/gcc/nios2-elf/5.3.0/../../../../../H-x86_64-mingw32/nios2-elf/lib\libc.a(lib_a-reallocr.o)
 .comment       0x0000000000000023       0x24 c:/intelfpga_lite/18.1/nios2eds/bin/gnu/h-x86_64-mingw32/bin/../lib/gcc/nios2-elf/5.3.0/../../../../../H-x86_64-mingw32/nios2-elf/lib\libc.a(lib_a-s_fpclassify.o)
 .comment       0x0000000000000023       0x24 c:/intelfpga_lite/18.1/nios2eds/bin/gnu/h-x86_64-mingw32/bin/../lib/gcc/nios2-elf/5.3.0/../../../../../H-x86_64-mingw32/nios2-elf/lib\libc.a(lib_a-stdio.o)
 .comment       0x0000000000000023       0x24 c:/intelfpga_lite/18.1/nios2eds/bin/gnu/h-x86_64-mingw32/bin/../lib/gcc/nios2-elf/5.3.0/../../../../../H-x86_64-mingw32/nios2-elf/lib\libc.a(lib_a-svfiprintf.o)
 .comment       0x0000000000000023       0x24 c:/intelfpga_lite/18.1/nios2eds/bin/gnu/h-x86_64-mingw32/bin/../lib/gcc/nios2-elf/5.3.0/../../../../../H-x86_64-mingw32/nios2-elf/lib\libc.a(lib_a-vfiprintf.o)
 .comment       0x0000000000000023       0x24 c:/intelfpga_lite/18.1/nios2eds/bin/gnu/h-x86_64-mingw32/bin/../lib/gcc/nios2-elf/5.3.0/../../../../../H-x86_64-mingw32/nios2-elf/lib\libc.a(lib_a-wbuf.o)
 .comment       0x0000000000000023       0x24 c:/intelfpga_lite/18.1/nios2eds/bin/gnu/h-x86_64-mingw32/bin/../lib/gcc/nios2-elf/5.3.0/../../../../../H-x86_64-mingw32/nios2-elf/lib\libc.a(lib_a-writer.o)
 .comment       0x0000000000000023       0x24 c:/intelfpga_lite/18.1/nios2eds/bin/gnu/h-x86_64-mingw32/bin/../lib/gcc/nios2-elf/5.3.0/../../../../../H-x86_64-mingw32/nios2-elf/lib\libc.a(closer.o)
 .comment       0x0000000000000023       0x24 c:/intelfpga_lite/18.1/nios2eds/bin/gnu/h-x86_64-mingw32/bin/../lib/gcc/nios2-elf/5.3.0/../../../../../H-x86_64-mingw32/nios2-elf/lib\libc.a(lib_a-fclose.o)
 .comment       0x0000000000000023       0x24 c:/intelfpga_lite/18.1/nios2eds/bin/gnu/h-x86_64-mingw32/bin/../lib/gcc/nios2-elf/5.3.0/../../../../../H-x86_64-mingw32/nios2-elf/lib\libc.a(lib_a-fputwc.o)
 .comment       0x0000000000000023       0x24 c:/intelfpga_lite/18.1/nios2eds/bin/gnu/h-x86_64-mingw32/bin/../lib/gcc/nios2-elf/5.3.0/../../../../../H-x86_64-mingw32/nios2-elf/lib\libc.a(lib_a-fstatr.o)
 .comment       0x0000000000000023       0x24 c:/intelfpga_lite/18.1/nios2eds/bin/gnu/h-x86_64-mingw32/bin/../lib/gcc/nios2-elf/5.3.0/../../../../../H-x86_64-mingw32/nios2-elf/lib\libc.a(lib_a-isattyr.o)
 .comment       0x0000000000000023       0x24 c:/intelfpga_lite/18.1/nios2eds/bin/gnu/h-x86_64-mingw32/bin/../lib/gcc/nios2-elf/5.3.0/../../../../../H-x86_64-mingw32/nios2-elf/lib\libc.a(lib_a-lseekr.o)
 .comment       0x0000000000000023       0x24 c:/intelfpga_lite/18.1/nios2eds/bin/gnu/h-x86_64-mingw32/bin/../lib/gcc/nios2-elf/5.3.0/../../../../../H-x86_64-mingw32/nios2-elf/lib\libc.a(lib_a-readr.o)
 .comment       0x0000000000000023       0x24 c:/intelfpga_lite/18.1/nios2eds/bin/gnu/h-x86_64-mingw32/bin/../lib/gcc/nios2-elf/5.3.0/../../../../../H-x86_64-mingw32/nios2-elf/lib\libc.a(lib_a-wcrtomb.o)
 .comment       0x0000000000000023       0x24 c:/intelfpga_lite/18.1/nios2eds/bin/gnu/h-x86_64-mingw32/bin/../lib/gcc/nios2-elf/5.3.0/../../../../../H-x86_64-mingw32/nios2-elf/lib\libc.a(lib_a-wctomb_r.o)
 .comment       0x0000000000000023       0x24 c:/intelfpga_lite/18.1/nios2eds/bin/gnu/h-x86_64-mingw32/bin/../lib/gcc/nios2-elf/5.3.0\libgcc.a(_udivdi3.o)
 .comment       0x0000000000000023       0x24 c:/intelfpga_lite/18.1/nios2eds/bin/gnu/h-x86_64-mingw32/bin/../lib/gcc/nios2-elf/5.3.0\libgcc.a(_umoddi3.o)
 .comment       0x0000000000000023       0x24 c:/intelfpga_lite/18.1/nios2eds/bin/gnu/h-x86_64-mingw32/bin/../lib/gcc/nios2-elf/5.3.0\libgcc.a(eqdf2.o)
 .comment       0x0000000000000023       0x24 c:/intelfpga_lite/18.1/nios2eds/bin/gnu/h-x86_64-mingw32/bin/../lib/gcc/nios2-elf/5.3.0\libgcc.a(gedf2.o)
 .comment       0x0000000000000023       0x24 c:/intelfpga_lite/18.1/nios2eds/bin/gnu/h-x86_64-mingw32/bin/../lib/gcc/nios2-elf/5.3.0\libgcc.a(ledf2.o)
 .comment       0x0000000000000023       0x24 c:/intelfpga_lite/18.1/nios2eds/bin/gnu/h-x86_64-mingw32/bin/../lib/gcc/nios2-elf/5.3.0\libgcc.a(subdf3.o)
 .comment       0x0000000000000023       0x24 c:/intelfpga_lite/18.1/nios2eds/bin/gnu/h-x86_64-mingw32/bin/../lib/gcc/nios2-elf/5.3.0\libgcc.a(fixdfsi.o)
 .comment       0x0000000000000023       0x24 ../candy_avb_sss_bsp/\libucosii_bsp.a(alt_fstat.o)
 .comment       0x0000000000000023       0x24 ../candy_avb_sss_bsp/\libucosii_bsp.a(alt_isatty.o)
 .comment       0x0000000000000023       0x24 ../candy_avb_sss_bsp/\libucosii_bsp.a(alt_lseek.o)
 .comment       0x0000000000000023       0x24 ../candy_avb_sss_bsp/\libucosii_bsp.a(alt_main.o)
 .comment       0x0000000000000023       0x24 ../candy_avb_sss_bsp/\libucosii_bsp.a(alt_sbrk.o)
 .comment       0x0000000000000023       0x24 ../candy_avb_sss_bsp/\libucosii_bsp.a(alt_usleep.o)
 .comment       0x0000000000000023       0x24 ../candy_avb_sss_bsp/\libucosii_bsp.a(alt_env_lock.o)
 .comment       0x0000000000000023       0x24 ../candy_avb_sss_bsp/\libucosii_bsp.a(alt_malloc_lock.o)
 .comment       0x0000000000000023       0x24 ../candy_avb_sss_bsp/\libucosii_bsp.a(os_core.o)
 .comment       0x0000000000000023       0x24 ../candy_avb_sss_bsp/\libucosii_bsp.a(os_dbg.o)
 .comment       0x0000000000000023       0x24 ../candy_avb_sss_bsp/\libucosii_bsp.a(os_flag.o)
 .comment       0x0000000000000023       0x24 ../candy_avb_sss_bsp/\libucosii_bsp.a(os_mem.o)
 .comment       0x0000000000000023       0x24 ../candy_avb_sss_bsp/\libucosii_bsp.a(os_q.o)
 .comment       0x0000000000000023       0x24 ../candy_avb_sss_bsp/\libucosii_bsp.a(os_sem.o)
 .comment       0x0000000000000023       0x24 ../candy_avb_sss_bsp/\libucosii_bsp.a(os_task.o)
 .comment       0x0000000000000023       0x24 ../candy_avb_sss_bsp/\libucosii_bsp.a(os_time.o)
 .comment       0x0000000000000023       0x24 ../candy_avb_sss_bsp/\libucosii_bsp.a(alt_sys_init.o)
 .comment       0x0000000000000023       0x24 ../candy_avb_sss_bsp/\libucosii_bsp.a(altera_avalon_jtag_uart_fd.o)
 .comment       0x0000000000000023       0x24 ../candy_avb_sss_bsp/\libucosii_bsp.a(altera_avalon_jtag_uart_init.o)
 .comment       0x0000000000000023       0x24 ../candy_avb_sss_bsp/\libucosii_bsp.a(altera_avalon_jtag_uart_ioctl.o)
 .comment       0x0000000000000023       0x24 ../candy_avb_sss_bsp/\libucosii_bsp.a(altera_avalon_jtag_uart_read.o)
 .comment       0x0000000000000023       0x24 ../candy_avb_sss_bsp/\libucosii_bsp.a(altera_avalon_jtag_uart_write.o)
 .comment       0x0000000000000023       0x24 ../candy_avb_sss_bsp/\libucosii_bsp.a(altera_avalon_timer_sc.o)
 .comment       0x0000000000000023       0x24 ../candy_avb_sss_bsp/\libucosii_bsp.a(altera_avalon_uart_fd.o)
 .comment       0x0000000000000023       0x24 ../candy_avb_sss_bsp/\libucosii_bsp.a(altera_avalon_uart_init.o)
 .comment       0x0000000000000023       0x24 ../candy_avb_sss_bsp/\libucosii_bsp.a(altera_avalon_uart_read.o)
 .comment       0x0000000000000023       0x24 ../candy_avb_sss_bsp/\libucosii_bsp.a(altera_avalon_uart_write.o)
 .comment       0x0000000000000023       0x24 ../candy_avb_sss_bsp/\libucosii_bsp.a(altera_modular_adc.o)
 .comment       0x0000000000000023       0x24 ../candy_avb_sss_bsp/\libucosii_bsp.a(altera_msgdma.o)
 .comment       0x0000000000000023       0x24 ../candy_avb_sss_bsp/\libucosii_bsp.a(altera_onchip_flash.o)
 .comment       0x0000000000000023       0x24 ../candy_avb_sss_bsp/\libucosii_bsp.a(ins_tse_mac.o)
 .comment       0x0000000000000023       0x24 ../candy_avb_sss_bsp/\libucosii_bsp.a(alt_iniche_close.o)
 .comment       0x0000000000000023       0x24 ../candy_avb_sss_bsp/\libucosii_bsp.a(alt_iniche_dev.o)
 .comment       0x0000000000000023       0x24 ../candy_avb_sss_bsp/\libucosii_bsp.a(alt_iniche_read.o)
 .comment       0x0000000000000023       0x24 ../candy_avb_sss_bsp/\libucosii_bsp.a(alt_iniche_write.o)
 .comment       0x0000000000000023       0x24 ../candy_avb_sss_bsp/\libucosii_bsp.a(ipnet.o)
 .comment       0x0000000000000023       0x24 ../candy_avb_sss_bsp/\libucosii_bsp.a(ipstart.o)
 .comment       0x0000000000000023       0x24 ../candy_avb_sss_bsp/\libucosii_bsp.a(igmp_cmn.o)
 .comment       0x0000000000000023       0x24 ../candy_avb_sss_bsp/\libucosii_bsp.a(bsdsock.o)
 .comment       0x0000000000000023       0x24 ../candy_avb_sss_bsp/\libucosii_bsp.a(cksum.o)
 .comment       0x0000000000000023       0x24 ../candy_avb_sss_bsp/\libucosii_bsp.a(in_utils.o)
 .comment       0x0000000000000023       0x24 ../candy_avb_sss_bsp/\libucosii_bsp.a(netmain.o)
 .comment       0x0000000000000023       0x24 ../candy_avb_sss_bsp/\libucosii_bsp.a(tk_crnos.o)
 .comment       0x0000000000000023       0x24 ../candy_avb_sss_bsp/\libucosii_bsp.a(dhcpclnt.o)
 .comment       0x0000000000000023       0x24 ../candy_avb_sss_bsp/\libucosii_bsp.a(dhcputil.o)
 .comment       0x0000000000000023       0x24 ../candy_avb_sss_bsp/\libucosii_bsp.a(pktalloc.o)
 .comment       0x0000000000000023       0x24 ../candy_avb_sss_bsp/\libucosii_bsp.a(q.o)
 .comment       0x0000000000000023       0x24 ../candy_avb_sss_bsp/\libucosii_bsp.a(udp_open.o)
 .comment       0x0000000000000023       0x24 ../candy_avb_sss_bsp/\libucosii_bsp.a(brdutils.o)
 .comment       0x0000000000000023       0x24 ../candy_avb_sss_bsp/\libucosii_bsp.a(osportco.o)
 .comment       0x0000000000000023       0x24 ../candy_avb_sss_bsp/\libucosii_bsp.a(targnios.o)
 .comment       0x0000000000000023       0x24 ../candy_avb_sss_bsp/\libucosii_bsp.a(nptcp.o)
 .comment       0x0000000000000023       0x24 ../candy_avb_sss_bsp/\libucosii_bsp.a(rawsock.o)
 .comment       0x0000000000000023       0x24 ../candy_avb_sss_bsp/\libucosii_bsp.a(sockcall.o)
 .comment       0x0000000000000023       0x24 ../candy_avb_sss_bsp/\libucosii_bsp.a(socket.o)
 .comment       0x0000000000000023       0x24 ../candy_avb_sss_bsp/\libucosii_bsp.a(socket2.o)
 .comment       0x0000000000000023       0x24 ../candy_avb_sss_bsp/\libucosii_bsp.a(soselect.o)
 .comment       0x0000000000000023       0x24 ../candy_avb_sss_bsp/\libucosii_bsp.a(tcp_in.o)
 .comment       0x0000000000000023       0x24 ../candy_avb_sss_bsp/\libucosii_bsp.a(tcp_out.o)
 .comment       0x0000000000000023       0x24 ../candy_avb_sss_bsp/\libucosii_bsp.a(tcp_subr.o)
 .comment       0x0000000000000023       0x24 ../candy_avb_sss_bsp/\libucosii_bsp.a(tcp_timr.o)
 .comment       0x0000000000000023       0x24 ../candy_avb_sss_bsp/\libucosii_bsp.a(tcp_usr.o)
 .comment       0x0000000000000023       0x24 ../candy_avb_sss_bsp/\libucosii_bsp.a(tcpport.o)
 .comment       0x0000000000000023       0x24 ../candy_avb_sss_bsp/\libucosii_bsp.a(udpsock.o)
 .comment       0x0000000000000023       0x24 ../candy_avb_sss_bsp/\libucosii_bsp.a(alt_alarm_start.o)
 .comment       0x0000000000000023       0x24 ../candy_avb_sss_bsp/\libucosii_bsp.a(alt_busy_sleep.o)
 .comment       0x0000000000000023       0x24 ../candy_avb_sss_bsp/\libucosii_bsp.a(alt_close.o)
 .comment       0x0000000000000023       0x24 ../candy_avb_sss_bsp/\libucosii_bsp.a(alt_dcache_flush.o)
 .comment       0x0000000000000023       0x24 ../candy_avb_sss_bsp/\libucosii_bsp.a(alt_dev.o)
 .comment       0x0000000000000023       0x24 ../candy_avb_sss_bsp/\libucosii_bsp.a(alt_dev_llist_insert.o)
 .comment       0x0000000000000023       0x24 ../candy_avb_sss_bsp/\libucosii_bsp.a(alt_do_ctors.o)
 .comment       0x0000000000000023       0x24 ../candy_avb_sss_bsp/\libucosii_bsp.a(alt_do_dtors.o)
 .comment       0x0000000000000023       0x24 ../candy_avb_sss_bsp/\libucosii_bsp.a(alt_errno.o)
 .comment       0x0000000000000023       0x24 ../candy_avb_sss_bsp/\libucosii_bsp.a(alt_find_dev.o)
 .comment       0x0000000000000023       0x24 ../candy_avb_sss_bsp/\libucosii_bsp.a(alt_flash_dev.o)
 .comment       0x0000000000000023       0x24 ../candy_avb_sss_bsp/\libucosii_bsp.a(alt_iic.o)
 .comment       0x0000000000000023       0x24 ../candy_avb_sss_bsp/\libucosii_bsp.a(alt_iic_isr_register.o)
 .comment       0x0000000000000023       0x24 ../candy_avb_sss_bsp/\libucosii_bsp.a(alt_io_redirect.o)
 .comment       0x0000000000000023       0x24 ../candy_avb_sss_bsp/\libucosii_bsp.a(alt_irq_handler.o)
 .comment       0x0000000000000023       0x24 ../candy_avb_sss_bsp/\libucosii_bsp.a(alt_irq_vars.o)
 .comment       0x0000000000000023       0x24 ../candy_avb_sss_bsp/\libucosii_bsp.a(alt_open.o)
 .comment       0x0000000000000023       0x24 ../candy_avb_sss_bsp/\libucosii_bsp.a(alt_printf.o)
 .comment       0x0000000000000023       0x24 ../candy_avb_sss_bsp/\libucosii_bsp.a(alt_putchar.o)
 .comment       0x0000000000000023       0x24 ../candy_avb_sss_bsp/\libucosii_bsp.a(alt_read.o)
 .comment       0x0000000000000023       0x24 ../candy_avb_sss_bsp/\libucosii_bsp.a(alt_release_fd.o)
 .comment       0x0000000000000023       0x24 ../candy_avb_sss_bsp/\libucosii_bsp.a(alt_remap_cached.o)
 .comment       0x0000000000000023       0x24 ../candy_avb_sss_bsp/\libucosii_bsp.a(alt_tick.o)
 .comment       0x0000000000000023       0x24 ../candy_avb_sss_bsp/\libucosii_bsp.a(alt_uncached_free.o)
 .comment       0x0000000000000023       0x24 ../candy_avb_sss_bsp/\libucosii_bsp.a(alt_uncached_malloc.o)
 .comment       0x0000000000000023       0x24 ../candy_avb_sss_bsp/\libucosii_bsp.a(alt_write.o)
 .comment       0x0000000000000023       0x24 ../candy_avb_sss_bsp/\libucosii_bsp.a(altera_nios2_gen2_irq.o)
 .comment       0x0000000000000023       0x24 ../candy_avb_sss_bsp/\libucosii_bsp.a(os_cpu_c.o)
 .comment       0x0000000000000023       0x24 ../candy_avb_sss_bsp/\libucosii_bsp.a(altera_avalon_tse.o)
 .comment       0x0000000000000023       0x24 ../candy_avb_sss_bsp/\libucosii_bsp.a(allports.o)
 .comment       0x0000000000000023       0x24 ../candy_avb_sss_bsp/\libucosii_bsp.a(timeouts.o)
 .comment       0x0000000000000023       0x24 ../candy_avb_sss_bsp/\libucosii_bsp.a(tk_misc.o)
 .comment       0x0000000000000023       0x24 ../candy_avb_sss_bsp/\libucosii_bsp.a(alt_iniche_fcntl.o)
 .comment       0x0000000000000023       0x24 ../candy_avb_sss_bsp/\libucosii_bsp.a(et_arp.o)
 .comment       0x0000000000000023       0x24 ../candy_avb_sss_bsp/\libucosii_bsp.a(iface.o)
 .comment       0x0000000000000023       0x24 ../candy_avb_sss_bsp/\libucosii_bsp.a(ip.o)
 .comment       0x0000000000000023       0x24 ../candy_avb_sss_bsp/\libucosii_bsp.a(ip_reasm.o)
 .comment       0x0000000000000023       0x24 ../candy_avb_sss_bsp/\libucosii_bsp.a(ipdemux.o)
 .comment       0x0000000000000023       0x24 ../candy_avb_sss_bsp/\libucosii_bsp.a(ipmc.o)
 .comment       0x0000000000000023       0x24 ../candy_avb_sss_bsp/\libucosii_bsp.a(ipport.o)
 .comment       0x0000000000000023       0x24 ../candy_avb_sss_bsp/\libucosii_bsp.a(ipraw.o)
 .comment       0x0000000000000023       0x24 ../candy_avb_sss_bsp/\libucosii_bsp.a(iproute.o)
 .comment       0x0000000000000023       0x24 ../candy_avb_sss_bsp/\libucosii_bsp.a(udp.o)
 .comment       0x0000000000000023       0x24 ../candy_avb_sss_bsp/\libucosii_bsp.a(igmp.o)
 .comment       0x0000000000000023       0x24 ../candy_avb_sss_bsp/\libucosii_bsp.a(igmp2.o)
 .comment       0x0000000000000023       0x24 ../candy_avb_sss_bsp/\libucosii_bsp.a(ipopt.o)
 .comment       0x0000000000000023       0x24 ../candy_avb_sss_bsp/\libucosii_bsp.a(u_mctest.o)
 .comment       0x0000000000000023       0x24 ../candy_avb_sss_bsp/\libucosii_bsp.a(dhcsetup.o)
 .comment       0x0000000000000023       0x24 ../candy_avb_sss_bsp/\libucosii_bsp.a(memdev.o)
 .comment       0x0000000000000023       0x24 ../candy_avb_sss_bsp/\libucosii_bsp.a(parseip.o)
 .comment       0x0000000000000023       0x24 ../candy_avb_sss_bsp/\libucosii_bsp.a(tcpcksum.o)
 .comment       0x0000000000000023       0x24 ../candy_avb_sss_bsp/\libucosii_bsp.a(in_pcb.o)
 .comment       0x0000000000000023       0x24 ../candy_avb_sss_bsp/\libucosii_bsp.a(vfsfiles.o)
 .comment       0x0000000000000023       0x24 ../candy_avb_sss_bsp/\libucosii_bsp.a(vfsport.o)
 .comment       0x0000000000000023       0x24 ../candy_avb_sss_bsp/\libucosii_bsp.a(alt_fcntl.o)
 .comment       0x0000000000000023       0x24 ../candy_avb_sss_bsp/\libucosii_bsp.a(alt_find_file.o)
 .comment       0x0000000000000023       0x24 ../candy_avb_sss_bsp/\libucosii_bsp.a(alt_get_fd.o)
 .comment       0x0000000000000023       0x24 ../candy_avb_sss_bsp/\libucosii_bsp.a(alt_instruction_exception_entry.o)
 .comment       0x0000000000000023       0x24 ../candy_avb_sss_bsp/\libucosii_bsp.a(icmp.o)
 .comment       0x0000000000000023       0x24 c:/intelfpga_lite/18.1/nios2eds/bin/gnu/h-x86_64-mingw32/bin/../lib/gcc/nios2-elf/5.3.0/../../../../../H-x86_64-mingw32/nios2-elf/lib\libc.a(lib_a-atexit.o)
 .comment       0x0000000000000023       0x24 c:/intelfpga_lite/18.1/nios2eds/bin/gnu/h-x86_64-mingw32/bin/../lib/gcc/nios2-elf/5.3.0/../../../../../H-x86_64-mingw32/nios2-elf/lib\libc.a(lib_a-atoi.o)
 .comment       0x0000000000000023       0x24 c:/intelfpga_lite/18.1/nios2eds/bin/gnu/h-x86_64-mingw32/bin/../lib/gcc/nios2-elf/5.3.0/../../../../../H-x86_64-mingw32/nios2-elf/lib\libc.a(lib_a-exit.o)
 .comment       0x0000000000000023       0x24 c:/intelfpga_lite/18.1/nios2eds/bin/gnu/h-x86_64-mingw32/bin/../lib/gcc/nios2-elf/5.3.0/../../../../../H-x86_64-mingw32/nios2-elf/lib\libc.a(lib_a-getc.o)
 .comment       0x0000000000000023       0x24 c:/intelfpga_lite/18.1/nios2eds/bin/gnu/h-x86_64-mingw32/bin/../lib/gcc/nios2-elf/5.3.0/../../../../../H-x86_64-mingw32/nios2-elf/lib\libc.a(lib_a-malign.o)
 .comment       0x0000000000000023       0x24 c:/intelfpga_lite/18.1/nios2eds/bin/gnu/h-x86_64-mingw32/bin/../lib/gcc/nios2-elf/5.3.0/../../../../../H-x86_64-mingw32/nios2-elf/lib\libc.a(lib_a-malignr.o)
 .comment       0x0000000000000023       0x24 c:/intelfpga_lite/18.1/nios2eds/bin/gnu/h-x86_64-mingw32/bin/../lib/gcc/nios2-elf/5.3.0/../../../../../H-x86_64-mingw32/nios2-elf/lib\libc.a(lib_a-memcmp.o)
 .comment       0x0000000000000023       0x24 c:/intelfpga_lite/18.1/nios2eds/bin/gnu/h-x86_64-mingw32/bin/../lib/gcc/nios2-elf/5.3.0/../../../../../H-x86_64-mingw32/nios2-elf/lib\libc.a(lib_a-putchar.o)
 .comment       0x0000000000000023       0x24 c:/intelfpga_lite/18.1/nios2eds/bin/gnu/h-x86_64-mingw32/bin/../lib/gcc/nios2-elf/5.3.0/../../../../../H-x86_64-mingw32/nios2-elf/lib\libc.a(lib_a-rget.o)
 .comment       0x0000000000000023       0x24 c:/intelfpga_lite/18.1/nios2eds/bin/gnu/h-x86_64-mingw32/bin/../lib/gcc/nios2-elf/5.3.0/../../../../../H-x86_64-mingw32/nios2-elf/lib\libc.a(lib_a-strcpy.o)
 .comment       0x0000000000000023       0x24 c:/intelfpga_lite/18.1/nios2eds/bin/gnu/h-x86_64-mingw32/bin/../lib/gcc/nios2-elf/5.3.0/../../../../../H-x86_64-mingw32/nios2-elf/lib\libc.a(lib_a-strncmp.o)
 .comment       0x0000000000000023       0x24 c:/intelfpga_lite/18.1/nios2eds/bin/gnu/h-x86_64-mingw32/bin/../lib/gcc/nios2-elf/5.3.0/../../../../../H-x86_64-mingw32/nios2-elf/lib\libc.a(lib_a-strncpy.o)
 .comment       0x0000000000000023       0x24 c:/intelfpga_lite/18.1/nios2eds/bin/gnu/h-x86_64-mingw32/bin/../lib/gcc/nios2-elf/5.3.0/../../../../../H-x86_64-mingw32/nios2-elf/lib\libc.a(lib_a-strtol.o)
 .comment       0x0000000000000023       0x24 c:/intelfpga_lite/18.1/nios2eds/bin/gnu/h-x86_64-mingw32/bin/../lib/gcc/nios2-elf/5.3.0/../../../../../H-x86_64-mingw32/nios2-elf/lib\libc.a(lib_a-vprintf.o)
 .comment       0x0000000000000023       0x24 c:/intelfpga_lite/18.1/nios2eds/bin/gnu/h-x86_64-mingw32/bin/../lib/gcc/nios2-elf/5.3.0/../../../../../H-x86_64-mingw32/nios2-elf/lib\libc.a(lib_a-vsprintf.o)
 .comment       0x0000000000000023       0x24 c:/intelfpga_lite/18.1/nios2eds/bin/gnu/h-x86_64-mingw32/bin/../lib/gcc/nios2-elf/5.3.0/../../../../../H-x86_64-mingw32/nios2-elf/lib\libc.a(lib_a-__atexit.o)
 .comment       0x0000000000000023       0x24 c:/intelfpga_lite/18.1/nios2eds/bin/gnu/h-x86_64-mingw32/bin/../lib/gcc/nios2-elf/5.3.0/../../../../../H-x86_64-mingw32/nios2-elf/lib\libc.a(lib_a-__call_atexit.o)
 .comment       0x0000000000000023       0x24 c:/intelfpga_lite/18.1/nios2eds/bin/gnu/h-x86_64-mingw32/bin/../lib/gcc/nios2-elf/5.3.0/../../../../../H-x86_64-mingw32/nios2-elf/lib\libc.a(lib_a-ctype_.o)
 .comment       0x0000000000000023       0x24 c:/intelfpga_lite/18.1/nios2eds/bin/gnu/h-x86_64-mingw32/bin/../lib/gcc/nios2-elf/5.3.0/../../../../../H-x86_64-mingw32/nios2-elf/lib\libc.a(lib_a-refill.o)
 .comment       0x0000000000000023       0x24 c:/intelfpga_lite/18.1/nios2eds/bin/gnu/h-x86_64-mingw32/bin/../lib/gcc/nios2-elf/5.3.0/../../../../../H-x86_64-mingw32/nios2-elf/lib\libc.a(lib_a-vfprintfr_1.o)
 .comment       0x0000000000000023       0x24 ../candy_avb_sss_bsp/\libucosii_bsp.a(alt_exit.o)

.debug
 *(.debug)

.line
 *(.line)

.debug_srcinfo
 *(.debug_srcinfo)

.debug_sfnames
 *(.debug_sfnames)

.debug_aranges  0x0000000000000000     0x1f50
 *(.debug_aranges)
 .debug_aranges
                0x0000000000000000       0x20 ../candy_avb_sss_bsp//obj/HAL/src/crt0.o
 .debug_aranges
                0x0000000000000020       0x20 obj/default/SigmaStudioFW.o
 .debug_aranges
                0x0000000000000040       0x20 obj/default/alt_error_handler.o
 .debug_aranges
                0x0000000000000060       0x20 obj/default/iniche_init.o
 .debug_aranges
                0x0000000000000080       0x20 obj/default/network_utilities.o
 .debug_aranges
                0x00000000000000a0       0x20 obj/default/osc.o
 .debug_aranges
                0x00000000000000c0       0x20 obj/default/osc_server.o
 .debug_aranges
                0x00000000000000e0       0x20 obj/default/sigmadsp.o
 .debug_aranges
                0x0000000000000100       0x18 obj/default/tse_my_system.o
 .debug_aranges
                0x0000000000000118       0x20 c:/intelfpga_lite/18.1/nios2eds/bin/gnu/h-x86_64-mingw32/bin/../lib/gcc/nios2-elf/5.3.0\libgcc.a(_floatdisf.o)
 .debug_aranges
                0x0000000000000138       0x20 c:/intelfpga_lite/18.1/nios2eds/bin/gnu/h-x86_64-mingw32/bin/../lib/gcc/nios2-elf/5.3.0\libgcc.a(addsf3.o)
 .debug_aranges
                0x0000000000000158       0x20 c:/intelfpga_lite/18.1/nios2eds/bin/gnu/h-x86_64-mingw32/bin/../lib/gcc/nios2-elf/5.3.0\libgcc.a(mulsf3.o)
 .debug_aranges
                0x0000000000000178       0x20 c:/intelfpga_lite/18.1/nios2eds/bin/gnu/h-x86_64-mingw32/bin/../lib/gcc/nios2-elf/5.3.0\libgcc.a(fixsfsi.o)
 .debug_aranges
                0x0000000000000198       0x20 c:/intelfpga_lite/18.1/nios2eds/bin/gnu/h-x86_64-mingw32/bin/../lib/gcc/nios2-elf/5.3.0\libgcc.a(floatsisf.o)
 .debug_aranges
                0x00000000000001b8       0x20 c:/intelfpga_lite/18.1/nios2eds/bin/gnu/h-x86_64-mingw32/bin/../lib/gcc/nios2-elf/5.3.0\libgcc.a(adddf3.o)
 .debug_aranges
                0x00000000000001d8       0x20 c:/intelfpga_lite/18.1/nios2eds/bin/gnu/h-x86_64-mingw32/bin/../lib/gcc/nios2-elf/5.3.0\libgcc.a(divdf3.o)
 .debug_aranges
                0x00000000000001f8       0x20 c:/intelfpga_lite/18.1/nios2eds/bin/gnu/h-x86_64-mingw32/bin/../lib/gcc/nios2-elf/5.3.0\libgcc.a(muldf3.o)
 .debug_aranges
                0x0000000000000218       0x20 c:/intelfpga_lite/18.1/nios2eds/bin/gnu/h-x86_64-mingw32/bin/../lib/gcc/nios2-elf/5.3.0\libgcc.a(floatsidf.o)
 .debug_aranges
                0x0000000000000238       0x20 c:/intelfpga_lite/18.1/nios2eds/bin/gnu/h-x86_64-mingw32/bin/../lib/gcc/nios2-elf/5.3.0\libgcc.a(floatunsidf.o)
 .debug_aranges
                0x0000000000000258       0x20 c:/intelfpga_lite/18.1/nios2eds/bin/gnu/h-x86_64-mingw32/bin/../lib/gcc/nios2-elf/5.3.0\libgcc.a(extendsfdf2.o)
 .debug_aranges
                0x0000000000000278       0x20 c:/intelfpga_lite/18.1/nios2eds/bin/gnu/h-x86_64-mingw32/bin/../lib/gcc/nios2-elf/5.3.0\libgcc.a(truncdfsf2.o)
 .debug_aranges
                0x0000000000000298       0x20 c:/intelfpga_lite/18.1/nios2eds/bin/gnu/h-x86_64-mingw32/bin/../lib/gcc/nios2-elf/5.3.0\libgcc.a(_clzsi2.o)
 .debug_aranges
                0x00000000000002b8       0x20 c:/intelfpga_lite/18.1/nios2eds/bin/gnu/h-x86_64-mingw32/bin/../lib/gcc/nios2-elf/5.3.0\libgcc.a(lib2-divmod.o)
 .debug_aranges
                0x00000000000002d8       0x18 c:/intelfpga_lite/18.1/nios2eds/bin/gnu/h-x86_64-mingw32/bin/../lib/gcc/nios2-elf/5.3.0\libgcc.a(_clz.o)
 .debug_aranges
                0x00000000000002f0       0x20 c:/intelfpga_lite/18.1/nios2eds/bin/gnu/h-x86_64-mingw32/bin/../lib/gcc/nios2-elf/5.3.0/../../../../../H-x86_64-mingw32/nios2-elf/lib\libc.a(lib_a-calloc.o)
 .debug_aranges
                0x0000000000000310       0x20 c:/intelfpga_lite/18.1/nios2eds/bin/gnu/h-x86_64-mingw32/bin/../lib/gcc/nios2-elf/5.3.0/../../../../../H-x86_64-mingw32/nios2-elf/lib\libc.a(lib_a-callocr.o)
 .debug_aranges
                0x0000000000000330       0x28 c:/intelfpga_lite/18.1/nios2eds/bin/gnu/h-x86_64-mingw32/bin/../lib/gcc/nios2-elf/5.3.0/../../../../../H-x86_64-mingw32/nios2-elf/lib\libc.a(lib_a-fprintf.o)
 .debug_aranges
                0x0000000000000358       0x28 c:/intelfpga_lite/18.1/nios2eds/bin/gnu/h-x86_64-mingw32/bin/../lib/gcc/nios2-elf/5.3.0/../../../../../H-x86_64-mingw32/nios2-elf/lib\libc.a(lib_a-fwrite.o)
 .debug_aranges
                0x0000000000000380       0x18 c:/intelfpga_lite/18.1/nios2eds/bin/gnu/h-x86_64-mingw32/bin/../lib/gcc/nios2-elf/5.3.0/../../../../../H-x86_64-mingw32/nios2-elf/lib\libc.a(lib_a-impure.o)
 .debug_aranges
                0x0000000000000398       0x28 c:/intelfpga_lite/18.1/nios2eds/bin/gnu/h-x86_64-mingw32/bin/../lib/gcc/nios2-elf/5.3.0/../../../../../H-x86_64-mingw32/nios2-elf/lib\libc.a(lib_a-malloc.o)
 .debug_aranges
                0x00000000000003c0       0x20 c:/intelfpga_lite/18.1/nios2eds/bin/gnu/h-x86_64-mingw32/bin/../lib/gcc/nios2-elf/5.3.0/../../../../../H-x86_64-mingw32/nios2-elf/lib\libc.a(lib_a-mallocr.o)
 .debug_aranges
                0x00000000000003e0       0x20 c:/intelfpga_lite/18.1/nios2eds/bin/gnu/h-x86_64-mingw32/bin/../lib/gcc/nios2-elf/5.3.0/../../../../../H-x86_64-mingw32/nios2-elf/lib\libc.a(lib_a-memcpy.o)
 .debug_aranges
                0x0000000000000400       0x20 c:/intelfpga_lite/18.1/nios2eds/bin/gnu/h-x86_64-mingw32/bin/../lib/gcc/nios2-elf/5.3.0/../../../../../H-x86_64-mingw32/nios2-elf/lib\libc.a(lib_a-memset.o)
 .debug_aranges
                0x0000000000000420       0x28 c:/intelfpga_lite/18.1/nios2eds/bin/gnu/h-x86_64-mingw32/bin/../lib/gcc/nios2-elf/5.3.0/../../../../../H-x86_64-mingw32/nios2-elf/lib\libc.a(lib_a-perror.o)
 .debug_aranges
                0x0000000000000448       0x28 c:/intelfpga_lite/18.1/nios2eds/bin/gnu/h-x86_64-mingw32/bin/../lib/gcc/nios2-elf/5.3.0/../../../../../H-x86_64-mingw32/nios2-elf/lib\libc.a(lib_a-printf.o)
 .debug_aranges
                0x0000000000000470       0x28 c:/intelfpga_lite/18.1/nios2eds/bin/gnu/h-x86_64-mingw32/bin/../lib/gcc/nios2-elf/5.3.0/../../../../../H-x86_64-mingw32/nios2-elf/lib\libc.a(lib_a-puts.o)
 .debug_aranges
                0x0000000000000498       0x20 c:/intelfpga_lite/18.1/nios2eds/bin/gnu/h-x86_64-mingw32/bin/../lib/gcc/nios2-elf/5.3.0/../../../../../H-x86_64-mingw32/nios2-elf/lib\libc.a(lib_a-sbrkr.o)
 .debug_aranges
                0x00000000000004b8       0x28 c:/intelfpga_lite/18.1/nios2eds/bin/gnu/h-x86_64-mingw32/bin/../lib/gcc/nios2-elf/5.3.0/../../../../../H-x86_64-mingw32/nios2-elf/lib\libc.a(lib_a-sprintf.o)
 .debug_aranges
                0x00000000000004e0       0x20 c:/intelfpga_lite/18.1/nios2eds/bin/gnu/h-x86_64-mingw32/bin/../lib/gcc/nios2-elf/5.3.0/../../../../../H-x86_64-mingw32/nios2-elf/lib\libc.a(lib_a-strchr.o)
 .debug_aranges
                0x0000000000000500       0x20 c:/intelfpga_lite/18.1/nios2eds/bin/gnu/h-x86_64-mingw32/bin/../lib/gcc/nios2-elf/5.3.0/../../../../../H-x86_64-mingw32/nios2-elf/lib\libc.a(lib_a-strcmp.o)
 .debug_aranges
                0x0000000000000520       0x28 c:/intelfpga_lite/18.1/nios2eds/bin/gnu/h-x86_64-mingw32/bin/../lib/gcc/nios2-elf/5.3.0/../../../../../H-x86_64-mingw32/nios2-elf/lib\libc.a(lib_a-strerror.o)
 .debug_aranges
                0x0000000000000548       0x20 c:/intelfpga_lite/18.1/nios2eds/bin/gnu/h-x86_64-mingw32/bin/../lib/gcc/nios2-elf/5.3.0/../../../../../H-x86_64-mingw32/nios2-elf/lib\libc.a(lib_a-strlen.o)
 .debug_aranges
                0x0000000000000568       0x20 c:/intelfpga_lite/18.1/nios2eds/bin/gnu/h-x86_64-mingw32/bin/../lib/gcc/nios2-elf/5.3.0/../../../../../H-x86_64-mingw32/nios2-elf/lib\libc.a(lib_a-svfprintf.o)
 .debug_aranges
                0x0000000000000588       0x20 c:/intelfpga_lite/18.1/nios2eds/bin/gnu/h-x86_64-mingw32/bin/../lib/gcc/nios2-elf/5.3.0/../../../../../H-x86_64-mingw32/nios2-elf/lib\libc.a(lib_a-u_strerr.o)
 .debug_aranges
                0x00000000000005a8       0x30 c:/intelfpga_lite/18.1/nios2eds/bin/gnu/h-x86_64-mingw32/bin/../lib/gcc/nios2-elf/5.3.0/../../../../../H-x86_64-mingw32/nios2-elf/lib\libc.a(lib_a-vfprintf.o)
 .debug_aranges
                0x00000000000005d8       0x20 c:/intelfpga_lite/18.1/nios2eds/bin/gnu/h-x86_64-mingw32/bin/../lib/gcc/nios2-elf/5.3.0/../../../../../H-x86_64-mingw32/nios2-elf/lib\libc.a(lib_a-wsetup.o)
 .debug_aranges
                0x00000000000005f8       0x28 c:/intelfpga_lite/18.1/nios2eds/bin/gnu/h-x86_64-mingw32/bin/../lib/gcc/nios2-elf/5.3.0/../../../../../H-x86_64-mingw32/nios2-elf/lib\libc.a(lib_a-dtoa.o)
 .debug_aranges
                0x0000000000000620       0x30 c:/intelfpga_lite/18.1/nios2eds/bin/gnu/h-x86_64-mingw32/bin/../lib/gcc/nios2-elf/5.3.0/../../../../../H-x86_64-mingw32/nios2-elf/lib\libc.a(lib_a-fflush.o)
 .debug_aranges
                0x0000000000000650       0x68 c:/intelfpga_lite/18.1/nios2eds/bin/gnu/h-x86_64-mingw32/bin/../lib/gcc/nios2-elf/5.3.0/../../../../../H-x86_64-mingw32/nios2-elf/lib\libc.a(lib_a-findfp.o)
 .debug_aranges
                0x00000000000006b8       0x28 c:/intelfpga_lite/18.1/nios2eds/bin/gnu/h-x86_64-mingw32/bin/../lib/gcc/nios2-elf/5.3.0/../../../../../H-x86_64-mingw32/nios2-elf/lib\libc.a(lib_a-fputc.o)
 .debug_aranges
                0x00000000000006e0       0x28 c:/intelfpga_lite/18.1/nios2eds/bin/gnu/h-x86_64-mingw32/bin/../lib/gcc/nios2-elf/5.3.0/../../../../../H-x86_64-mingw32/nios2-elf/lib\libc.a(lib_a-fputs.o)
 .debug_aranges
                0x0000000000000708       0x28 c:/intelfpga_lite/18.1/nios2eds/bin/gnu/h-x86_64-mingw32/bin/../lib/gcc/nios2-elf/5.3.0/../../../../../H-x86_64-mingw32/nios2-elf/lib\libc.a(lib_a-freer.o)
 .debug_aranges
                0x0000000000000730       0x20 c:/intelfpga_lite/18.1/nios2eds/bin/gnu/h-x86_64-mingw32/bin/../lib/gcc/nios2-elf/5.3.0/../../../../../H-x86_64-mingw32/nios2-elf/lib\libc.a(lib_a-fvwrite.o)
 .debug_aranges
                0x0000000000000750       0x28 c:/intelfpga_lite/18.1/nios2eds/bin/gnu/h-x86_64-mingw32/bin/../lib/gcc/nios2-elf/5.3.0/../../../../../H-x86_64-mingw32/nios2-elf/lib\libc.a(lib_a-fwalk.o)
 .debug_aranges
                0x0000000000000778       0x18 c:/intelfpga_lite/18.1/nios2eds/bin/gnu/h-x86_64-mingw32/bin/../lib/gcc/nios2-elf/5.3.0/../../../../../H-x86_64-mingw32/nios2-elf/lib\libc.a(lib_a-int_errno.o)
 .debug_aranges
                0x0000000000000790       0x58 c:/intelfpga_lite/18.1/nios2eds/bin/gnu/h-x86_64-mingw32/bin/../lib/gcc/nios2-elf/5.3.0/../../../../../H-x86_64-mingw32/nios2-elf/lib\libc.a(lib_a-locale.o)
 .debug_aranges
                0x00000000000007e8       0x20 c:/intelfpga_lite/18.1/nios2eds/bin/gnu/h-x86_64-mingw32/bin/../lib/gcc/nios2-elf/5.3.0/../../../../../H-x86_64-mingw32/nios2-elf/lib\libc.a(lib_a-makebuf.o)
 .debug_aranges
                0x0000000000000808       0x20 c:/intelfpga_lite/18.1/nios2eds/bin/gnu/h-x86_64-mingw32/bin/../lib/gcc/nios2-elf/5.3.0/../../../../../H-x86_64-mingw32/nios2-elf/lib\libc.a(lib_a-memchr.o)
 .debug_aranges
                0x0000000000000828       0x20 c:/intelfpga_lite/18.1/nios2eds/bin/gnu/h-x86_64-mingw32/bin/../lib/gcc/nios2-elf/5.3.0/../../../../../H-x86_64-mingw32/nios2-elf/lib\libc.a(lib_a-memmove.o)
 .debug_aranges
                0x0000000000000848       0xb0 c:/intelfpga_lite/18.1/nios2eds/bin/gnu/h-x86_64-mingw32/bin/../lib/gcc/nios2-elf/5.3.0/../../../../../H-x86_64-mingw32/nios2-elf/lib\libc.a(lib_a-mprec.o)
 .debug_aranges
                0x00000000000008f8       0x28 c:/intelfpga_lite/18.1/nios2eds/bin/gnu/h-x86_64-mingw32/bin/../lib/gcc/nios2-elf/5.3.0/../../../../../H-x86_64-mingw32/nios2-elf/lib\libc.a(lib_a-putc.o)
 .debug_aranges
                0x0000000000000920       0x20 c:/intelfpga_lite/18.1/nios2eds/bin/gnu/h-x86_64-mingw32/bin/../lib/gcc/nios2-elf/5.3.0/../../../../../H-x86_64-mingw32/nios2-elf/lib\libc.a(lib_a-reallocr.o)
 .debug_aranges
                0x0000000000000940       0x20 c:/intelfpga_lite/18.1/nios2eds/bin/gnu/h-x86_64-mingw32/bin/../lib/gcc/nios2-elf/5.3.0/../../../../../H-x86_64-mingw32/nios2-elf/lib\libc.a(lib_a-s_fpclassify.o)
 .debug_aranges
                0x0000000000000960       0x40 c:/intelfpga_lite/18.1/nios2eds/bin/gnu/h-x86_64-mingw32/bin/../lib/gcc/nios2-elf/5.3.0/../../../../../H-x86_64-mingw32/nios2-elf/lib\libc.a(lib_a-stdio.o)
 .debug_aranges
                0x00000000000009a0       0x28 c:/intelfpga_lite/18.1/nios2eds/bin/gnu/h-x86_64-mingw32/bin/../lib/gcc/nios2-elf/5.3.0/../../../../../H-x86_64-mingw32/nios2-elf/lib\libc.a(lib_a-svfiprintf.o)
 .debug_aranges
                0x00000000000009c8       0x40 c:/intelfpga_lite/18.1/nios2eds/bin/gnu/h-x86_64-mingw32/bin/../lib/gcc/nios2-elf/5.3.0/../../../../../H-x86_64-mingw32/nios2-elf/lib\libc.a(lib_a-vfiprintf.o)
 .debug_aranges
                0x0000000000000a08       0x28 c:/intelfpga_lite/18.1/nios2eds/bin/gnu/h-x86_64-mingw32/bin/../lib/gcc/nios2-elf/5.3.0/../../../../../H-x86_64-mingw32/nios2-elf/lib\libc.a(lib_a-wbuf.o)
 .debug_aranges
                0x0000000000000a30       0x20 c:/intelfpga_lite/18.1/nios2eds/bin/gnu/h-x86_64-mingw32/bin/../lib/gcc/nios2-elf/5.3.0/../../../../../H-x86_64-mingw32/nios2-elf/lib\libc.a(lib_a-writer.o)
 .debug_aranges
                0x0000000000000a50       0x20 c:/intelfpga_lite/18.1/nios2eds/bin/gnu/h-x86_64-mingw32/bin/../lib/gcc/nios2-elf/5.3.0/../../../../../H-x86_64-mingw32/nios2-elf/lib\libc.a(closer.o)
 .debug_aranges
                0x0000000000000a70       0x28 c:/intelfpga_lite/18.1/nios2eds/bin/gnu/h-x86_64-mingw32/bin/../lib/gcc/nios2-elf/5.3.0/../../../../../H-x86_64-mingw32/nios2-elf/lib\libc.a(lib_a-fclose.o)
 .debug_aranges
                0x0000000000000a98       0x30 c:/intelfpga_lite/18.1/nios2eds/bin/gnu/h-x86_64-mingw32/bin/../lib/gcc/nios2-elf/5.3.0/../../../../../H-x86_64-mingw32/nios2-elf/lib\libc.a(lib_a-fputwc.o)
 .debug_aranges
                0x0000000000000ac8       0x20 c:/intelfpga_lite/18.1/nios2eds/bin/gnu/h-x86_64-mingw32/bin/../lib/gcc/nios2-elf/5.3.0/../../../../../H-x86_64-mingw32/nios2-elf/lib\libc.a(lib_a-fstatr.o)
 .debug_aranges
                0x0000000000000ae8       0x20 c:/intelfpga_lite/18.1/nios2eds/bin/gnu/h-x86_64-mingw32/bin/../lib/gcc/nios2-elf/5.3.0/../../../../../H-x86_64-mingw32/nios2-elf/lib\libc.a(lib_a-isattyr.o)
 .debug_aranges
                0x0000000000000b08       0x20 c:/intelfpga_lite/18.1/nios2eds/bin/gnu/h-x86_64-mingw32/bin/../lib/gcc/nios2-elf/5.3.0/../../../../../H-x86_64-mingw32/nios2-elf/lib\libc.a(lib_a-lseekr.o)
 .debug_aranges
                0x0000000000000b28       0x20 c:/intelfpga_lite/18.1/nios2eds/bin/gnu/h-x86_64-mingw32/bin/../lib/gcc/nios2-elf/5.3.0/../../../../../H-x86_64-mingw32/nios2-elf/lib\libc.a(lib_a-readr.o)
 .debug_aranges
                0x0000000000000b48       0x28 c:/intelfpga_lite/18.1/nios2eds/bin/gnu/h-x86_64-mingw32/bin/../lib/gcc/nios2-elf/5.3.0/../../../../../H-x86_64-mingw32/nios2-elf/lib\libc.a(lib_a-wcrtomb.o)
 .debug_aranges
                0x0000000000000b70       0x28 c:/intelfpga_lite/18.1/nios2eds/bin/gnu/h-x86_64-mingw32/bin/../lib/gcc/nios2-elf/5.3.0/../../../../../H-x86_64-mingw32/nios2-elf/lib\libc.a(lib_a-wctomb_r.o)
 .debug_aranges
                0x0000000000000b98       0x20 c:/intelfpga_lite/18.1/nios2eds/bin/gnu/h-x86_64-mingw32/bin/../lib/gcc/nios2-elf/5.3.0\libgcc.a(_udivdi3.o)
 .debug_aranges
                0x0000000000000bb8       0x20 c:/intelfpga_lite/18.1/nios2eds/bin/gnu/h-x86_64-mingw32/bin/../lib/gcc/nios2-elf/5.3.0\libgcc.a(_umoddi3.o)
 .debug_aranges
                0x0000000000000bd8       0x20 c:/intelfpga_lite/18.1/nios2eds/bin/gnu/h-x86_64-mingw32/bin/../lib/gcc/nios2-elf/5.3.0\libgcc.a(eqdf2.o)
 .debug_aranges
                0x0000000000000bf8       0x20 c:/intelfpga_lite/18.1/nios2eds/bin/gnu/h-x86_64-mingw32/bin/../lib/gcc/nios2-elf/5.3.0\libgcc.a(gedf2.o)
 .debug_aranges
                0x0000000000000c18       0x20 c:/intelfpga_lite/18.1/nios2eds/bin/gnu/h-x86_64-mingw32/bin/../lib/gcc/nios2-elf/5.3.0\libgcc.a(ledf2.o)
 .debug_aranges
                0x0000000000000c38       0x20 c:/intelfpga_lite/18.1/nios2eds/bin/gnu/h-x86_64-mingw32/bin/../lib/gcc/nios2-elf/5.3.0\libgcc.a(subdf3.o)
 .debug_aranges
                0x0000000000000c58       0x20 c:/intelfpga_lite/18.1/nios2eds/bin/gnu/h-x86_64-mingw32/bin/../lib/gcc/nios2-elf/5.3.0\libgcc.a(fixdfsi.o)
 .debug_aranges
                0x0000000000000c78       0x20 ../candy_avb_sss_bsp/\libucosii_bsp.a(alt_fstat.o)
 .debug_aranges
                0x0000000000000c98       0x20 ../candy_avb_sss_bsp/\libucosii_bsp.a(alt_isatty.o)
 .debug_aranges
                0x0000000000000cb8       0x20 ../candy_avb_sss_bsp/\libucosii_bsp.a(alt_lseek.o)
 .debug_aranges
                0x0000000000000cd8       0x20 ../candy_avb_sss_bsp/\libucosii_bsp.a(alt_main.o)
 .debug_aranges
                0x0000000000000cf8       0x20 ../candy_avb_sss_bsp/\libucosii_bsp.a(alt_sbrk.o)
 .debug_aranges
                0x0000000000000d18       0x20 ../candy_avb_sss_bsp/\libucosii_bsp.a(alt_usleep.o)
 .debug_aranges
                0x0000000000000d38       0x20 ../candy_avb_sss_bsp/\libucosii_bsp.a(alt_env_lock.o)
 .debug_aranges
                0x0000000000000d58       0x20 ../candy_avb_sss_bsp/\libucosii_bsp.a(alt_malloc_lock.o)
 .debug_aranges
                0x0000000000000d78       0x20 ../candy_avb_sss_bsp/\libucosii_bsp.a(os_core.o)
 .debug_aranges
                0x0000000000000d98       0x20 ../candy_avb_sss_bsp/\libucosii_bsp.a(os_dbg.o)
 .debug_aranges
                0x0000000000000db8       0x20 ../candy_avb_sss_bsp/\libucosii_bsp.a(os_flag.o)
 .debug_aranges
                0x0000000000000dd8       0x20 ../candy_avb_sss_bsp/\libucosii_bsp.a(os_mem.o)
 .debug_aranges
                0x0000000000000df8       0x20 ../candy_avb_sss_bsp/\libucosii_bsp.a(os_q.o)
 .debug_aranges
                0x0000000000000e18       0x20 ../candy_avb_sss_bsp/\libucosii_bsp.a(os_sem.o)
 .debug_aranges
                0x0000000000000e38       0x20 ../candy_avb_sss_bsp/\libucosii_bsp.a(os_task.o)
 .debug_aranges
                0x0000000000000e58       0x20 ../candy_avb_sss_bsp/\libucosii_bsp.a(os_time.o)
 .debug_aranges
                0x0000000000000e78       0x20 ../candy_avb_sss_bsp/\libucosii_bsp.a(alt_sys_init.o)
 .debug_aranges
                0x0000000000000e98       0x20 ../candy_avb_sss_bsp/\libucosii_bsp.a(altera_avalon_jtag_uart_fd.o)
 .debug_aranges
                0x0000000000000eb8       0x20 ../candy_avb_sss_bsp/\libucosii_bsp.a(altera_avalon_jtag_uart_init.o)
 .debug_aranges
                0x0000000000000ed8       0x20 ../candy_avb_sss_bsp/\libucosii_bsp.a(altera_avalon_jtag_uart_ioctl.o)
 .debug_aranges
                0x0000000000000ef8       0x20 ../candy_avb_sss_bsp/\libucosii_bsp.a(altera_avalon_jtag_uart_read.o)
 .debug_aranges
                0x0000000000000f18       0x20 ../candy_avb_sss_bsp/\libucosii_bsp.a(altera_avalon_jtag_uart_write.o)
 .debug_aranges
                0x0000000000000f38       0x20 ../candy_avb_sss_bsp/\libucosii_bsp.a(altera_avalon_timer_sc.o)
 .debug_aranges
                0x0000000000000f58       0x20 ../candy_avb_sss_bsp/\libucosii_bsp.a(altera_avalon_uart_fd.o)
 .debug_aranges
                0x0000000000000f78       0x20 ../candy_avb_sss_bsp/\libucosii_bsp.a(altera_avalon_uart_init.o)
 .debug_aranges
                0x0000000000000f98       0x20 ../candy_avb_sss_bsp/\libucosii_bsp.a(altera_avalon_uart_read.o)
 .debug_aranges
                0x0000000000000fb8       0x20 ../candy_avb_sss_bsp/\libucosii_bsp.a(altera_avalon_uart_write.o)
 .debug_aranges
                0x0000000000000fd8       0x20 ../candy_avb_sss_bsp/\libucosii_bsp.a(altera_modular_adc.o)
 .debug_aranges
                0x0000000000000ff8       0x20 ../candy_avb_sss_bsp/\libucosii_bsp.a(altera_msgdma.o)
 .debug_aranges
                0x0000000000001018       0x20 ../candy_avb_sss_bsp/\libucosii_bsp.a(altera_onchip_flash.o)
 .debug_aranges
                0x0000000000001038       0x20 ../candy_avb_sss_bsp/\libucosii_bsp.a(ins_tse_mac.o)
 .debug_aranges
                0x0000000000001058       0x20 ../candy_avb_sss_bsp/\libucosii_bsp.a(alt_iniche_close.o)
 .debug_aranges
                0x0000000000001078       0x20 ../candy_avb_sss_bsp/\libucosii_bsp.a(alt_iniche_dev.o)
 .debug_aranges
                0x0000000000001098       0x20 ../candy_avb_sss_bsp/\libucosii_bsp.a(alt_iniche_read.o)
 .debug_aranges
                0x00000000000010b8       0x20 ../candy_avb_sss_bsp/\libucosii_bsp.a(alt_iniche_write.o)
 .debug_aranges
                0x00000000000010d8       0x20 ../candy_avb_sss_bsp/\libucosii_bsp.a(ipnet.o)
 .debug_aranges
                0x00000000000010f8       0x20 ../candy_avb_sss_bsp/\libucosii_bsp.a(ipstart.o)
 .debug_aranges
                0x0000000000001118       0x20 ../candy_avb_sss_bsp/\libucosii_bsp.a(igmp_cmn.o)
 .debug_aranges
                0x0000000000001138       0x20 ../candy_avb_sss_bsp/\libucosii_bsp.a(bsdsock.o)
 .debug_aranges
                0x0000000000001158       0x20 ../candy_avb_sss_bsp/\libucosii_bsp.a(cksum.o)
 .debug_aranges
                0x0000000000001178       0x20 ../candy_avb_sss_bsp/\libucosii_bsp.a(in_utils.o)
 .debug_aranges
                0x0000000000001198       0x20 ../candy_avb_sss_bsp/\libucosii_bsp.a(netmain.o)
 .debug_aranges
                0x00000000000011b8       0x20 ../candy_avb_sss_bsp/\libucosii_bsp.a(tk_crnos.o)
 .debug_aranges
                0x00000000000011d8       0x20 ../candy_avb_sss_bsp/\libucosii_bsp.a(dhcpclnt.o)
 .debug_aranges
                0x00000000000011f8       0x20 ../candy_avb_sss_bsp/\libucosii_bsp.a(dhcputil.o)
 .debug_aranges
                0x0000000000001218       0x20 ../candy_avb_sss_bsp/\libucosii_bsp.a(pktalloc.o)
 .debug_aranges
                0x0000000000001238       0x20 ../candy_avb_sss_bsp/\libucosii_bsp.a(q.o)
 .debug_aranges
                0x0000000000001258       0x20 ../candy_avb_sss_bsp/\libucosii_bsp.a(udp_open.o)
 .debug_aranges
                0x0000000000001278       0x20 ../candy_avb_sss_bsp/\libucosii_bsp.a(asm_cksum.o)
 .debug_aranges
                0x0000000000001298       0x20 ../candy_avb_sss_bsp/\libucosii_bsp.a(brdutils.o)
 .debug_aranges
                0x00000000000012b8       0x20 ../candy_avb_sss_bsp/\libucosii_bsp.a(osportco.o)
 .debug_aranges
                0x00000000000012d8       0x20 ../candy_avb_sss_bsp/\libucosii_bsp.a(targnios.o)
 .debug_aranges
                0x00000000000012f8       0x20 ../candy_avb_sss_bsp/\libucosii_bsp.a(nptcp.o)
 .debug_aranges
                0x0000000000001318       0x20 ../candy_avb_sss_bsp/\libucosii_bsp.a(rawsock.o)
 .debug_aranges
                0x0000000000001338       0x20 ../candy_avb_sss_bsp/\libucosii_bsp.a(sockcall.o)
 .debug_aranges
                0x0000000000001358       0x20 ../candy_avb_sss_bsp/\libucosii_bsp.a(socket.o)
 .debug_aranges
                0x0000000000001378       0x20 ../candy_avb_sss_bsp/\libucosii_bsp.a(socket2.o)
 .debug_aranges
                0x0000000000001398       0x20 ../candy_avb_sss_bsp/\libucosii_bsp.a(soselect.o)
 .debug_aranges
                0x00000000000013b8       0x20 ../candy_avb_sss_bsp/\libucosii_bsp.a(tcp_in.o)
 .debug_aranges
                0x00000000000013d8       0x20 ../candy_avb_sss_bsp/\libucosii_bsp.a(tcp_out.o)
 .debug_aranges
                0x00000000000013f8       0x20 ../candy_avb_sss_bsp/\libucosii_bsp.a(tcp_subr.o)
 .debug_aranges
                0x0000000000001418       0x20 ../candy_avb_sss_bsp/\libucosii_bsp.a(tcp_timr.o)
 .debug_aranges
                0x0000000000001438       0x20 ../candy_avb_sss_bsp/\libucosii_bsp.a(tcp_usr.o)
 .debug_aranges
                0x0000000000001458       0x20 ../candy_avb_sss_bsp/\libucosii_bsp.a(tcpport.o)
 .debug_aranges
                0x0000000000001478       0x20 ../candy_avb_sss_bsp/\libucosii_bsp.a(udpsock.o)
 .debug_aranges
                0x0000000000001498       0x20 ../candy_avb_sss_bsp/\libucosii_bsp.a(alt_alarm_start.o)
 .debug_aranges
                0x00000000000014b8       0x20 ../candy_avb_sss_bsp/\libucosii_bsp.a(alt_busy_sleep.o)
 .debug_aranges
                0x00000000000014d8       0x20 ../candy_avb_sss_bsp/\libucosii_bsp.a(alt_close.o)
 .debug_aranges
                0x00000000000014f8       0x20 ../candy_avb_sss_bsp/\libucosii_bsp.a(alt_dcache_flush.o)
 .debug_aranges
                0x0000000000001518       0x20 ../candy_avb_sss_bsp/\libucosii_bsp.a(alt_dev.o)
 .debug_aranges
                0x0000000000001538       0x20 ../candy_avb_sss_bsp/\libucosii_bsp.a(alt_dev_llist_insert.o)
 .debug_aranges
                0x0000000000001558       0x20 ../candy_avb_sss_bsp/\libucosii_bsp.a(alt_do_ctors.o)
 .debug_aranges
                0x0000000000001578       0x20 ../candy_avb_sss_bsp/\libucosii_bsp.a(alt_do_dtors.o)
 .debug_aranges
                0x0000000000001598       0x18 ../candy_avb_sss_bsp/\libucosii_bsp.a(alt_errno.o)
 .debug_aranges
                0x00000000000015b0       0x20 ../candy_avb_sss_bsp/\libucosii_bsp.a(alt_find_dev.o)
 .debug_aranges
                0x00000000000015d0       0x20 ../candy_avb_sss_bsp/\libucosii_bsp.a(alt_flash_dev.o)
 .debug_aranges
                0x00000000000015f0       0x20 ../candy_avb_sss_bsp/\libucosii_bsp.a(alt_iic.o)
 .debug_aranges
                0x0000000000001610       0x20 ../candy_avb_sss_bsp/\libucosii_bsp.a(alt_iic_isr_register.o)
 .debug_aranges
                0x0000000000001630       0x20 ../candy_avb_sss_bsp/\libucosii_bsp.a(alt_io_redirect.o)
 .debug_aranges
                0x0000000000001650       0x30 ../candy_avb_sss_bsp/\libucosii_bsp.a(alt_irq_entry.o)
 .debug_aranges
                0x0000000000001680       0x20 ../candy_avb_sss_bsp/\libucosii_bsp.a(alt_irq_handler.o)
 .debug_aranges
                0x00000000000016a0       0x18 ../candy_avb_sss_bsp/\libucosii_bsp.a(alt_irq_vars.o)
 .debug_aranges
                0x00000000000016b8       0x20 ../candy_avb_sss_bsp/\libucosii_bsp.a(alt_open.o)
 .debug_aranges
                0x00000000000016d8       0x20 ../candy_avb_sss_bsp/\libucosii_bsp.a(alt_printf.o)
 .debug_aranges
                0x00000000000016f8       0x20 ../candy_avb_sss_bsp/\libucosii_bsp.a(alt_putchar.o)
 .debug_aranges
                0x0000000000001718       0x20 ../candy_avb_sss_bsp/\libucosii_bsp.a(alt_read.o)
 .debug_aranges
                0x0000000000001738       0x20 ../candy_avb_sss_bsp/\libucosii_bsp.a(alt_release_fd.o)
 .debug_aranges
                0x0000000000001758       0x20 ../candy_avb_sss_bsp/\libucosii_bsp.a(alt_remap_cached.o)
 .debug_aranges
                0x0000000000001778       0x20 ../candy_avb_sss_bsp/\libucosii_bsp.a(alt_tick.o)
 .debug_aranges
                0x0000000000001798       0x20 ../candy_avb_sss_bsp/\libucosii_bsp.a(alt_uncached_free.o)
 .debug_aranges
                0x00000000000017b8       0x20 ../candy_avb_sss_bsp/\libucosii_bsp.a(alt_uncached_malloc.o)
 .debug_aranges
                0x00000000000017d8       0x20 ../candy_avb_sss_bsp/\libucosii_bsp.a(alt_write.o)
 .debug_aranges
                0x00000000000017f8       0x20 ../candy_avb_sss_bsp/\libucosii_bsp.a(altera_nios2_gen2_irq.o)
 .debug_aranges
                0x0000000000001818       0x20 ../candy_avb_sss_bsp/\libucosii_bsp.a(os_cpu_a.o)
 .debug_aranges
                0x0000000000001838       0x20 ../candy_avb_sss_bsp/\libucosii_bsp.a(os_cpu_c.o)
 .debug_aranges
                0x0000000000001858       0x20 ../candy_avb_sss_bsp/\libucosii_bsp.a(altera_avalon_tse.o)
 .debug_aranges
                0x0000000000001878       0x20 ../candy_avb_sss_bsp/\libucosii_bsp.a(allports.o)
 .debug_aranges
                0x0000000000001898       0x20 ../candy_avb_sss_bsp/\libucosii_bsp.a(timeouts.o)
 .debug_aranges
                0x00000000000018b8       0x20 ../candy_avb_sss_bsp/\libucosii_bsp.a(tk_misc.o)
 .debug_aranges
                0x00000000000018d8       0x20 ../candy_avb_sss_bsp/\libucosii_bsp.a(alt_iniche_fcntl.o)
 .debug_aranges
                0x00000000000018f8       0x20 ../candy_avb_sss_bsp/\libucosii_bsp.a(et_arp.o)
 .debug_aranges
                0x0000000000001918       0x20 ../candy_avb_sss_bsp/\libucosii_bsp.a(iface.o)
 .debug_aranges
                0x0000000000001938       0x20 ../candy_avb_sss_bsp/\libucosii_bsp.a(ip.o)
 .debug_aranges
                0x0000000000001958       0x20 ../candy_avb_sss_bsp/\libucosii_bsp.a(ip_reasm.o)
 .debug_aranges
                0x0000000000001978       0x20 ../candy_avb_sss_bsp/\libucosii_bsp.a(ipdemux.o)
 .debug_aranges
                0x0000000000001998       0x20 ../candy_avb_sss_bsp/\libucosii_bsp.a(ipmc.o)
 .debug_aranges
                0x00000000000019b8       0x20 ../candy_avb_sss_bsp/\libucosii_bsp.a(ipport.o)
 .debug_aranges
                0x00000000000019d8       0x20 ../candy_avb_sss_bsp/\libucosii_bsp.a(ipraw.o)
 .debug_aranges
                0x00000000000019f8       0x20 ../candy_avb_sss_bsp/\libucosii_bsp.a(iproute.o)
 .debug_aranges
                0x0000000000001a18       0x20 ../candy_avb_sss_bsp/\libucosii_bsp.a(udp.o)
 .debug_aranges
                0x0000000000001a38       0x20 ../candy_avb_sss_bsp/\libucosii_bsp.a(igmp.o)
 .debug_aranges
                0x0000000000001a58       0x20 ../candy_avb_sss_bsp/\libucosii_bsp.a(igmp2.o)
 .debug_aranges
                0x0000000000001a78       0x20 ../candy_avb_sss_bsp/\libucosii_bsp.a(ipopt.o)
 .debug_aranges
                0x0000000000001a98       0x20 ../candy_avb_sss_bsp/\libucosii_bsp.a(u_mctest.o)
 .debug_aranges
                0x0000000000001ab8       0x20 ../candy_avb_sss_bsp/\libucosii_bsp.a(dhcsetup.o)
 .debug_aranges
                0x0000000000001ad8       0x20 ../candy_avb_sss_bsp/\libucosii_bsp.a(memdev.o)
 .debug_aranges
                0x0000000000001af8       0x20 ../candy_avb_sss_bsp/\libucosii_bsp.a(parseip.o)
 .debug_aranges
                0x0000000000001b18       0x20 ../candy_avb_sss_bsp/\libucosii_bsp.a(tcpcksum.o)
 .debug_aranges
                0x0000000000001b38       0x20 ../candy_avb_sss_bsp/\libucosii_bsp.a(in_pcb.o)
 .debug_aranges
                0x0000000000001b58       0x20 ../candy_avb_sss_bsp/\libucosii_bsp.a(vfsfiles.o)
 .debug_aranges
                0x0000000000001b78       0x20 ../candy_avb_sss_bsp/\libucosii_bsp.a(vfsport.o)
 .debug_aranges
                0x0000000000001b98       0x38 ../candy_avb_sss_bsp/\libucosii_bsp.a(alt_exception_entry.o)
 .debug_aranges
                0x0000000000001bd0       0x20 ../candy_avb_sss_bsp/\libucosii_bsp.a(alt_fcntl.o)
 .debug_aranges
                0x0000000000001bf0       0x20 ../candy_avb_sss_bsp/\libucosii_bsp.a(alt_find_file.o)
 .debug_aranges
                0x0000000000001c10       0x20 ../candy_avb_sss_bsp/\libucosii_bsp.a(alt_get_fd.o)
 .debug_aranges
                0x0000000000001c30       0x28 ../candy_avb_sss_bsp/\libucosii_bsp.a(alt_instruction_exception_entry.o)
 .debug_aranges
                0x0000000000001c58       0x20 ../candy_avb_sss_bsp/\libucosii_bsp.a(icmp.o)
 .debug_aranges
                0x0000000000001c78       0x20 c:/intelfpga_lite/18.1/nios2eds/bin/gnu/h-x86_64-mingw32/bin/../lib/gcc/nios2-elf/5.3.0/../../../../../H-x86_64-mingw32/nios2-elf/lib\libc.a(lib_a-atexit.o)
 .debug_aranges
                0x0000000000001c98       0x28 c:/intelfpga_lite/18.1/nios2eds/bin/gnu/h-x86_64-mingw32/bin/../lib/gcc/nios2-elf/5.3.0/../../../../../H-x86_64-mingw32/nios2-elf/lib\libc.a(lib_a-atoi.o)
 .debug_aranges
                0x0000000000001cc0       0x20 c:/intelfpga_lite/18.1/nios2eds/bin/gnu/h-x86_64-mingw32/bin/../lib/gcc/nios2-elf/5.3.0/../../../../../H-x86_64-mingw32/nios2-elf/lib\libc.a(lib_a-exit.o)
 .debug_aranges
                0x0000000000001ce0       0x28 c:/intelfpga_lite/18.1/nios2eds/bin/gnu/h-x86_64-mingw32/bin/../lib/gcc/nios2-elf/5.3.0/../../../../../H-x86_64-mingw32/nios2-elf/lib\libc.a(lib_a-getc.o)
 .debug_aranges
                0x0000000000001d08       0x20 c:/intelfpga_lite/18.1/nios2eds/bin/gnu/h-x86_64-mingw32/bin/../lib/gcc/nios2-elf/5.3.0/../../../../../H-x86_64-mingw32/nios2-elf/lib\libc.a(lib_a-malign.o)
 .debug_aranges
                0x0000000000001d28       0x20 c:/intelfpga_lite/18.1/nios2eds/bin/gnu/h-x86_64-mingw32/bin/../lib/gcc/nios2-elf/5.3.0/../../../../../H-x86_64-mingw32/nios2-elf/lib\libc.a(lib_a-malignr.o)
 .debug_aranges
                0x0000000000001d48       0x20 c:/intelfpga_lite/18.1/nios2eds/bin/gnu/h-x86_64-mingw32/bin/../lib/gcc/nios2-elf/5.3.0/../../../../../H-x86_64-mingw32/nios2-elf/lib\libc.a(lib_a-memcmp.o)
 .debug_aranges
                0x0000000000001d68       0x28 c:/intelfpga_lite/18.1/nios2eds/bin/gnu/h-x86_64-mingw32/bin/../lib/gcc/nios2-elf/5.3.0/../../../../../H-x86_64-mingw32/nios2-elf/lib\libc.a(lib_a-putchar.o)
 .debug_aranges
                0x0000000000001d90       0x28 c:/intelfpga_lite/18.1/nios2eds/bin/gnu/h-x86_64-mingw32/bin/../lib/gcc/nios2-elf/5.3.0/../../../../../H-x86_64-mingw32/nios2-elf/lib\libc.a(lib_a-rget.o)
 .debug_aranges
                0x0000000000001db8       0x20 c:/intelfpga_lite/18.1/nios2eds/bin/gnu/h-x86_64-mingw32/bin/../lib/gcc/nios2-elf/5.3.0/../../../../../H-x86_64-mingw32/nios2-elf/lib\libc.a(lib_a-strcpy.o)
 .debug_aranges
                0x0000000000001dd8       0x20 c:/intelfpga_lite/18.1/nios2eds/bin/gnu/h-x86_64-mingw32/bin/../lib/gcc/nios2-elf/5.3.0/../../../../../H-x86_64-mingw32/nios2-elf/lib\libc.a(lib_a-strncmp.o)
 .debug_aranges
                0x0000000000001df8       0x20 c:/intelfpga_lite/18.1/nios2eds/bin/gnu/h-x86_64-mingw32/bin/../lib/gcc/nios2-elf/5.3.0/../../../../../H-x86_64-mingw32/nios2-elf/lib\libc.a(lib_a-strncpy.o)
 .debug_aranges
                0x0000000000001e18       0x28 c:/intelfpga_lite/18.1/nios2eds/bin/gnu/h-x86_64-mingw32/bin/../lib/gcc/nios2-elf/5.3.0/../../../../../H-x86_64-mingw32/nios2-elf/lib\libc.a(lib_a-strtol.o)
 .debug_aranges
                0x0000000000001e40       0x28 c:/intelfpga_lite/18.1/nios2eds/bin/gnu/h-x86_64-mingw32/bin/../lib/gcc/nios2-elf/5.3.0/../../../../../H-x86_64-mingw32/nios2-elf/lib\libc.a(lib_a-vprintf.o)
 .debug_aranges
                0x0000000000001e68       0x28 c:/intelfpga_lite/18.1/nios2eds/bin/gnu/h-x86_64-mingw32/bin/../lib/gcc/nios2-elf/5.3.0/../../../../../H-x86_64-mingw32/nios2-elf/lib\libc.a(lib_a-vsprintf.o)
 .debug_aranges
                0x0000000000001e90       0x20 c:/intelfpga_lite/18.1/nios2eds/bin/gnu/h-x86_64-mingw32/bin/../lib/gcc/nios2-elf/5.3.0/../../../../../H-x86_64-mingw32/nios2-elf/lib\libc.a(lib_a-__atexit.o)
 .debug_aranges
                0x0000000000001eb0       0x20 c:/intelfpga_lite/18.1/nios2eds/bin/gnu/h-x86_64-mingw32/bin/../lib/gcc/nios2-elf/5.3.0/../../../../../H-x86_64-mingw32/nios2-elf/lib\libc.a(lib_a-__call_atexit.o)
 .debug_aranges
                0x0000000000001ed0       0x18 c:/intelfpga_lite/18.1/nios2eds/bin/gnu/h-x86_64-mingw32/bin/../lib/gcc/nios2-elf/5.3.0/../../../../../H-x86_64-mingw32/nios2-elf/lib\libc.a(lib_a-ctype_.o)
 .debug_aranges
                0x0000000000001ee8       0x28 c:/intelfpga_lite/18.1/nios2eds/bin/gnu/h-x86_64-mingw32/bin/../lib/gcc/nios2-elf/5.3.0/../../../../../H-x86_64-mingw32/nios2-elf/lib\libc.a(lib_a-refill.o)
 .debug_aranges
                0x0000000000001f10       0x20 c:/intelfpga_lite/18.1/nios2eds/bin/gnu/h-x86_64-mingw32/bin/../lib/gcc/nios2-elf/5.3.0/../../../../../H-x86_64-mingw32/nios2-elf/lib\libc.a(lib_a-vfprintfr_1.o)
 .debug_aranges
                0x0000000000001f30       0x20 ../candy_avb_sss_bsp/\libucosii_bsp.a(alt_exit.o)

.debug_pubnames
 *(.debug_pubnames)

.debug_info     0x0000000000000000    0x6dd02
 *(.debug_info .gnu.linkonce.wi.*)
 .debug_info    0x0000000000000000       0x8e ../candy_avb_sss_bsp//obj/HAL/src/crt0.o
 .debug_info    0x000000000000008e      0x44b obj/default/SigmaStudioFW.o
 .debug_info    0x00000000000004d9      0x9b1 obj/default/alt_error_handler.o
 .debug_info    0x0000000000000e8a      0x79e obj/default/iniche_init.o
 .debug_info    0x0000000000001628      0x71a obj/default/network_utilities.o
 .debug_info    0x0000000000001d42      0xd59 obj/default/osc.o
 .debug_info    0x0000000000002a9b      0x3bc obj/default/osc_server.o
 .debug_info    0x0000000000002e57      0x39e obj/default/sigmadsp.o
 .debug_info    0x00000000000031f5      0x897 obj/default/tse_my_system.o
 .debug_info    0x0000000000003a8c       0xf6 c:/intelfpga_lite/18.1/nios2eds/bin/gnu/h-x86_64-mingw32/bin/../lib/gcc/nios2-elf/5.3.0\libgcc.a(_floatdisf.o)
 .debug_info    0x0000000000003b82      0x2b7 c:/intelfpga_lite/18.1/nios2eds/bin/gnu/h-x86_64-mingw32/bin/../lib/gcc/nios2-elf/5.3.0\libgcc.a(addsf3.o)
 .debug_info    0x0000000000003e39      0x31d c:/intelfpga_lite/18.1/nios2eds/bin/gnu/h-x86_64-mingw32/bin/../lib/gcc/nios2-elf/5.3.0\libgcc.a(mulsf3.o)
 .debug_info    0x0000000000004156      0x18b c:/intelfpga_lite/18.1/nios2eds/bin/gnu/h-x86_64-mingw32/bin/../lib/gcc/nios2-elf/5.3.0\libgcc.a(fixsfsi.o)
 .debug_info    0x00000000000042e1      0x1c7 c:/intelfpga_lite/18.1/nios2eds/bin/gnu/h-x86_64-mingw32/bin/../lib/gcc/nios2-elf/5.3.0\libgcc.a(floatsisf.o)
 .debug_info    0x00000000000044a8      0x4a2 c:/intelfpga_lite/18.1/nios2eds/bin/gnu/h-x86_64-mingw32/bin/../lib/gcc/nios2-elf/5.3.0\libgcc.a(adddf3.o)
 .debug_info    0x000000000000494a      0x5c7 c:/intelfpga_lite/18.1/nios2eds/bin/gnu/h-x86_64-mingw32/bin/../lib/gcc/nios2-elf/5.3.0\libgcc.a(divdf3.o)
 .debug_info    0x0000000000004f11      0x5f5 c:/intelfpga_lite/18.1/nios2eds/bin/gnu/h-x86_64-mingw32/bin/../lib/gcc/nios2-elf/5.3.0\libgcc.a(muldf3.o)
 .debug_info    0x0000000000005506      0x1bc c:/intelfpga_lite/18.1/nios2eds/bin/gnu/h-x86_64-mingw32/bin/../lib/gcc/nios2-elf/5.3.0\libgcc.a(floatsidf.o)
 .debug_info    0x00000000000056c2      0x1b0 c:/intelfpga_lite/18.1/nios2eds/bin/gnu/h-x86_64-mingw32/bin/../lib/gcc/nios2-elf/5.3.0\libgcc.a(floatunsidf.o)
 .debug_info    0x0000000000005872      0x248 c:/intelfpga_lite/18.1/nios2eds/bin/gnu/h-x86_64-mingw32/bin/../lib/gcc/nios2-elf/5.3.0\libgcc.a(extendsfdf2.o)
 .debug_info    0x0000000000005aba      0x248 c:/intelfpga_lite/18.1/nios2eds/bin/gnu/h-x86_64-mingw32/bin/../lib/gcc/nios2-elf/5.3.0\libgcc.a(truncdfsf2.o)
 .debug_info    0x0000000000005d02      0x124 c:/intelfpga_lite/18.1/nios2eds/bin/gnu/h-x86_64-mingw32/bin/../lib/gcc/nios2-elf/5.3.0\libgcc.a(_clzsi2.o)
 .debug_info    0x0000000000005e26      0x2c6 c:/intelfpga_lite/18.1/nios2eds/bin/gnu/h-x86_64-mingw32/bin/../lib/gcc/nios2-elf/5.3.0\libgcc.a(lib2-divmod.o)
 .debug_info    0x00000000000060ec       0xb2 c:/intelfpga_lite/18.1/nios2eds/bin/gnu/h-x86_64-mingw32/bin/../lib/gcc/nios2-elf/5.3.0\libgcc.a(_clz.o)
 .debug_info    0x000000000000619e      0x8e5 c:/intelfpga_lite/18.1/nios2eds/bin/gnu/h-x86_64-mingw32/bin/../lib/gcc/nios2-elf/5.3.0/../../../../../H-x86_64-mingw32/nios2-elf/lib\libc.a(lib_a-calloc.o)
 .debug_info    0x0000000000006a83      0x9d5 c:/intelfpga_lite/18.1/nios2eds/bin/gnu/h-x86_64-mingw32/bin/../lib/gcc/nios2-elf/5.3.0/../../../../../H-x86_64-mingw32/nios2-elf/lib\libc.a(lib_a-callocr.o)
 .debug_info    0x0000000000007458      0x9a8 c:/intelfpga_lite/18.1/nios2eds/bin/gnu/h-x86_64-mingw32/bin/../lib/gcc/nios2-elf/5.3.0/../../../../../H-x86_64-mingw32/nios2-elf/lib\libc.a(lib_a-fprintf.o)
 .debug_info    0x0000000000007e00      0xa61 c:/intelfpga_lite/18.1/nios2eds/bin/gnu/h-x86_64-mingw32/bin/../lib/gcc/nios2-elf/5.3.0/../../../../../H-x86_64-mingw32/nios2-elf/lib\libc.a(lib_a-fwrite.o)
 .debug_info    0x0000000000008861      0x8a1 c:/intelfpga_lite/18.1/nios2eds/bin/gnu/h-x86_64-mingw32/bin/../lib/gcc/nios2-elf/5.3.0/../../../../../H-x86_64-mingw32/nios2-elf/lib\libc.a(lib_a-impure.o)
 .debug_info    0x0000000000009102      0x911 c:/intelfpga_lite/18.1/nios2eds/bin/gnu/h-x86_64-mingw32/bin/../lib/gcc/nios2-elf/5.3.0/../../../../../H-x86_64-mingw32/nios2-elf/lib\libc.a(lib_a-malloc.o)
 .debug_info    0x0000000000009a13      0xd57 c:/intelfpga_lite/18.1/nios2eds/bin/gnu/h-x86_64-mingw32/bin/../lib/gcc/nios2-elf/5.3.0/../../../../../H-x86_64-mingw32/nios2-elf/lib\libc.a(lib_a-mallocr.o)
 .debug_info    0x000000000000a76a      0x144 c:/intelfpga_lite/18.1/nios2eds/bin/gnu/h-x86_64-mingw32/bin/../lib/gcc/nios2-elf/5.3.0/../../../../../H-x86_64-mingw32/nios2-elf/lib\libc.a(lib_a-memcpy.o)
 .debug_info    0x000000000000a8ae      0x121 c:/intelfpga_lite/18.1/nios2eds/bin/gnu/h-x86_64-mingw32/bin/../lib/gcc/nios2-elf/5.3.0/../../../../../H-x86_64-mingw32/nios2-elf/lib\libc.a(lib_a-memset.o)
 .debug_info    0x000000000000a9cf      0x988 c:/intelfpga_lite/18.1/nios2eds/bin/gnu/h-x86_64-mingw32/bin/../lib/gcc/nios2-elf/5.3.0/../../../../../H-x86_64-mingw32/nios2-elf/lib\libc.a(lib_a-perror.o)
 .debug_info    0x000000000000b357      0x991 c:/intelfpga_lite/18.1/nios2eds/bin/gnu/h-x86_64-mingw32/bin/../lib/gcc/nios2-elf/5.3.0/../../../../../H-x86_64-mingw32/nios2-elf/lib\libc.a(lib_a-printf.o)
 .debug_info    0x000000000000bce8      0xa38 c:/intelfpga_lite/18.1/nios2eds/bin/gnu/h-x86_64-mingw32/bin/../lib/gcc/nios2-elf/5.3.0/../../../../../H-x86_64-mingw32/nios2-elf/lib\libc.a(lib_a-puts.o)
 .debug_info    0x000000000000c720      0x900 c:/intelfpga_lite/18.1/nios2eds/bin/gnu/h-x86_64-mingw32/bin/../lib/gcc/nios2-elf/5.3.0/../../../../../H-x86_64-mingw32/nios2-elf/lib\libc.a(lib_a-sbrkr.o)
 .debug_info    0x000000000000d020      0xa00 c:/intelfpga_lite/18.1/nios2eds/bin/gnu/h-x86_64-mingw32/bin/../lib/gcc/nios2-elf/5.3.0/../../../../../H-x86_64-mingw32/nios2-elf/lib\libc.a(lib_a-sprintf.o)
 .debug_info    0x000000000000da20      0x11d c:/intelfpga_lite/18.1/nios2eds/bin/gnu/h-x86_64-mingw32/bin/../lib/gcc/nios2-elf/5.3.0/../../../../../H-x86_64-mingw32/nios2-elf/lib\libc.a(lib_a-strchr.o)
 .debug_info    0x000000000000db3d       0xe4 c:/intelfpga_lite/18.1/nios2eds/bin/gnu/h-x86_64-mingw32/bin/../lib/gcc/nios2-elf/5.3.0/../../../../../H-x86_64-mingw32/nios2-elf/lib\libc.a(lib_a-strcmp.o)
 .debug_info    0x000000000000dc21      0x972 c:/intelfpga_lite/18.1/nios2eds/bin/gnu/h-x86_64-mingw32/bin/../lib/gcc/nios2-elf/5.3.0/../../../../../H-x86_64-mingw32/nios2-elf/lib\libc.a(lib_a-strerror.o)
 .debug_info    0x000000000000e593       0xe2 c:/intelfpga_lite/18.1/nios2eds/bin/gnu/h-x86_64-mingw32/bin/../lib/gcc/nios2-elf/5.3.0/../../../../../H-x86_64-mingw32/nios2-elf/lib\libc.a(lib_a-strlen.o)
 .debug_info    0x000000000000e675     0x14eb c:/intelfpga_lite/18.1/nios2eds/bin/gnu/h-x86_64-mingw32/bin/../lib/gcc/nios2-elf/5.3.0/../../../../../H-x86_64-mingw32/nios2-elf/lib\libc.a(lib_a-svfprintf.o)
 .debug_info    0x000000000000fb60       0x81 c:/intelfpga_lite/18.1/nios2eds/bin/gnu/h-x86_64-mingw32/bin/../lib/gcc/nios2-elf/5.3.0/../../../../../H-x86_64-mingw32/nios2-elf/lib\libc.a(lib_a-u_strerr.o)
 .debug_info    0x000000000000fbe1     0x16b8 c:/intelfpga_lite/18.1/nios2eds/bin/gnu/h-x86_64-mingw32/bin/../lib/gcc/nios2-elf/5.3.0/../../../../../H-x86_64-mingw32/nios2-elf/lib\libc.a(lib_a-vfprintf.o)
 .debug_info    0x0000000000011299      0x936 c:/intelfpga_lite/18.1/nios2eds/bin/gnu/h-x86_64-mingw32/bin/../lib/gcc/nios2-elf/5.3.0/../../../../../H-x86_64-mingw32/nios2-elf/lib\libc.a(lib_a-wsetup.o)
 .debug_info    0x0000000000011bcf     0x1247 c:/intelfpga_lite/18.1/nios2eds/bin/gnu/h-x86_64-mingw32/bin/../lib/gcc/nios2-elf/5.3.0/../../../../../H-x86_64-mingw32/nios2-elf/lib\libc.a(lib_a-dtoa.o)
 .debug_info    0x0000000000012e16      0xa93 c:/intelfpga_lite/18.1/nios2eds/bin/gnu/h-x86_64-mingw32/bin/../lib/gcc/nios2-elf/5.3.0/../../../../../H-x86_64-mingw32/nios2-elf/lib\libc.a(lib_a-fflush.o)
 .debug_info    0x00000000000138a9      0xd37 c:/intelfpga_lite/18.1/nios2eds/bin/gnu/h-x86_64-mingw32/bin/../lib/gcc/nios2-elf/5.3.0/../../../../../H-x86_64-mingw32/nios2-elf/lib\libc.a(lib_a-findfp.o)
 .debug_info    0x00000000000145e0      0x9c7 c:/intelfpga_lite/18.1/nios2eds/bin/gnu/h-x86_64-mingw32/bin/../lib/gcc/nios2-elf/5.3.0/../../../../../H-x86_64-mingw32/nios2-elf/lib\libc.a(lib_a-fputc.o)
 .debug_info    0x0000000000014fa7      0xa41 c:/intelfpga_lite/18.1/nios2eds/bin/gnu/h-x86_64-mingw32/bin/../lib/gcc/nios2-elf/5.3.0/../../../../../H-x86_64-mingw32/nios2-elf/lib\libc.a(lib_a-fputs.o)
 .debug_info    0x00000000000159e8      0xbf7 c:/intelfpga_lite/18.1/nios2eds/bin/gnu/h-x86_64-mingw32/bin/../lib/gcc/nios2-elf/5.3.0/../../../../../H-x86_64-mingw32/nios2-elf/lib\libc.a(lib_a-freer.o)
 .debug_info    0x00000000000165df      0xbb8 c:/intelfpga_lite/18.1/nios2eds/bin/gnu/h-x86_64-mingw32/bin/../lib/gcc/nios2-elf/5.3.0/../../../../../H-x86_64-mingw32/nios2-elf/lib\libc.a(lib_a-fvwrite.o)
 .debug_info    0x0000000000017197      0x9b0 c:/intelfpga_lite/18.1/nios2eds/bin/gnu/h-x86_64-mingw32/bin/../lib/gcc/nios2-elf/5.3.0/../../../../../H-x86_64-mingw32/nios2-elf/lib\libc.a(lib_a-fwalk.o)
 .debug_info    0x0000000000017b47       0x8a c:/intelfpga_lite/18.1/nios2eds/bin/gnu/h-x86_64-mingw32/bin/../lib/gcc/nios2-elf/5.3.0/../../../../../H-x86_64-mingw32/nios2-elf/lib\libc.a(lib_a-int_errno.o)
 .debug_info    0x0000000000017bd1      0xc25 c:/intelfpga_lite/18.1/nios2eds/bin/gnu/h-x86_64-mingw32/bin/../lib/gcc/nios2-elf/5.3.0/../../../../../H-x86_64-mingw32/nios2-elf/lib\libc.a(lib_a-locale.o)
 .debug_info    0x00000000000187f6      0xad8 c:/intelfpga_lite/18.1/nios2eds/bin/gnu/h-x86_64-mingw32/bin/../lib/gcc/nios2-elf/5.3.0/../../../../../H-x86_64-mingw32/nios2-elf/lib\libc.a(lib_a-makebuf.o)
 .debug_info    0x00000000000192ce      0x132 c:/intelfpga_lite/18.1/nios2eds/bin/gnu/h-x86_64-mingw32/bin/../lib/gcc/nios2-elf/5.3.0/../../../../../H-x86_64-mingw32/nios2-elf/lib\libc.a(lib_a-memchr.o)
 .debug_info    0x0000000000019400      0x13a c:/intelfpga_lite/18.1/nios2eds/bin/gnu/h-x86_64-mingw32/bin/../lib/gcc/nios2-elf/5.3.0/../../../../../H-x86_64-mingw32/nios2-elf/lib\libc.a(lib_a-memmove.o)
 .debug_info    0x000000000001953a     0x16b7 c:/intelfpga_lite/18.1/nios2eds/bin/gnu/h-x86_64-mingw32/bin/../lib/gcc/nios2-elf/5.3.0/../../../../../H-x86_64-mingw32/nios2-elf/lib\libc.a(lib_a-mprec.o)
 .debug_info    0x000000000001abf1      0x9b4 c:/intelfpga_lite/18.1/nios2eds/bin/gnu/h-x86_64-mingw32/bin/../lib/gcc/nios2-elf/5.3.0/../../../../../H-x86_64-mingw32/nios2-elf/lib\libc.a(lib_a-putc.o)
 .debug_info    0x000000000001b5a5      0xc6b c:/intelfpga_lite/18.1/nios2eds/bin/gnu/h-x86_64-mingw32/bin/../lib/gcc/nios2-elf/5.3.0/../../../../../H-x86_64-mingw32/nios2-elf/lib\libc.a(lib_a-reallocr.o)
 .debug_info    0x000000000001c210       0xdc c:/intelfpga_lite/18.1/nios2eds/bin/gnu/h-x86_64-mingw32/bin/../lib/gcc/nios2-elf/5.3.0/../../../../../H-x86_64-mingw32/nios2-elf/lib\libc.a(lib_a-s_fpclassify.o)
 .debug_info    0x000000000001c2ec      0xb32 c:/intelfpga_lite/18.1/nios2eds/bin/gnu/h-x86_64-mingw32/bin/../lib/gcc/nios2-elf/5.3.0/../../../../../H-x86_64-mingw32/nios2-elf/lib\libc.a(lib_a-stdio.o)
 .debug_info    0x000000000001ce1e      0xf8d c:/intelfpga_lite/18.1/nios2eds/bin/gnu/h-x86_64-mingw32/bin/../lib/gcc/nios2-elf/5.3.0/../../../../../H-x86_64-mingw32/nios2-elf/lib\libc.a(lib_a-svfiprintf.o)
 .debug_info    0x000000000001ddab     0x1535 c:/intelfpga_lite/18.1/nios2eds/bin/gnu/h-x86_64-mingw32/bin/../lib/gcc/nios2-elf/5.3.0/../../../../../H-x86_64-mingw32/nios2-elf/lib\libc.a(lib_a-vfiprintf.o)
 .debug_info    0x000000000001f2e0      0x9be c:/intelfpga_lite/18.1/nios2eds/bin/gnu/h-x86_64-mingw32/bin/../lib/gcc/nios2-elf/5.3.0/../../../../../H-x86_64-mingw32/nios2-elf/lib\libc.a(lib_a-wbuf.o)
 .debug_info    0x000000000001fc9e      0x928 c:/intelfpga_lite/18.1/nios2eds/bin/gnu/h-x86_64-mingw32/bin/../lib/gcc/nios2-elf/5.3.0/../../../../../H-x86_64-mingw32/nios2-elf/lib\libc.a(lib_a-writer.o)
 .debug_info    0x00000000000205c6      0x8df c:/intelfpga_lite/18.1/nios2eds/bin/gnu/h-x86_64-mingw32/bin/../lib/gcc/nios2-elf/5.3.0/../../../../../H-x86_64-mingw32/nios2-elf/lib\libc.a(closer.o)
 .debug_info    0x0000000000020ea5      0xa23 c:/intelfpga_lite/18.1/nios2eds/bin/gnu/h-x86_64-mingw32/bin/../lib/gcc/nios2-elf/5.3.0/../../../../../H-x86_64-mingw32/nios2-elf/lib\libc.a(lib_a-fclose.o)
 .debug_info    0x00000000000218c8      0xad4 c:/intelfpga_lite/18.1/nios2eds/bin/gnu/h-x86_64-mingw32/bin/../lib/gcc/nios2-elf/5.3.0/../../../../../H-x86_64-mingw32/nios2-elf/lib\libc.a(lib_a-fputwc.o)
 .debug_info    0x000000000002239c      0xa5d c:/intelfpga_lite/18.1/nios2eds/bin/gnu/h-x86_64-mingw32/bin/../lib/gcc/nios2-elf/5.3.0/../../../../../H-x86_64-mingw32/nios2-elf/lib\libc.a(lib_a-fstatr.o)
 .debug_info    0x0000000000022df9      0x8df c:/intelfpga_lite/18.1/nios2eds/bin/gnu/h-x86_64-mingw32/bin/../lib/gcc/nios2-elf/5.3.0/../../../../../H-x86_64-mingw32/nios2-elf/lib\libc.a(lib_a-isattyr.o)
 .debug_info    0x00000000000236d8      0x90b c:/intelfpga_lite/18.1/nios2eds/bin/gnu/h-x86_64-mingw32/bin/../lib/gcc/nios2-elf/5.3.0/../../../../../H-x86_64-mingw32/nios2-elf/lib\libc.a(lib_a-lseekr.o)
 .debug_info    0x0000000000023fe3      0x921 c:/intelfpga_lite/18.1/nios2eds/bin/gnu/h-x86_64-mingw32/bin/../lib/gcc/nios2-elf/5.3.0/../../../../../H-x86_64-mingw32/nios2-elf/lib\libc.a(lib_a-readr.o)
 .debug_info    0x0000000000024904      0xa82 c:/intelfpga_lite/18.1/nios2eds/bin/gnu/h-x86_64-mingw32/bin/../lib/gcc/nios2-elf/5.3.0/../../../../../H-x86_64-mingw32/nios2-elf/lib\libc.a(lib_a-wcrtomb.o)
 .debug_info    0x0000000000025386      0x9b1 c:/intelfpga_lite/18.1/nios2eds/bin/gnu/h-x86_64-mingw32/bin/../lib/gcc/nios2-elf/5.3.0/../../../../../H-x86_64-mingw32/nios2-elf/lib\libc.a(lib_a-wctomb_r.o)
 .debug_info    0x0000000000025d37      0x70e c:/intelfpga_lite/18.1/nios2eds/bin/gnu/h-x86_64-mingw32/bin/../lib/gcc/nios2-elf/5.3.0\libgcc.a(_udivdi3.o)
 .debug_info    0x0000000000026445      0x765 c:/intelfpga_lite/18.1/nios2eds/bin/gnu/h-x86_64-mingw32/bin/../lib/gcc/nios2-elf/5.3.0\libgcc.a(_umoddi3.o)
 .debug_info    0x0000000000026baa      0x1e2 c:/intelfpga_lite/18.1/nios2eds/bin/gnu/h-x86_64-mingw32/bin/../lib/gcc/nios2-elf/5.3.0\libgcc.a(eqdf2.o)
 .debug_info    0x0000000000026d8c      0x202 c:/intelfpga_lite/18.1/nios2eds/bin/gnu/h-x86_64-mingw32/bin/../lib/gcc/nios2-elf/5.3.0\libgcc.a(gedf2.o)
 .debug_info    0x0000000000026f8e      0x204 c:/intelfpga_lite/18.1/nios2eds/bin/gnu/h-x86_64-mingw32/bin/../lib/gcc/nios2-elf/5.3.0\libgcc.a(ledf2.o)
 .debug_info    0x0000000000027192      0x4a2 c:/intelfpga_lite/18.1/nios2eds/bin/gnu/h-x86_64-mingw32/bin/../lib/gcc/nios2-elf/5.3.0\libgcc.a(subdf3.o)
 .debug_info    0x0000000000027634      0x1ae c:/intelfpga_lite/18.1/nios2eds/bin/gnu/h-x86_64-mingw32/bin/../lib/gcc/nios2-elf/5.3.0\libgcc.a(fixdfsi.o)
 .debug_info    0x00000000000277e2      0x4bc ../candy_avb_sss_bsp/\libucosii_bsp.a(alt_fstat.o)
 .debug_info    0x0000000000027c9e      0x4bf ../candy_avb_sss_bsp/\libucosii_bsp.a(alt_isatty.o)
 .debug_info    0x000000000002815d      0x386 ../candy_avb_sss_bsp/\libucosii_bsp.a(alt_lseek.o)
 .debug_info    0x00000000000284e3      0x26d ../candy_avb_sss_bsp/\libucosii_bsp.a(alt_main.o)
 .debug_info    0x0000000000028750      0x1ac ../candy_avb_sss_bsp/\libucosii_bsp.a(alt_sbrk.o)
 .debug_info    0x00000000000288fc      0x141 ../candy_avb_sss_bsp/\libucosii_bsp.a(alt_usleep.o)
 .debug_info    0x0000000000028a3d      0xc67 ../candy_avb_sss_bsp/\libucosii_bsp.a(alt_env_lock.o)
 .debug_info    0x00000000000296a4      0xdad ../candy_avb_sss_bsp/\libucosii_bsp.a(alt_malloc_lock.o)
 .debug_info    0x000000000002a451     0x15b9 ../candy_avb_sss_bsp/\libucosii_bsp.a(os_core.o)
 .debug_info    0x000000000002ba0a      0xaa8 ../candy_avb_sss_bsp/\libucosii_bsp.a(os_dbg.o)
 .debug_info    0x000000000002c4b2      0xf9c ../candy_avb_sss_bsp/\libucosii_bsp.a(os_flag.o)
 .debug_info    0x000000000002d44e      0x67a ../candy_avb_sss_bsp/\libucosii_bsp.a(os_mem.o)
 .debug_info    0x000000000002dac8      0xda3 ../candy_avb_sss_bsp/\libucosii_bsp.a(os_q.o)
 .debug_info    0x000000000002e86b      0xa04 ../candy_avb_sss_bsp/\libucosii_bsp.a(os_sem.o)
 .debug_info    0x000000000002f26f     0x1117 ../candy_avb_sss_bsp/\libucosii_bsp.a(os_task.o)
 .debug_info    0x0000000000030386      0x6e9 ../candy_avb_sss_bsp/\libucosii_bsp.a(os_time.o)
 .debug_info    0x0000000000030a6f     0x13a9 ../candy_avb_sss_bsp/\libucosii_bsp.a(alt_sys_init.o)
 .debug_info    0x0000000000031e18      0x67b ../candy_avb_sss_bsp/\libucosii_bsp.a(altera_avalon_jtag_uart_fd.o)
 .debug_info    0x0000000000032493      0x6b3 ../candy_avb_sss_bsp/\libucosii_bsp.a(altera_avalon_jtag_uart_init.o)
 .debug_info    0x0000000000032b46      0x3cd ../candy_avb_sss_bsp/\libucosii_bsp.a(altera_avalon_jtag_uart_ioctl.o)
 .debug_info    0x0000000000032f13      0x57a ../candy_avb_sss_bsp/\libucosii_bsp.a(altera_avalon_jtag_uart_read.o)
 .debug_info    0x000000000003348d      0x579 ../candy_avb_sss_bsp/\libucosii_bsp.a(altera_avalon_jtag_uart_write.o)
 .debug_info    0x0000000000033a06      0x226 ../candy_avb_sss_bsp/\libucosii_bsp.a(altera_avalon_timer_sc.o)
 .debug_info    0x0000000000033c2c      0x5aa ../candy_avb_sss_bsp/\libucosii_bsp.a(altera_avalon_uart_fd.o)
 .debug_info    0x00000000000341d6      0x5ed ../candy_avb_sss_bsp/\libucosii_bsp.a(altera_avalon_uart_init.o)
 .debug_info    0x00000000000347c3      0x569 ../candy_avb_sss_bsp/\libucosii_bsp.a(altera_avalon_uart_read.o)
 .debug_info    0x0000000000034d2c      0x56e ../candy_avb_sss_bsp/\libucosii_bsp.a(altera_avalon_uart_write.o)
 .debug_info    0x000000000003529a      0x87c ../candy_avb_sss_bsp/\libucosii_bsp.a(altera_modular_adc.o)
 .debug_info    0x0000000000035b16     0x1ab0 ../candy_avb_sss_bsp/\libucosii_bsp.a(altera_msgdma.o)
 .debug_info    0x00000000000375c6      0x975 ../candy_avb_sss_bsp/\libucosii_bsp.a(altera_onchip_flash.o)
 .debug_info    0x0000000000037f3b     0x1e18 ../candy_avb_sss_bsp/\libucosii_bsp.a(ins_tse_mac.o)
 .debug_info    0x0000000000039d53       0xdc ../candy_avb_sss_bsp/\libucosii_bsp.a(alt_iniche_close.o)
 .debug_info    0x0000000000039e2f      0x72f ../candy_avb_sss_bsp/\libucosii_bsp.a(alt_iniche_dev.o)
 .debug_info    0x000000000003a55e      0x105 ../candy_avb_sss_bsp/\libucosii_bsp.a(alt_iniche_read.o)
 .debug_info    0x000000000003a663      0x10a ../candy_avb_sss_bsp/\libucosii_bsp.a(alt_iniche_write.o)
 .debug_info    0x000000000003a76d      0x843 ../candy_avb_sss_bsp/\libucosii_bsp.a(ipnet.o)
 .debug_info    0x000000000003afb0      0x7a3 ../candy_avb_sss_bsp/\libucosii_bsp.a(ipstart.o)
 .debug_info    0x000000000003b753      0xc98 ../candy_avb_sss_bsp/\libucosii_bsp.a(igmp_cmn.o)
 .debug_info    0x000000000003c3eb      0xe8a ../candy_avb_sss_bsp/\libucosii_bsp.a(bsdsock.o)
 .debug_info    0x000000000003d275      0x164 ../candy_avb_sss_bsp/\libucosii_bsp.a(cksum.o)
 .debug_info    0x000000000003d3d9      0x585 ../candy_avb_sss_bsp/\libucosii_bsp.a(in_utils.o)
 .debug_info    0x000000000003d95e      0x37f ../candy_avb_sss_bsp/\libucosii_bsp.a(netmain.o)
 .debug_info    0x000000000003dcdd      0x5cd ../candy_avb_sss_bsp/\libucosii_bsp.a(tk_crnos.o)
 .debug_info    0x000000000003e2aa      0xfe0 ../candy_avb_sss_bsp/\libucosii_bsp.a(dhcpclnt.o)
 .debug_info    0x000000000003f28a       0xff ../candy_avb_sss_bsp/\libucosii_bsp.a(dhcputil.o)
 .debug_info    0x000000000003f389      0x86e ../candy_avb_sss_bsp/\libucosii_bsp.a(pktalloc.o)
 .debug_info    0x000000000003fbf7      0x1ee ../candy_avb_sss_bsp/\libucosii_bsp.a(q.o)
 .debug_info    0x000000000003fde5      0x74b ../candy_avb_sss_bsp/\libucosii_bsp.a(udp_open.o)
 .debug_info    0x0000000000040530       0x9c ../candy_avb_sss_bsp/\libucosii_bsp.a(asm_cksum.o)
 .debug_info    0x00000000000405cc      0xa7d ../candy_avb_sss_bsp/\libucosii_bsp.a(brdutils.o)
 .debug_info    0x0000000000041049      0x496 ../candy_avb_sss_bsp/\libucosii_bsp.a(osportco.o)
 .debug_info    0x00000000000414df      0x4af ../candy_avb_sss_bsp/\libucosii_bsp.a(targnios.o)
 .debug_info    0x000000000004198e     0x18ef ../candy_avb_sss_bsp/\libucosii_bsp.a(nptcp.o)
 .debug_info    0x000000000004327d      0xc52 ../candy_avb_sss_bsp/\libucosii_bsp.a(rawsock.o)
 .debug_info    0x0000000000043ecf     0x155a ../candy_avb_sss_bsp/\libucosii_bsp.a(sockcall.o)
 .debug_info    0x0000000000045429     0x1326 ../candy_avb_sss_bsp/\libucosii_bsp.a(socket.o)
 .debug_info    0x000000000004674f      0xf20 ../candy_avb_sss_bsp/\libucosii_bsp.a(socket2.o)
 .debug_info    0x000000000004766f      0xcc4 ../candy_avb_sss_bsp/\libucosii_bsp.a(soselect.o)
 .debug_info    0x0000000000048333     0x15b9 ../candy_avb_sss_bsp/\libucosii_bsp.a(tcp_in.o)
 .debug_info    0x00000000000498ec     0x1331 ../candy_avb_sss_bsp/\libucosii_bsp.a(tcp_out.o)
 .debug_info    0x000000000004ac1d     0x138c ../candy_avb_sss_bsp/\libucosii_bsp.a(tcp_subr.o)
 .debug_info    0x000000000004bfa9     0x11e8 ../candy_avb_sss_bsp/\libucosii_bsp.a(tcp_timr.o)
 .debug_info    0x000000000004d191     0x11bc ../candy_avb_sss_bsp/\libucosii_bsp.a(tcp_usr.o)
 .debug_info    0x000000000004e34d       0xdb ../candy_avb_sss_bsp/\libucosii_bsp.a(tcpport.o)
 .debug_info    0x000000000004e428      0xd9d ../candy_avb_sss_bsp/\libucosii_bsp.a(udpsock.o)
 .debug_info    0x000000000004f1c5      0x2cc ../candy_avb_sss_bsp/\libucosii_bsp.a(alt_alarm_start.o)
 .debug_info    0x000000000004f491       0xd7 ../candy_avb_sss_bsp/\libucosii_bsp.a(alt_busy_sleep.o)
 .debug_info    0x000000000004f568      0x355 ../candy_avb_sss_bsp/\libucosii_bsp.a(alt_close.o)
 .debug_info    0x000000000004f8bd       0xdc ../candy_avb_sss_bsp/\libucosii_bsp.a(alt_dcache_flush.o)
 .debug_info    0x000000000004f999      0x585 ../candy_avb_sss_bsp/\libucosii_bsp.a(alt_dev.o)
 .debug_info    0x000000000004ff1e      0x1a9 ../candy_avb_sss_bsp/\libucosii_bsp.a(alt_dev_llist_insert.o)
 .debug_info    0x00000000000500c7       0x83 ../candy_avb_sss_bsp/\libucosii_bsp.a(alt_do_ctors.o)
 .debug_info    0x000000000005014a       0x83 ../candy_avb_sss_bsp/\libucosii_bsp.a(alt_do_dtors.o)
 .debug_info    0x00000000000501cd       0xa6 ../candy_avb_sss_bsp/\libucosii_bsp.a(alt_errno.o)
 .debug_info    0x0000000000050273      0x31d ../candy_avb_sss_bsp/\libucosii_bsp.a(alt_find_dev.o)
 .debug_info    0x0000000000050590      0x400 ../candy_avb_sss_bsp/\libucosii_bsp.a(alt_flash_dev.o)
 .debug_info    0x0000000000050990      0x350 ../candy_avb_sss_bsp/\libucosii_bsp.a(alt_iic.o)
 .debug_info    0x0000000000050ce0      0x1ef ../candy_avb_sss_bsp/\libucosii_bsp.a(alt_iic_isr_register.o)
 .debug_info    0x0000000000050ecf      0x4d9 ../candy_avb_sss_bsp/\libucosii_bsp.a(alt_io_redirect.o)
 .debug_info    0x00000000000513a8       0x93 ../candy_avb_sss_bsp/\libucosii_bsp.a(alt_irq_entry.o)
 .debug_info    0x000000000005143b      0x1b0 ../candy_avb_sss_bsp/\libucosii_bsp.a(alt_irq_handler.o)
 .debug_info    0x00000000000515eb       0x88 ../candy_avb_sss_bsp/\libucosii_bsp.a(alt_irq_vars.o)
 .debug_info    0x0000000000051673      0x3e4 ../candy_avb_sss_bsp/\libucosii_bsp.a(alt_open.o)
 .debug_info    0x0000000000051a57      0x119 ../candy_avb_sss_bsp/\libucosii_bsp.a(alt_printf.o)
 .debug_info    0x0000000000051b70      0x8a6 ../candy_avb_sss_bsp/\libucosii_bsp.a(alt_putchar.o)
 .debug_info    0x0000000000052416      0x4e4 ../candy_avb_sss_bsp/\libucosii_bsp.a(alt_read.o)
 .debug_info    0x00000000000528fa      0x2f9 ../candy_avb_sss_bsp/\libucosii_bsp.a(alt_release_fd.o)
 .debug_info    0x0000000000052bf3       0xcb ../candy_avb_sss_bsp/\libucosii_bsp.a(alt_remap_cached.o)
 .debug_info    0x0000000000052cbe      0x2a7 ../candy_avb_sss_bsp/\libucosii_bsp.a(alt_tick.o)
 .debug_info    0x0000000000052f65       0xb7 ../candy_avb_sss_bsp/\libucosii_bsp.a(alt_uncached_free.o)
 .debug_info    0x000000000005301c       0xf7 ../candy_avb_sss_bsp/\libucosii_bsp.a(alt_uncached_malloc.o)
 .debug_info    0x0000000000053113      0x4eb ../candy_avb_sss_bsp/\libucosii_bsp.a(alt_write.o)
 .debug_info    0x00000000000535fe       0x92 ../candy_avb_sss_bsp/\libucosii_bsp.a(altera_nios2_gen2_irq.o)
 .debug_info    0x0000000000053690       0x92 ../candy_avb_sss_bsp/\libucosii_bsp.a(os_cpu_a.o)
 .debug_info    0x0000000000053722      0xcea ../candy_avb_sss_bsp/\libucosii_bsp.a(os_cpu_c.o)
 .debug_info    0x000000000005440c     0x2681 ../candy_avb_sss_bsp/\libucosii_bsp.a(altera_avalon_tse.o)
 .debug_info    0x0000000000056a8d      0x908 ../candy_avb_sss_bsp/\libucosii_bsp.a(allports.o)
 .debug_info    0x0000000000057395      0x25e ../candy_avb_sss_bsp/\libucosii_bsp.a(timeouts.o)
 .debug_info    0x00000000000575f3      0x119 ../candy_avb_sss_bsp/\libucosii_bsp.a(tk_misc.o)
 .debug_info    0x000000000005770c      0x124 ../candy_avb_sss_bsp/\libucosii_bsp.a(alt_iniche_fcntl.o)
 .debug_info    0x0000000000057830      0xdb5 ../candy_avb_sss_bsp/\libucosii_bsp.a(et_arp.o)
 .debug_info    0x00000000000585e5      0xa5d ../candy_avb_sss_bsp/\libucosii_bsp.a(iface.o)
 .debug_info    0x0000000000059042      0xfd4 ../candy_avb_sss_bsp/\libucosii_bsp.a(ip.o)
 .debug_info    0x000000000005a016     0x1063 ../candy_avb_sss_bsp/\libucosii_bsp.a(ip_reasm.o)
 .debug_info    0x000000000005b079      0x8f0 ../candy_avb_sss_bsp/\libucosii_bsp.a(ipdemux.o)
 .debug_info    0x000000000005b969      0x6a7 ../candy_avb_sss_bsp/\libucosii_bsp.a(ipmc.o)
 .debug_info    0x000000000005c010      0x1a8 ../candy_avb_sss_bsp/\libucosii_bsp.a(ipport.o)
 .debug_info    0x000000000005c1b8      0x9ed ../candy_avb_sss_bsp/\libucosii_bsp.a(ipraw.o)
 .debug_info    0x000000000005cba5      0x969 ../candy_avb_sss_bsp/\libucosii_bsp.a(iproute.o)
 .debug_info    0x000000000005d50e      0xcb9 ../candy_avb_sss_bsp/\libucosii_bsp.a(udp.o)
 .debug_info    0x000000000005e1c7      0x973 ../candy_avb_sss_bsp/\libucosii_bsp.a(igmp.o)
 .debug_info    0x000000000005eb3a      0xaf9 ../candy_avb_sss_bsp/\libucosii_bsp.a(igmp2.o)
 .debug_info    0x000000000005f633      0xb53 ../candy_avb_sss_bsp/\libucosii_bsp.a(ipopt.o)
 .debug_info    0x0000000000060186      0x7e1 ../candy_avb_sss_bsp/\libucosii_bsp.a(u_mctest.o)
 .debug_info    0x0000000000060967      0x6bd ../candy_avb_sss_bsp/\libucosii_bsp.a(dhcsetup.o)
 .debug_info    0x0000000000061024      0x551 ../candy_avb_sss_bsp/\libucosii_bsp.a(memdev.o)
 .debug_info    0x0000000000061575      0x533 ../candy_avb_sss_bsp/\libucosii_bsp.a(parseip.o)
 .debug_info    0x0000000000061aa8      0x26e ../candy_avb_sss_bsp/\libucosii_bsp.a(tcpcksum.o)
 .debug_info    0x0000000000061d16      0xcc0 ../candy_avb_sss_bsp/\libucosii_bsp.a(in_pcb.o)
 .debug_info    0x00000000000629d6      0xc7f ../candy_avb_sss_bsp/\libucosii_bsp.a(vfsfiles.o)
 .debug_info    0x0000000000063655       0xdb ../candy_avb_sss_bsp/\libucosii_bsp.a(vfsport.o)
 .debug_info    0x0000000000063730       0x99 ../candy_avb_sss_bsp/\libucosii_bsp.a(alt_exception_entry.o)
 .debug_info    0x00000000000637c9      0x4f6 ../candy_avb_sss_bsp/\libucosii_bsp.a(alt_fcntl.o)
 .debug_info    0x0000000000063cbf      0x31a ../candy_avb_sss_bsp/\libucosii_bsp.a(alt_find_file.o)
 .debug_info    0x0000000000063fd9      0x44b ../candy_avb_sss_bsp/\libucosii_bsp.a(alt_get_fd.o)
 .debug_info    0x0000000000064424      0x1e7 ../candy_avb_sss_bsp/\libucosii_bsp.a(alt_instruction_exception_entry.o)
 .debug_info    0x000000000006460b      0xb8f ../candy_avb_sss_bsp/\libucosii_bsp.a(icmp.o)
 .debug_info    0x000000000006519a       0xfe c:/intelfpga_lite/18.1/nios2eds/bin/gnu/h-x86_64-mingw32/bin/../lib/gcc/nios2-elf/5.3.0/../../../../../H-x86_64-mingw32/nios2-elf/lib\libc.a(lib_a-atexit.o)
 .debug_info    0x0000000000065298      0x924 c:/intelfpga_lite/18.1/nios2eds/bin/gnu/h-x86_64-mingw32/bin/../lib/gcc/nios2-elf/5.3.0/../../../../../H-x86_64-mingw32/nios2-elf/lib\libc.a(lib_a-atoi.o)
 .debug_info    0x0000000000065bbc      0x8e4 c:/intelfpga_lite/18.1/nios2eds/bin/gnu/h-x86_64-mingw32/bin/../lib/gcc/nios2-elf/5.3.0/../../../../../H-x86_64-mingw32/nios2-elf/lib\libc.a(lib_a-exit.o)
 .debug_info    0x00000000000664a0      0x9a2 c:/intelfpga_lite/18.1/nios2eds/bin/gnu/h-x86_64-mingw32/bin/../lib/gcc/nios2-elf/5.3.0/../../../../../H-x86_64-mingw32/nios2-elf/lib\libc.a(lib_a-getc.o)
 .debug_info    0x0000000000066e42      0x8e6 c:/intelfpga_lite/18.1/nios2eds/bin/gnu/h-x86_64-mingw32/bin/../lib/gcc/nios2-elf/5.3.0/../../../../../H-x86_64-mingw32/nios2-elf/lib\libc.a(lib_a-malign.o)
 .debug_info    0x0000000000067728      0xa5d c:/intelfpga_lite/18.1/nios2eds/bin/gnu/h-x86_64-mingw32/bin/../lib/gcc/nios2-elf/5.3.0/../../../../../H-x86_64-mingw32/nios2-elf/lib\libc.a(lib_a-malignr.o)
 .debug_info    0x0000000000068185      0x11a c:/intelfpga_lite/18.1/nios2eds/bin/gnu/h-x86_64-mingw32/bin/../lib/gcc/nios2-elf/5.3.0/../../../../../H-x86_64-mingw32/nios2-elf/lib\libc.a(lib_a-memcmp.o)
 .debug_info    0x000000000006829f      0x922 c:/intelfpga_lite/18.1/nios2eds/bin/gnu/h-x86_64-mingw32/bin/../lib/gcc/nios2-elf/5.3.0/../../../../../H-x86_64-mingw32/nios2-elf/lib\libc.a(lib_a-putchar.o)
 .debug_info    0x0000000000068bc1      0x950 c:/intelfpga_lite/18.1/nios2eds/bin/gnu/h-x86_64-mingw32/bin/../lib/gcc/nios2-elf/5.3.0/../../../../../H-x86_64-mingw32/nios2-elf/lib\libc.a(lib_a-rget.o)
 .debug_info    0x0000000000069511      0x117 c:/intelfpga_lite/18.1/nios2eds/bin/gnu/h-x86_64-mingw32/bin/../lib/gcc/nios2-elf/5.3.0/../../../../../H-x86_64-mingw32/nios2-elf/lib\libc.a(lib_a-strcpy.o)
 .debug_info    0x0000000000069628       0xfc c:/intelfpga_lite/18.1/nios2eds/bin/gnu/h-x86_64-mingw32/bin/../lib/gcc/nios2-elf/5.3.0/../../../../../H-x86_64-mingw32/nios2-elf/lib\libc.a(lib_a-strncmp.o)
 .debug_info    0x0000000000069724      0x13b c:/intelfpga_lite/18.1/nios2eds/bin/gnu/h-x86_64-mingw32/bin/../lib/gcc/nios2-elf/5.3.0/../../../../../H-x86_64-mingw32/nios2-elf/lib\libc.a(lib_a-strncpy.o)
 .debug_info    0x000000000006985f      0x9c5 c:/intelfpga_lite/18.1/nios2eds/bin/gnu/h-x86_64-mingw32/bin/../lib/gcc/nios2-elf/5.3.0/../../../../../H-x86_64-mingw32/nios2-elf/lib\libc.a(lib_a-strtol.o)
 .debug_info    0x000000000006a224      0x971 c:/intelfpga_lite/18.1/nios2eds/bin/gnu/h-x86_64-mingw32/bin/../lib/gcc/nios2-elf/5.3.0/../../../../../H-x86_64-mingw32/nios2-elf/lib\libc.a(lib_a-vprintf.o)
 .debug_info    0x000000000006ab95      0x9c7 c:/intelfpga_lite/18.1/nios2eds/bin/gnu/h-x86_64-mingw32/bin/../lib/gcc/nios2-elf/5.3.0/../../../../../H-x86_64-mingw32/nios2-elf/lib\libc.a(lib_a-vsprintf.o)
 .debug_info    0x000000000006b55c      0x934 c:/intelfpga_lite/18.1/nios2eds/bin/gnu/h-x86_64-mingw32/bin/../lib/gcc/nios2-elf/5.3.0/../../../../../H-x86_64-mingw32/nios2-elf/lib\libc.a(lib_a-__atexit.o)
 .debug_info    0x000000000006be90      0x965 c:/intelfpga_lite/18.1/nios2eds/bin/gnu/h-x86_64-mingw32/bin/../lib/gcc/nios2-elf/5.3.0/../../../../../H-x86_64-mingw32/nios2-elf/lib\libc.a(lib_a-__call_atexit.o)
 .debug_info    0x000000000006c7f5       0x96 c:/intelfpga_lite/18.1/nios2eds/bin/gnu/h-x86_64-mingw32/bin/../lib/gcc/nios2-elf/5.3.0/../../../../../H-x86_64-mingw32/nios2-elf/lib\libc.a(lib_a-ctype_.o)
 .debug_info    0x000000000006c88b      0xa08 c:/intelfpga_lite/18.1/nios2eds/bin/gnu/h-x86_64-mingw32/bin/../lib/gcc/nios2-elf/5.3.0/../../../../../H-x86_64-mingw32/nios2-elf/lib\libc.a(lib_a-refill.o)
 .debug_info    0x000000000006d293      0x934 c:/intelfpga_lite/18.1/nios2eds/bin/gnu/h-x86_64-mingw32/bin/../lib/gcc/nios2-elf/5.3.0/../../../../../H-x86_64-mingw32/nios2-elf/lib\libc.a(lib_a-vfprintfr_1.o)
 .debug_info    0x000000000006dbc7      0x13b ../candy_avb_sss_bsp/\libucosii_bsp.a(alt_exit.o)

.debug_abbrev   0x0000000000000000    0x16eb2
 *(.debug_abbrev)
 .debug_abbrev  0x0000000000000000       0x14 ../candy_avb_sss_bsp//obj/HAL/src/crt0.o
 .debug_abbrev  0x0000000000000014      0x130 obj/default/SigmaStudioFW.o
 .debug_abbrev  0x0000000000000144      0x226 obj/default/alt_error_handler.o
 .debug_abbrev  0x000000000000036a      0x134 obj/default/iniche_init.o
 .debug_abbrev  0x000000000000049e      0x12d obj/default/network_utilities.o
 .debug_abbrev  0x00000000000005cb      0x2a3 obj/default/osc.o
 .debug_abbrev  0x000000000000086e      0x115 obj/default/osc_server.o
 .debug_abbrev  0x0000000000000983      0x18c obj/default/sigmadsp.o
 .debug_abbrev  0x0000000000000b0f      0x110 obj/default/tse_my_system.o
 .debug_abbrev  0x0000000000000c1f       0x6f c:/intelfpga_lite/18.1/nios2eds/bin/gnu/h-x86_64-mingw32/bin/../lib/gcc/nios2-elf/5.3.0\libgcc.a(_floatdisf.o)
 .debug_abbrev  0x0000000000000c8e      0x13c c:/intelfpga_lite/18.1/nios2eds/bin/gnu/h-x86_64-mingw32/bin/../lib/gcc/nios2-elf/5.3.0\libgcc.a(addsf3.o)
 .debug_abbrev  0x0000000000000dca      0x12d c:/intelfpga_lite/18.1/nios2eds/bin/gnu/h-x86_64-mingw32/bin/../lib/gcc/nios2-elf/5.3.0\libgcc.a(mulsf3.o)
 .debug_abbrev  0x0000000000000ef7      0x135 c:/intelfpga_lite/18.1/nios2eds/bin/gnu/h-x86_64-mingw32/bin/../lib/gcc/nios2-elf/5.3.0\libgcc.a(fixsfsi.o)
 .debug_abbrev  0x000000000000102c      0x147 c:/intelfpga_lite/18.1/nios2eds/bin/gnu/h-x86_64-mingw32/bin/../lib/gcc/nios2-elf/5.3.0\libgcc.a(floatsisf.o)
 .debug_abbrev  0x0000000000001173      0x13a c:/intelfpga_lite/18.1/nios2eds/bin/gnu/h-x86_64-mingw32/bin/../lib/gcc/nios2-elf/5.3.0\libgcc.a(adddf3.o)
 .debug_abbrev  0x00000000000012ad      0x12d c:/intelfpga_lite/18.1/nios2eds/bin/gnu/h-x86_64-mingw32/bin/../lib/gcc/nios2-elf/5.3.0\libgcc.a(divdf3.o)
 .debug_abbrev  0x00000000000013da      0x13f c:/intelfpga_lite/18.1/nios2eds/bin/gnu/h-x86_64-mingw32/bin/../lib/gcc/nios2-elf/5.3.0\libgcc.a(muldf3.o)
 .debug_abbrev  0x0000000000001519      0x124 c:/intelfpga_lite/18.1/nios2eds/bin/gnu/h-x86_64-mingw32/bin/../lib/gcc/nios2-elf/5.3.0\libgcc.a(floatsidf.o)
 .debug_abbrev  0x000000000000163d      0x124 c:/intelfpga_lite/18.1/nios2eds/bin/gnu/h-x86_64-mingw32/bin/../lib/gcc/nios2-elf/5.3.0\libgcc.a(floatunsidf.o)
 .debug_abbrev  0x0000000000001761      0x124 c:/intelfpga_lite/18.1/nios2eds/bin/gnu/h-x86_64-mingw32/bin/../lib/gcc/nios2-elf/5.3.0\libgcc.a(extendsfdf2.o)
 .debug_abbrev  0x0000000000001885      0x11b c:/intelfpga_lite/18.1/nios2eds/bin/gnu/h-x86_64-mingw32/bin/../lib/gcc/nios2-elf/5.3.0\libgcc.a(truncdfsf2.o)
 .debug_abbrev  0x00000000000019a0       0xbe c:/intelfpga_lite/18.1/nios2eds/bin/gnu/h-x86_64-mingw32/bin/../lib/gcc/nios2-elf/5.3.0\libgcc.a(_clzsi2.o)
 .debug_abbrev  0x0000000000001a5e      0x10e c:/intelfpga_lite/18.1/nios2eds/bin/gnu/h-x86_64-mingw32/bin/../lib/gcc/nios2-elf/5.3.0\libgcc.a(lib2-divmod.o)
 .debug_abbrev  0x0000000000001b6c       0x5d c:/intelfpga_lite/18.1/nios2eds/bin/gnu/h-x86_64-mingw32/bin/../lib/gcc/nios2-elf/5.3.0\libgcc.a(_clz.o)
 .debug_abbrev  0x0000000000001bc9      0x1e9 c:/intelfpga_lite/18.1/nios2eds/bin/gnu/h-x86_64-mingw32/bin/../lib/gcc/nios2-elf/5.3.0/../../../../../H-x86_64-mingw32/nios2-elf/lib\libc.a(lib_a-calloc.o)
 .debug_abbrev  0x0000000000001db2      0x209 c:/intelfpga_lite/18.1/nios2eds/bin/gnu/h-x86_64-mingw32/bin/../lib/gcc/nios2-elf/5.3.0/../../../../../H-x86_64-mingw32/nios2-elf/lib\libc.a(lib_a-callocr.o)
 .debug_abbrev  0x0000000000001fbb      0x215 c:/intelfpga_lite/18.1/nios2eds/bin/gnu/h-x86_64-mingw32/bin/../lib/gcc/nios2-elf/5.3.0/../../../../../H-x86_64-mingw32/nios2-elf/lib\libc.a(lib_a-fprintf.o)
 .debug_abbrev  0x00000000000021d0      0x24f c:/intelfpga_lite/18.1/nios2eds/bin/gnu/h-x86_64-mingw32/bin/../lib/gcc/nios2-elf/5.3.0/../../../../../H-x86_64-mingw32/nios2-elf/lib\libc.a(lib_a-fwrite.o)
 .debug_abbrev  0x000000000000241f      0x18f c:/intelfpga_lite/18.1/nios2eds/bin/gnu/h-x86_64-mingw32/bin/../lib/gcc/nios2-elf/5.3.0/../../../../../H-x86_64-mingw32/nios2-elf/lib\libc.a(lib_a-impure.o)
 .debug_abbrev  0x00000000000025ae      0x1f4 c:/intelfpga_lite/18.1/nios2eds/bin/gnu/h-x86_64-mingw32/bin/../lib/gcc/nios2-elf/5.3.0/../../../../../H-x86_64-mingw32/nios2-elf/lib\libc.a(lib_a-malloc.o)
 .debug_abbrev  0x00000000000027a2      0x29d c:/intelfpga_lite/18.1/nios2eds/bin/gnu/h-x86_64-mingw32/bin/../lib/gcc/nios2-elf/5.3.0/../../../../../H-x86_64-mingw32/nios2-elf/lib\libc.a(lib_a-mallocr.o)
 .debug_abbrev  0x0000000000002a3f       0xa3 c:/intelfpga_lite/18.1/nios2eds/bin/gnu/h-x86_64-mingw32/bin/../lib/gcc/nios2-elf/5.3.0/../../../../../H-x86_64-mingw32/nios2-elf/lib\libc.a(lib_a-memcpy.o)
 .debug_abbrev  0x0000000000002ae2       0xae c:/intelfpga_lite/18.1/nios2eds/bin/gnu/h-x86_64-mingw32/bin/../lib/gcc/nios2-elf/5.3.0/../../../../../H-x86_64-mingw32/nios2-elf/lib\libc.a(lib_a-memset.o)
 .debug_abbrev  0x0000000000002b90      0x233 c:/intelfpga_lite/18.1/nios2eds/bin/gnu/h-x86_64-mingw32/bin/../lib/gcc/nios2-elf/5.3.0/../../../../../H-x86_64-mingw32/nios2-elf/lib\libc.a(lib_a-perror.o)
 .debug_abbrev  0x0000000000002dc3      0x233 c:/intelfpga_lite/18.1/nios2eds/bin/gnu/h-x86_64-mingw32/bin/../lib/gcc/nios2-elf/5.3.0/../../../../../H-x86_64-mingw32/nios2-elf/lib\libc.a(lib_a-printf.o)
 .debug_abbrev  0x0000000000002ff6      0x249 c:/intelfpga_lite/18.1/nios2eds/bin/gnu/h-x86_64-mingw32/bin/../lib/gcc/nios2-elf/5.3.0/../../../../../H-x86_64-mingw32/nios2-elf/lib\libc.a(lib_a-puts.o)
 .debug_abbrev  0x000000000000323f      0x20a c:/intelfpga_lite/18.1/nios2eds/bin/gnu/h-x86_64-mingw32/bin/../lib/gcc/nios2-elf/5.3.0/../../../../../H-x86_64-mingw32/nios2-elf/lib\libc.a(lib_a-sbrkr.o)
 .debug_abbrev  0x0000000000003449      0x21d c:/intelfpga_lite/18.1/nios2eds/bin/gnu/h-x86_64-mingw32/bin/../lib/gcc/nios2-elf/5.3.0/../../../../../H-x86_64-mingw32/nios2-elf/lib\libc.a(lib_a-sprintf.o)
 .debug_abbrev  0x0000000000003666       0x83 c:/intelfpga_lite/18.1/nios2eds/bin/gnu/h-x86_64-mingw32/bin/../lib/gcc/nios2-elf/5.3.0/../../../../../H-x86_64-mingw32/nios2-elf/lib\libc.a(lib_a-strchr.o)
 .debug_abbrev  0x00000000000036e9       0x74 c:/intelfpga_lite/18.1/nios2eds/bin/gnu/h-x86_64-mingw32/bin/../lib/gcc/nios2-elf/5.3.0/../../../../../H-x86_64-mingw32/nios2-elf/lib\libc.a(lib_a-strcmp.o)
 .debug_abbrev  0x000000000000375d      0x218 c:/intelfpga_lite/18.1/nios2eds/bin/gnu/h-x86_64-mingw32/bin/../lib/gcc/nios2-elf/5.3.0/../../../../../H-x86_64-mingw32/nios2-elf/lib\libc.a(lib_a-strerror.o)
 .debug_abbrev  0x0000000000003975       0x90 c:/intelfpga_lite/18.1/nios2eds/bin/gnu/h-x86_64-mingw32/bin/../lib/gcc/nios2-elf/5.3.0/../../../../../H-x86_64-mingw32/nios2-elf/lib\libc.a(lib_a-strlen.o)
 .debug_abbrev  0x0000000000003a05      0x361 c:/intelfpga_lite/18.1/nios2eds/bin/gnu/h-x86_64-mingw32/bin/../lib/gcc/nios2-elf/5.3.0/../../../../../H-x86_64-mingw32/nios2-elf/lib\libc.a(lib_a-svfprintf.o)
 .debug_abbrev  0x0000000000003d66       0x5e c:/intelfpga_lite/18.1/nios2eds/bin/gnu/h-x86_64-mingw32/bin/../lib/gcc/nios2-elf/5.3.0/../../../../../H-x86_64-mingw32/nios2-elf/lib\libc.a(lib_a-u_strerr.o)
 .debug_abbrev  0x0000000000003dc4      0x3bf c:/intelfpga_lite/18.1/nios2eds/bin/gnu/h-x86_64-mingw32/bin/../lib/gcc/nios2-elf/5.3.0/../../../../../H-x86_64-mingw32/nios2-elf/lib\libc.a(lib_a-vfprintf.o)
 .debug_abbrev  0x0000000000004183      0x218 c:/intelfpga_lite/18.1/nios2eds/bin/gnu/h-x86_64-mingw32/bin/../lib/gcc/nios2-elf/5.3.0/../../../../../H-x86_64-mingw32/nios2-elf/lib\libc.a(lib_a-wsetup.o)
 .debug_abbrev  0x000000000000439b      0x2b8 c:/intelfpga_lite/18.1/nios2eds/bin/gnu/h-x86_64-mingw32/bin/../lib/gcc/nios2-elf/5.3.0/../../../../../H-x86_64-mingw32/nios2-elf/lib\libc.a(lib_a-dtoa.o)
 .debug_abbrev  0x0000000000004653      0x2a0 c:/intelfpga_lite/18.1/nios2eds/bin/gnu/h-x86_64-mingw32/bin/../lib/gcc/nios2-elf/5.3.0/../../../../../H-x86_64-mingw32/nios2-elf/lib\libc.a(lib_a-fflush.o)
 .debug_abbrev  0x00000000000048f3      0x391 c:/intelfpga_lite/18.1/nios2eds/bin/gnu/h-x86_64-mingw32/bin/../lib/gcc/nios2-elf/5.3.0/../../../../../H-x86_64-mingw32/nios2-elf/lib\libc.a(lib_a-findfp.o)
 .debug_abbrev  0x0000000000004c84      0x248 c:/intelfpga_lite/18.1/nios2eds/bin/gnu/h-x86_64-mingw32/bin/../lib/gcc/nios2-elf/5.3.0/../../../../../H-x86_64-mingw32/nios2-elf/lib\libc.a(lib_a-fputc.o)
 .debug_abbrev  0x0000000000004ecc      0x241 c:/intelfpga_lite/18.1/nios2eds/bin/gnu/h-x86_64-mingw32/bin/../lib/gcc/nios2-elf/5.3.0/../../../../../H-x86_64-mingw32/nios2-elf/lib\libc.a(lib_a-fputs.o)
 .debug_abbrev  0x000000000000510d      0x264 c:/intelfpga_lite/18.1/nios2eds/bin/gnu/h-x86_64-mingw32/bin/../lib/gcc/nios2-elf/5.3.0/../../../../../H-x86_64-mingw32/nios2-elf/lib\libc.a(lib_a-freer.o)
 .debug_abbrev  0x0000000000005371      0x228 c:/intelfpga_lite/18.1/nios2eds/bin/gnu/h-x86_64-mingw32/bin/../lib/gcc/nios2-elf/5.3.0/../../../../../H-x86_64-mingw32/nios2-elf/lib\libc.a(lib_a-fvwrite.o)
 .debug_abbrev  0x0000000000005599      0x1d1 c:/intelfpga_lite/18.1/nios2eds/bin/gnu/h-x86_64-mingw32/bin/../lib/gcc/nios2-elf/5.3.0/../../../../../H-x86_64-mingw32/nios2-elf/lib\libc.a(lib_a-fwalk.o)
 .debug_abbrev  0x000000000000576a       0x37 c:/intelfpga_lite/18.1/nios2eds/bin/gnu/h-x86_64-mingw32/bin/../lib/gcc/nios2-elf/5.3.0/../../../../../H-x86_64-mingw32/nios2-elf/lib\libc.a(lib_a-int_errno.o)
 .debug_abbrev  0x00000000000057a1      0x2c0 c:/intelfpga_lite/18.1/nios2eds/bin/gnu/h-x86_64-mingw32/bin/../lib/gcc/nios2-elf/5.3.0/../../../../../H-x86_64-mingw32/nios2-elf/lib\libc.a(lib_a-locale.o)
 .debug_abbrev  0x0000000000005a61      0x20f c:/intelfpga_lite/18.1/nios2eds/bin/gnu/h-x86_64-mingw32/bin/../lib/gcc/nios2-elf/5.3.0/../../../../../H-x86_64-mingw32/nios2-elf/lib\libc.a(lib_a-makebuf.o)
 .debug_abbrev  0x0000000000005c70       0xab c:/intelfpga_lite/18.1/nios2eds/bin/gnu/h-x86_64-mingw32/bin/../lib/gcc/nios2-elf/5.3.0/../../../../../H-x86_64-mingw32/nios2-elf/lib\libc.a(lib_a-memchr.o)
 .debug_abbrev  0x0000000000005d1b       0x9c c:/intelfpga_lite/18.1/nios2eds/bin/gnu/h-x86_64-mingw32/bin/../lib/gcc/nios2-elf/5.3.0/../../../../../H-x86_64-mingw32/nios2-elf/lib\libc.a(lib_a-memmove.o)
 .debug_abbrev  0x0000000000005db7      0x3d7 c:/intelfpga_lite/18.1/nios2eds/bin/gnu/h-x86_64-mingw32/bin/../lib/gcc/nios2-elf/5.3.0/../../../../../H-x86_64-mingw32/nios2-elf/lib\libc.a(lib_a-mprec.o)
 .debug_abbrev  0x000000000000618e      0x243 c:/intelfpga_lite/18.1/nios2eds/bin/gnu/h-x86_64-mingw32/bin/../lib/gcc/nios2-elf/5.3.0/../../../../../H-x86_64-mingw32/nios2-elf/lib\libc.a(lib_a-putc.o)
 .debug_abbrev  0x00000000000063d1      0x231 c:/intelfpga_lite/18.1/nios2eds/bin/gnu/h-x86_64-mingw32/bin/../lib/gcc/nios2-elf/5.3.0/../../../../../H-x86_64-mingw32/nios2-elf/lib\libc.a(lib_a-reallocr.o)
 .debug_abbrev  0x0000000000006602       0x7e c:/intelfpga_lite/18.1/nios2eds/bin/gnu/h-x86_64-mingw32/bin/../lib/gcc/nios2-elf/5.3.0/../../../../../H-x86_64-mingw32/nios2-elf/lib\libc.a(lib_a-s_fpclassify.o)
 .debug_abbrev  0x0000000000006680      0x239 c:/intelfpga_lite/18.1/nios2eds/bin/gnu/h-x86_64-mingw32/bin/../lib/gcc/nios2-elf/5.3.0/../../../../../H-x86_64-mingw32/nios2-elf/lib\libc.a(lib_a-stdio.o)
 .debug_abbrev  0x00000000000068b9      0x2ae c:/intelfpga_lite/18.1/nios2eds/bin/gnu/h-x86_64-mingw32/bin/../lib/gcc/nios2-elf/5.3.0/../../../../../H-x86_64-mingw32/nios2-elf/lib\libc.a(lib_a-svfiprintf.o)
 .debug_abbrev  0x0000000000006b67      0x3ce c:/intelfpga_lite/18.1/nios2eds/bin/gnu/h-x86_64-mingw32/bin/../lib/gcc/nios2-elf/5.3.0/../../../../../H-x86_64-mingw32/nios2-elf/lib\libc.a(lib_a-vfiprintf.o)
 .debug_abbrev  0x0000000000006f35      0x251 c:/intelfpga_lite/18.1/nios2eds/bin/gnu/h-x86_64-mingw32/bin/../lib/gcc/nios2-elf/5.3.0/../../../../../H-x86_64-mingw32/nios2-elf/lib\libc.a(lib_a-wbuf.o)
 .debug_abbrev  0x0000000000007186      0x1eb c:/intelfpga_lite/18.1/nios2eds/bin/gnu/h-x86_64-mingw32/bin/../lib/gcc/nios2-elf/5.3.0/../../../../../H-x86_64-mingw32/nios2-elf/lib\libc.a(lib_a-writer.o)
 .debug_abbrev  0x0000000000007371      0x1e6 c:/intelfpga_lite/18.1/nios2eds/bin/gnu/h-x86_64-mingw32/bin/../lib/gcc/nios2-elf/5.3.0/../../../../../H-x86_64-mingw32/nios2-elf/lib\libc.a(closer.o)
 .debug_abbrev  0x0000000000007557      0x2a2 c:/intelfpga_lite/18.1/nios2eds/bin/gnu/h-x86_64-mingw32/bin/../lib/gcc/nios2-elf/5.3.0/../../../../../H-x86_64-mingw32/nios2-elf/lib\libc.a(lib_a-fclose.o)
 .debug_abbrev  0x00000000000077f9      0x2b9 c:/intelfpga_lite/18.1/nios2eds/bin/gnu/h-x86_64-mingw32/bin/../lib/gcc/nios2-elf/5.3.0/../../../../../H-x86_64-mingw32/nios2-elf/lib\libc.a(lib_a-fputwc.o)
 .debug_abbrev  0x0000000000007ab2      0x1f5 c:/intelfpga_lite/18.1/nios2eds/bin/gnu/h-x86_64-mingw32/bin/../lib/gcc/nios2-elf/5.3.0/../../../../../H-x86_64-mingw32/nios2-elf/lib\libc.a(lib_a-fstatr.o)
 .debug_abbrev  0x0000000000007ca7      0x1e6 c:/intelfpga_lite/18.1/nios2eds/bin/gnu/h-x86_64-mingw32/bin/../lib/gcc/nios2-elf/5.3.0/../../../../../H-x86_64-mingw32/nios2-elf/lib\libc.a(lib_a-isattyr.o)
 .debug_abbrev  0x0000000000007e8d      0x1f5 c:/intelfpga_lite/18.1/nios2eds/bin/gnu/h-x86_64-mingw32/bin/../lib/gcc/nios2-elf/5.3.0/../../../../../H-x86_64-mingw32/nios2-elf/lib\libc.a(lib_a-lseekr.o)
 .debug_abbrev  0x0000000000008082      0x1e6 c:/intelfpga_lite/18.1/nios2eds/bin/gnu/h-x86_64-mingw32/bin/../lib/gcc/nios2-elf/5.3.0/../../../../../H-x86_64-mingw32/nios2-elf/lib\libc.a(lib_a-readr.o)
 .debug_abbrev  0x0000000000008268      0x230 c:/intelfpga_lite/18.1/nios2eds/bin/gnu/h-x86_64-mingw32/bin/../lib/gcc/nios2-elf/5.3.0/../../../../../H-x86_64-mingw32/nios2-elf/lib\libc.a(lib_a-wcrtomb.o)
 .debug_abbrev  0x0000000000008498      0x21f c:/intelfpga_lite/18.1/nios2eds/bin/gnu/h-x86_64-mingw32/bin/../lib/gcc/nios2-elf/5.3.0/../../../../../H-x86_64-mingw32/nios2-elf/lib\libc.a(lib_a-wctomb_r.o)
 .debug_abbrev  0x00000000000086b7      0x167 c:/intelfpga_lite/18.1/nios2eds/bin/gnu/h-x86_64-mingw32/bin/../lib/gcc/nios2-elf/5.3.0\libgcc.a(_udivdi3.o)
 .debug_abbrev  0x000000000000881e      0x18a c:/intelfpga_lite/18.1/nios2eds/bin/gnu/h-x86_64-mingw32/bin/../lib/gcc/nios2-elf/5.3.0\libgcc.a(_umoddi3.o)
 .debug_abbrev  0x00000000000089a8      0x128 c:/intelfpga_lite/18.1/nios2eds/bin/gnu/h-x86_64-mingw32/bin/../lib/gcc/nios2-elf/5.3.0\libgcc.a(eqdf2.o)
 .debug_abbrev  0x0000000000008ad0      0x137 c:/intelfpga_lite/18.1/nios2eds/bin/gnu/h-x86_64-mingw32/bin/../lib/gcc/nios2-elf/5.3.0\libgcc.a(gedf2.o)
 .debug_abbrev  0x0000000000008c07      0x137 c:/intelfpga_lite/18.1/nios2eds/bin/gnu/h-x86_64-mingw32/bin/../lib/gcc/nios2-elf/5.3.0\libgcc.a(ledf2.o)
 .debug_abbrev  0x0000000000008d3e      0x133 c:/intelfpga_lite/18.1/nios2eds/bin/gnu/h-x86_64-mingw32/bin/../lib/gcc/nios2-elf/5.3.0\libgcc.a(subdf3.o)
 .debug_abbrev  0x0000000000008e71      0x135 c:/intelfpga_lite/18.1/nios2eds/bin/gnu/h-x86_64-mingw32/bin/../lib/gcc/nios2-elf/5.3.0\libgcc.a(fixdfsi.o)
 .debug_abbrev  0x0000000000008fa6      0x126 ../candy_avb_sss_bsp/\libucosii_bsp.a(alt_fstat.o)
 .debug_abbrev  0x00000000000090cc      0x126 ../candy_avb_sss_bsp/\libucosii_bsp.a(alt_isatty.o)
 .debug_abbrev  0x00000000000091f2      0x126 ../candy_avb_sss_bsp/\libucosii_bsp.a(alt_lseek.o)
 .debug_abbrev  0x0000000000009318      0x139 ../candy_avb_sss_bsp/\libucosii_bsp.a(alt_main.o)
 .debug_abbrev  0x0000000000009451      0x112 ../candy_avb_sss_bsp/\libucosii_bsp.a(alt_sbrk.o)
 .debug_abbrev  0x0000000000009563       0xc7 ../candy_avb_sss_bsp/\libucosii_bsp.a(alt_usleep.o)
 .debug_abbrev  0x000000000000962a      0x1e3 ../candy_avb_sss_bsp/\libucosii_bsp.a(alt_env_lock.o)
 .debug_abbrev  0x000000000000980d      0x26d ../candy_avb_sss_bsp/\libucosii_bsp.a(alt_malloc_lock.o)
 .debug_abbrev  0x0000000000009a7a      0x302 ../candy_avb_sss_bsp/\libucosii_bsp.a(os_core.o)
 .debug_abbrev  0x0000000000009d7c       0xf7 ../candy_avb_sss_bsp/\libucosii_bsp.a(os_dbg.o)
 .debug_abbrev  0x0000000000009e73      0x25a ../candy_avb_sss_bsp/\libucosii_bsp.a(os_flag.o)
 .debug_abbrev  0x000000000000a0cd      0x228 ../candy_avb_sss_bsp/\libucosii_bsp.a(os_mem.o)
 .debug_abbrev  0x000000000000a2f5      0x248 ../candy_avb_sss_bsp/\libucosii_bsp.a(os_q.o)
 .debug_abbrev  0x000000000000a53d      0x262 ../candy_avb_sss_bsp/\libucosii_bsp.a(os_sem.o)
 .debug_abbrev  0x000000000000a79f      0x247 ../candy_avb_sss_bsp/\libucosii_bsp.a(os_task.o)
 .debug_abbrev  0x000000000000a9e6      0x20c ../candy_avb_sss_bsp/\libucosii_bsp.a(os_time.o)
 .debug_abbrev  0x000000000000abf2      0x229 ../candy_avb_sss_bsp/\libucosii_bsp.a(alt_sys_init.o)
 .debug_abbrev  0x000000000000ae1b      0x16c ../candy_avb_sss_bsp/\libucosii_bsp.a(altera_avalon_jtag_uart_fd.o)
 .debug_abbrev  0x000000000000af87      0x24f ../candy_avb_sss_bsp/\libucosii_bsp.a(altera_avalon_jtag_uart_init.o)
 .debug_abbrev  0x000000000000b1d6      0x156 ../candy_avb_sss_bsp/\libucosii_bsp.a(altera_avalon_jtag_uart_ioctl.o)
 .debug_abbrev  0x000000000000b32c      0x1f8 ../candy_avb_sss_bsp/\libucosii_bsp.a(altera_avalon_jtag_uart_read.o)
 .debug_abbrev  0x000000000000b524      0x1f6 ../candy_avb_sss_bsp/\libucosii_bsp.a(altera_avalon_jtag_uart_write.o)
 .debug_abbrev  0x000000000000b71a      0x155 ../candy_avb_sss_bsp/\libucosii_bsp.a(altera_avalon_timer_sc.o)
 .debug_abbrev  0x000000000000b86f      0x145 ../candy_avb_sss_bsp/\libucosii_bsp.a(altera_avalon_uart_fd.o)
 .debug_abbrev  0x000000000000b9b4      0x1f1 ../candy_avb_sss_bsp/\libucosii_bsp.a(altera_avalon_uart_init.o)
 .debug_abbrev  0x000000000000bba5      0x1c8 ../candy_avb_sss_bsp/\libucosii_bsp.a(altera_avalon_uart_read.o)
 .debug_abbrev  0x000000000000bd6d      0x1cf ../candy_avb_sss_bsp/\libucosii_bsp.a(altera_avalon_uart_write.o)
 .debug_abbrev  0x000000000000bf3c      0x240 ../candy_avb_sss_bsp/\libucosii_bsp.a(altera_modular_adc.o)
 .debug_abbrev  0x000000000000c17c      0x338 ../candy_avb_sss_bsp/\libucosii_bsp.a(altera_msgdma.o)
 .debug_abbrev  0x000000000000c4b4      0x1da ../candy_avb_sss_bsp/\libucosii_bsp.a(altera_onchip_flash.o)
 .debug_abbrev  0x000000000000c68e      0x311 ../candy_avb_sss_bsp/\libucosii_bsp.a(ins_tse_mac.o)
 .debug_abbrev  0x000000000000c99f       0x7a ../candy_avb_sss_bsp/\libucosii_bsp.a(alt_iniche_close.o)
 .debug_abbrev  0x000000000000ca19      0x15e ../candy_avb_sss_bsp/\libucosii_bsp.a(alt_iniche_dev.o)
 .debug_abbrev  0x000000000000cb77       0x81 ../candy_avb_sss_bsp/\libucosii_bsp.a(alt_iniche_read.o)
 .debug_abbrev  0x000000000000cbf8       0x88 ../candy_avb_sss_bsp/\libucosii_bsp.a(alt_iniche_write.o)
 .debug_abbrev  0x000000000000cc80      0x213 ../candy_avb_sss_bsp/\libucosii_bsp.a(ipnet.o)
 .debug_abbrev  0x000000000000ce93      0x1e0 ../candy_avb_sss_bsp/\libucosii_bsp.a(ipstart.o)
 .debug_abbrev  0x000000000000d073      0x220 ../candy_avb_sss_bsp/\libucosii_bsp.a(igmp_cmn.o)
 .debug_abbrev  0x000000000000d293      0x217 ../candy_avb_sss_bsp/\libucosii_bsp.a(bsdsock.o)
 .debug_abbrev  0x000000000000d4aa       0xd3 ../candy_avb_sss_bsp/\libucosii_bsp.a(cksum.o)
 .debug_abbrev  0x000000000000d57d      0x223 ../candy_avb_sss_bsp/\libucosii_bsp.a(in_utils.o)
 .debug_abbrev  0x000000000000d7a0      0x165 ../candy_avb_sss_bsp/\libucosii_bsp.a(netmain.o)
 .debug_abbrev  0x000000000000d905      0x16b ../candy_avb_sss_bsp/\libucosii_bsp.a(tk_crnos.o)
 .debug_abbrev  0x000000000000da70      0x260 ../candy_avb_sss_bsp/\libucosii_bsp.a(dhcpclnt.o)
 .debug_abbrev  0x000000000000dcd0       0x92 ../candy_avb_sss_bsp/\libucosii_bsp.a(dhcputil.o)
 .debug_abbrev  0x000000000000dd62      0x1f6 ../candy_avb_sss_bsp/\libucosii_bsp.a(pktalloc.o)
 .debug_abbrev  0x000000000000df58       0xde ../candy_avb_sss_bsp/\libucosii_bsp.a(q.o)
 .debug_abbrev  0x000000000000e036      0x195 ../candy_avb_sss_bsp/\libucosii_bsp.a(udp_open.o)
 .debug_abbrev  0x000000000000e1cb       0x14 ../candy_avb_sss_bsp/\libucosii_bsp.a(asm_cksum.o)
 .debug_abbrev  0x000000000000e1df      0x299 ../candy_avb_sss_bsp/\libucosii_bsp.a(brdutils.o)
 .debug_abbrev  0x000000000000e478      0x17f ../candy_avb_sss_bsp/\libucosii_bsp.a(osportco.o)
 .debug_abbrev  0x000000000000e5f7      0x1cf ../candy_avb_sss_bsp/\libucosii_bsp.a(targnios.o)
 .debug_abbrev  0x000000000000e7c6      0x269 ../candy_avb_sss_bsp/\libucosii_bsp.a(nptcp.o)
 .debug_abbrev  0x000000000000ea2f      0x19e ../candy_avb_sss_bsp/\libucosii_bsp.a(rawsock.o)
 .debug_abbrev  0x000000000000ebcd      0x217 ../candy_avb_sss_bsp/\libucosii_bsp.a(sockcall.o)
 .debug_abbrev  0x000000000000ede4      0x262 ../candy_avb_sss_bsp/\libucosii_bsp.a(socket.o)
 .debug_abbrev  0x000000000000f046      0x280 ../candy_avb_sss_bsp/\libucosii_bsp.a(socket2.o)
 .debug_abbrev  0x000000000000f2c6      0x1fe ../candy_avb_sss_bsp/\libucosii_bsp.a(soselect.o)
 .debug_abbrev  0x000000000000f4c4      0x25e ../candy_avb_sss_bsp/\libucosii_bsp.a(tcp_in.o)
 .debug_abbrev  0x000000000000f722      0x222 ../candy_avb_sss_bsp/\libucosii_bsp.a(tcp_out.o)
 .debug_abbrev  0x000000000000f944      0x24a ../candy_avb_sss_bsp/\libucosii_bsp.a(tcp_subr.o)
 .debug_abbrev  0x000000000000fb8e      0x227 ../candy_avb_sss_bsp/\libucosii_bsp.a(tcp_timr.o)
 .debug_abbrev  0x000000000000fdb5      0x1c8 ../candy_avb_sss_bsp/\libucosii_bsp.a(tcp_usr.o)
 .debug_abbrev  0x000000000000ff7d       0x7a ../candy_avb_sss_bsp/\libucosii_bsp.a(tcpport.o)
 .debug_abbrev  0x000000000000fff7      0x1ec ../candy_avb_sss_bsp/\libucosii_bsp.a(udpsock.o)
 .debug_abbrev  0x00000000000101e3      0x162 ../candy_avb_sss_bsp/\libucosii_bsp.a(alt_alarm_start.o)
 .debug_abbrev  0x0000000000010345       0x7e ../candy_avb_sss_bsp/\libucosii_bsp.a(alt_busy_sleep.o)
 .debug_abbrev  0x00000000000103c3      0x126 ../candy_avb_sss_bsp/\libucosii_bsp.a(alt_close.o)
 .debug_abbrev  0x00000000000104e9       0x8c ../candy_avb_sss_bsp/\libucosii_bsp.a(alt_dcache_flush.o)
 .debug_abbrev  0x0000000000010575      0x11c ../candy_avb_sss_bsp/\libucosii_bsp.a(alt_dev.o)
 .debug_abbrev  0x0000000000010691      0x114 ../candy_avb_sss_bsp/\libucosii_bsp.a(alt_dev_llist_insert.o)
 .debug_abbrev  0x00000000000107a5       0x79 ../candy_avb_sss_bsp/\libucosii_bsp.a(alt_do_ctors.o)
 .debug_abbrev  0x000000000001081e       0x79 ../candy_avb_sss_bsp/\libucosii_bsp.a(alt_do_dtors.o)
 .debug_abbrev  0x0000000000010897       0x5a ../candy_avb_sss_bsp/\libucosii_bsp.a(alt_errno.o)
 .debug_abbrev  0x00000000000108f1       0xf7 ../candy_avb_sss_bsp/\libucosii_bsp.a(alt_find_dev.o)
 .debug_abbrev  0x00000000000109e8      0x121 ../candy_avb_sss_bsp/\libucosii_bsp.a(alt_flash_dev.o)
 .debug_abbrev  0x0000000000010b09      0x163 ../candy_avb_sss_bsp/\libucosii_bsp.a(alt_iic.o)
 .debug_abbrev  0x0000000000010c6c      0x169 ../candy_avb_sss_bsp/\libucosii_bsp.a(alt_iic_isr_register.o)
 .debug_abbrev  0x0000000000010dd5      0x11b ../candy_avb_sss_bsp/\libucosii_bsp.a(alt_io_redirect.o)
 .debug_abbrev  0x0000000000010ef0       0x12 ../candy_avb_sss_bsp/\libucosii_bsp.a(alt_irq_entry.o)
 .debug_abbrev  0x0000000000010f02      0x13a ../candy_avb_sss_bsp/\libucosii_bsp.a(alt_irq_handler.o)
 .debug_abbrev  0x000000000001103c       0x40 ../candy_avb_sss_bsp/\libucosii_bsp.a(alt_irq_vars.o)
 .debug_abbrev  0x000000000001107c      0x14f ../candy_avb_sss_bsp/\libucosii_bsp.a(alt_open.o)
 .debug_abbrev  0x00000000000111cb       0xb0 ../candy_avb_sss_bsp/\libucosii_bsp.a(alt_printf.o)
 .debug_abbrev  0x000000000001127b      0x1af ../candy_avb_sss_bsp/\libucosii_bsp.a(alt_putchar.o)
 .debug_abbrev  0x000000000001142a      0x135 ../candy_avb_sss_bsp/\libucosii_bsp.a(alt_read.o)
 .debug_abbrev  0x000000000001155f       0xe5 ../candy_avb_sss_bsp/\libucosii_bsp.a(alt_release_fd.o)
 .debug_abbrev  0x0000000000011644       0x77 ../candy_avb_sss_bsp/\libucosii_bsp.a(alt_remap_cached.o)
 .debug_abbrev  0x00000000000116bb      0x15a ../candy_avb_sss_bsp/\libucosii_bsp.a(alt_tick.o)
 .debug_abbrev  0x0000000000011815       0x6e ../candy_avb_sss_bsp/\libucosii_bsp.a(alt_uncached_free.o)
 .debug_abbrev  0x0000000000011883       0x9c ../candy_avb_sss_bsp/\libucosii_bsp.a(alt_uncached_malloc.o)
 .debug_abbrev  0x000000000001191f      0x13a ../candy_avb_sss_bsp/\libucosii_bsp.a(alt_write.o)
 .debug_abbrev  0x0000000000011a59       0x42 ../candy_avb_sss_bsp/\libucosii_bsp.a(altera_nios2_gen2_irq.o)
 .debug_abbrev  0x0000000000011a9b       0x14 ../candy_avb_sss_bsp/\libucosii_bsp.a(os_cpu_a.o)
 .debug_abbrev  0x0000000000011aaf      0x22d ../candy_avb_sss_bsp/\libucosii_bsp.a(os_cpu_c.o)
 .debug_abbrev  0x0000000000011cdc      0x28c ../candy_avb_sss_bsp/\libucosii_bsp.a(altera_avalon_tse.o)
 .debug_abbrev  0x0000000000011f68      0x1f3 ../candy_avb_sss_bsp/\libucosii_bsp.a(allports.o)
 .debug_abbrev  0x000000000001215b      0x15a ../candy_avb_sss_bsp/\libucosii_bsp.a(timeouts.o)
 .debug_abbrev  0x00000000000122b5       0xaa ../candy_avb_sss_bsp/\libucosii_bsp.a(tk_misc.o)
 .debug_abbrev  0x000000000001235f       0xa6 ../candy_avb_sss_bsp/\libucosii_bsp.a(alt_iniche_fcntl.o)
 .debug_abbrev  0x0000000000012405      0x243 ../candy_avb_sss_bsp/\libucosii_bsp.a(et_arp.o)
 .debug_abbrev  0x0000000000012648      0x1b9 ../candy_avb_sss_bsp/\libucosii_bsp.a(iface.o)
 .debug_abbrev  0x0000000000012801      0x243 ../candy_avb_sss_bsp/\libucosii_bsp.a(ip.o)
 .debug_abbrev  0x0000000000012a44      0x208 ../candy_avb_sss_bsp/\libucosii_bsp.a(ip_reasm.o)
 .debug_abbrev  0x0000000000012c4c      0x1b3 ../candy_avb_sss_bsp/\libucosii_bsp.a(ipdemux.o)
 .debug_abbrev  0x0000000000012dff      0x181 ../candy_avb_sss_bsp/\libucosii_bsp.a(ipmc.o)
 .debug_abbrev  0x0000000000012f80      0x101 ../candy_avb_sss_bsp/\libucosii_bsp.a(ipport.o)
 .debug_abbrev  0x0000000000013081      0x20f ../candy_avb_sss_bsp/\libucosii_bsp.a(ipraw.o)
 .debug_abbrev  0x0000000000013290      0x1c3 ../candy_avb_sss_bsp/\libucosii_bsp.a(iproute.o)
 .debug_abbrev  0x0000000000013453      0x24d ../candy_avb_sss_bsp/\libucosii_bsp.a(udp.o)
 .debug_abbrev  0x00000000000136a0      0x14d ../candy_avb_sss_bsp/\libucosii_bsp.a(igmp.o)
 .debug_abbrev  0x00000000000137ed      0x1b0 ../candy_avb_sss_bsp/\libucosii_bsp.a(igmp2.o)
 .debug_abbrev  0x000000000001399d      0x1ef ../candy_avb_sss_bsp/\libucosii_bsp.a(ipopt.o)
 .debug_abbrev  0x0000000000013b8c      0x182 ../candy_avb_sss_bsp/\libucosii_bsp.a(u_mctest.o)
 .debug_abbrev  0x0000000000013d0e      0x161 ../candy_avb_sss_bsp/\libucosii_bsp.a(dhcsetup.o)
 .debug_abbrev  0x0000000000013e6f      0x1ac ../candy_avb_sss_bsp/\libucosii_bsp.a(memdev.o)
 .debug_abbrev  0x000000000001401b      0x1d1 ../candy_avb_sss_bsp/\libucosii_bsp.a(parseip.o)
 .debug_abbrev  0x00000000000141ec       0xce ../candy_avb_sss_bsp/\libucosii_bsp.a(tcpcksum.o)
 .debug_abbrev  0x00000000000142ba      0x205 ../candy_avb_sss_bsp/\libucosii_bsp.a(in_pcb.o)
 .debug_abbrev  0x00000000000144bf      0x20a ../candy_avb_sss_bsp/\libucosii_bsp.a(vfsfiles.o)
 .debug_abbrev  0x00000000000146c9       0x7a ../candy_avb_sss_bsp/\libucosii_bsp.a(vfsport.o)
 .debug_abbrev  0x0000000000014743       0x12 ../candy_avb_sss_bsp/\libucosii_bsp.a(alt_exception_entry.o)
 .debug_abbrev  0x0000000000014755      0x143 ../candy_avb_sss_bsp/\libucosii_bsp.a(alt_fcntl.o)
 .debug_abbrev  0x0000000000014898       0xf7 ../candy_avb_sss_bsp/\libucosii_bsp.a(alt_find_file.o)
 .debug_abbrev  0x000000000001498f      0x19b ../candy_avb_sss_bsp/\libucosii_bsp.a(alt_get_fd.o)
 .debug_abbrev  0x0000000000014b2a       0xdc ../candy_avb_sss_bsp/\libucosii_bsp.a(alt_instruction_exception_entry.o)
 .debug_abbrev  0x0000000000014c06      0x1bd ../candy_avb_sss_bsp/\libucosii_bsp.a(icmp.o)
 .debug_abbrev  0x0000000000014dc3       0xaa c:/intelfpga_lite/18.1/nios2eds/bin/gnu/h-x86_64-mingw32/bin/../lib/gcc/nios2-elf/5.3.0/../../../../../H-x86_64-mingw32/nios2-elf/lib\libc.a(lib_a-atexit.o)
 .debug_abbrev  0x0000000000014e6d      0x1c9 c:/intelfpga_lite/18.1/nios2eds/bin/gnu/h-x86_64-mingw32/bin/../lib/gcc/nios2-elf/5.3.0/../../../../../H-x86_64-mingw32/nios2-elf/lib\libc.a(lib_a-atoi.o)
 .debug_abbrev  0x0000000000015036      0x1e5 c:/intelfpga_lite/18.1/nios2eds/bin/gnu/h-x86_64-mingw32/bin/../lib/gcc/nios2-elf/5.3.0/../../../../../H-x86_64-mingw32/nios2-elf/lib\libc.a(lib_a-exit.o)
 .debug_abbrev  0x000000000001521b      0x235 c:/intelfpga_lite/18.1/nios2eds/bin/gnu/h-x86_64-mingw32/bin/../lib/gcc/nios2-elf/5.3.0/../../../../../H-x86_64-mingw32/nios2-elf/lib\libc.a(lib_a-getc.o)
 .debug_abbrev  0x0000000000015450      0x1da c:/intelfpga_lite/18.1/nios2eds/bin/gnu/h-x86_64-mingw32/bin/../lib/gcc/nios2-elf/5.3.0/../../../../../H-x86_64-mingw32/nios2-elf/lib\libc.a(lib_a-malign.o)
 .debug_abbrev  0x000000000001562a      0x201 c:/intelfpga_lite/18.1/nios2eds/bin/gnu/h-x86_64-mingw32/bin/../lib/gcc/nios2-elf/5.3.0/../../../../../H-x86_64-mingw32/nios2-elf/lib\libc.a(lib_a-malignr.o)
 .debug_abbrev  0x000000000001582b       0x7f c:/intelfpga_lite/18.1/nios2eds/bin/gnu/h-x86_64-mingw32/bin/../lib/gcc/nios2-elf/5.3.0/../../../../../H-x86_64-mingw32/nios2-elf/lib\libc.a(lib_a-memcmp.o)
 .debug_abbrev  0x00000000000158aa      0x205 c:/intelfpga_lite/18.1/nios2eds/bin/gnu/h-x86_64-mingw32/bin/../lib/gcc/nios2-elf/5.3.0/../../../../../H-x86_64-mingw32/nios2-elf/lib\libc.a(lib_a-putchar.o)
 .debug_abbrev  0x0000000000015aaf      0x224 c:/intelfpga_lite/18.1/nios2eds/bin/gnu/h-x86_64-mingw32/bin/../lib/gcc/nios2-elf/5.3.0/../../../../../H-x86_64-mingw32/nios2-elf/lib\libc.a(lib_a-rget.o)
 .debug_abbrev  0x0000000000015cd3       0x83 c:/intelfpga_lite/18.1/nios2eds/bin/gnu/h-x86_64-mingw32/bin/../lib/gcc/nios2-elf/5.3.0/../../../../../H-x86_64-mingw32/nios2-elf/lib\libc.a(lib_a-strcpy.o)
 .debug_abbrev  0x0000000000015d56       0x81 c:/intelfpga_lite/18.1/nios2eds/bin/gnu/h-x86_64-mingw32/bin/../lib/gcc/nios2-elf/5.3.0/../../../../../H-x86_64-mingw32/nios2-elf/lib\libc.a(lib_a-strncmp.o)
 .debug_abbrev  0x0000000000015dd7       0x97 c:/intelfpga_lite/18.1/nios2eds/bin/gnu/h-x86_64-mingw32/bin/../lib/gcc/nios2-elf/5.3.0/../../../../../H-x86_64-mingw32/nios2-elf/lib\libc.a(lib_a-strncpy.o)
 .debug_abbrev  0x0000000000015e6e      0x22a c:/intelfpga_lite/18.1/nios2eds/bin/gnu/h-x86_64-mingw32/bin/../lib/gcc/nios2-elf/5.3.0/../../../../../H-x86_64-mingw32/nios2-elf/lib\libc.a(lib_a-strtol.o)
 .debug_abbrev  0x0000000000016098      0x215 c:/intelfpga_lite/18.1/nios2eds/bin/gnu/h-x86_64-mingw32/bin/../lib/gcc/nios2-elf/5.3.0/../../../../../H-x86_64-mingw32/nios2-elf/lib\libc.a(lib_a-vprintf.o)
 .debug_abbrev  0x00000000000162ad      0x238 c:/intelfpga_lite/18.1/nios2eds/bin/gnu/h-x86_64-mingw32/bin/../lib/gcc/nios2-elf/5.3.0/../../../../../H-x86_64-mingw32/nios2-elf/lib\libc.a(lib_a-vsprintf.o)
 .debug_abbrev  0x00000000000164e5      0x21e c:/intelfpga_lite/18.1/nios2eds/bin/gnu/h-x86_64-mingw32/bin/../lib/gcc/nios2-elf/5.3.0/../../../../../H-x86_64-mingw32/nios2-elf/lib\libc.a(lib_a-__atexit.o)
 .debug_abbrev  0x0000000000016703      0x22e c:/intelfpga_lite/18.1/nios2eds/bin/gnu/h-x86_64-mingw32/bin/../lib/gcc/nios2-elf/5.3.0/../../../../../H-x86_64-mingw32/nios2-elf/lib\libc.a(lib_a-__call_atexit.o)
 .debug_abbrev  0x0000000000016931       0x5d c:/intelfpga_lite/18.1/nios2eds/bin/gnu/h-x86_64-mingw32/bin/../lib/gcc/nios2-elf/5.3.0/../../../../../H-x86_64-mingw32/nios2-elf/lib\libc.a(lib_a-ctype_.o)
 .debug_abbrev  0x000000000001698e      0x256 c:/intelfpga_lite/18.1/nios2eds/bin/gnu/h-x86_64-mingw32/bin/../lib/gcc/nios2-elf/5.3.0/../../../../../H-x86_64-mingw32/nios2-elf/lib\libc.a(lib_a-refill.o)
 .debug_abbrev  0x0000000000016be4      0x1ed c:/intelfpga_lite/18.1/nios2eds/bin/gnu/h-x86_64-mingw32/bin/../lib/gcc/nios2-elf/5.3.0/../../../../../H-x86_64-mingw32/nios2-elf/lib\libc.a(lib_a-vfprintfr_1.o)
 .debug_abbrev  0x0000000000016dd1       0xe1 ../candy_avb_sss_bsp/\libucosii_bsp.a(alt_exit.o)

.debug_line     0x0000000000000000    0x1f52b
 *(.debug_line)
 .debug_line    0x0000000000000000       0x57 ../candy_avb_sss_bsp//obj/HAL/src/crt0.o
 .debug_line    0x0000000000000057      0x210 obj/default/SigmaStudioFW.o
 .debug_line    0x0000000000000267      0x2ad obj/default/alt_error_handler.o
 .debug_line    0x0000000000000514      0x1e6 obj/default/iniche_init.o
 .debug_line    0x00000000000006fa      0x1c0 obj/default/network_utilities.o
 .debug_line    0x00000000000008ba      0x57b obj/default/osc.o
 .debug_line    0x0000000000000e35      0x170 obj/default/osc_server.o
 .debug_line    0x0000000000000fa5      0x275 obj/default/sigmadsp.o
 .debug_line    0x000000000000121a      0x159 obj/default/tse_my_system.o
 .debug_line    0x0000000000001373       0x89 c:/intelfpga_lite/18.1/nios2eds/bin/gnu/h-x86_64-mingw32/bin/../lib/gcc/nios2-elf/5.3.0\libgcc.a(_floatdisf.o)
 .debug_line    0x00000000000013fc      0x287 c:/intelfpga_lite/18.1/nios2eds/bin/gnu/h-x86_64-mingw32/bin/../lib/gcc/nios2-elf/5.3.0\libgcc.a(addsf3.o)
 .debug_line    0x0000000000001683      0x159 c:/intelfpga_lite/18.1/nios2eds/bin/gnu/h-x86_64-mingw32/bin/../lib/gcc/nios2-elf/5.3.0\libgcc.a(mulsf3.o)
 .debug_line    0x00000000000017dc       0x97 c:/intelfpga_lite/18.1/nios2eds/bin/gnu/h-x86_64-mingw32/bin/../lib/gcc/nios2-elf/5.3.0\libgcc.a(fixsfsi.o)
 .debug_line    0x0000000000001873       0xb0 c:/intelfpga_lite/18.1/nios2eds/bin/gnu/h-x86_64-mingw32/bin/../lib/gcc/nios2-elf/5.3.0\libgcc.a(floatsisf.o)
 .debug_line    0x0000000000001923      0x37b c:/intelfpga_lite/18.1/nios2eds/bin/gnu/h-x86_64-mingw32/bin/../lib/gcc/nios2-elf/5.3.0\libgcc.a(adddf3.o)
 .debug_line    0x0000000000001c9e      0x2ad c:/intelfpga_lite/18.1/nios2eds/bin/gnu/h-x86_64-mingw32/bin/../lib/gcc/nios2-elf/5.3.0\libgcc.a(divdf3.o)
 .debug_line    0x0000000000001f4b      0x1e3 c:/intelfpga_lite/18.1/nios2eds/bin/gnu/h-x86_64-mingw32/bin/../lib/gcc/nios2-elf/5.3.0\libgcc.a(muldf3.o)
 .debug_line    0x000000000000212e       0x9f c:/intelfpga_lite/18.1/nios2eds/bin/gnu/h-x86_64-mingw32/bin/../lib/gcc/nios2-elf/5.3.0\libgcc.a(floatsidf.o)
 .debug_line    0x00000000000021cd       0x92 c:/intelfpga_lite/18.1/nios2eds/bin/gnu/h-x86_64-mingw32/bin/../lib/gcc/nios2-elf/5.3.0\libgcc.a(floatunsidf.o)
 .debug_line    0x000000000000225f       0xc1 c:/intelfpga_lite/18.1/nios2eds/bin/gnu/h-x86_64-mingw32/bin/../lib/gcc/nios2-elf/5.3.0\libgcc.a(extendsfdf2.o)
 .debug_line    0x0000000000002320       0xf7 c:/intelfpga_lite/18.1/nios2eds/bin/gnu/h-x86_64-mingw32/bin/../lib/gcc/nios2-elf/5.3.0\libgcc.a(truncdfsf2.o)
 .debug_line    0x0000000000002417       0xb7 c:/intelfpga_lite/18.1/nios2eds/bin/gnu/h-x86_64-mingw32/bin/../lib/gcc/nios2-elf/5.3.0\libgcc.a(_clzsi2.o)
 .debug_line    0x00000000000024ce      0x102 c:/intelfpga_lite/18.1/nios2eds/bin/gnu/h-x86_64-mingw32/bin/../lib/gcc/nios2-elf/5.3.0\libgcc.a(lib2-divmod.o)
 .debug_line    0x00000000000025d0       0x53 c:/intelfpga_lite/18.1/nios2eds/bin/gnu/h-x86_64-mingw32/bin/../lib/gcc/nios2-elf/5.3.0\libgcc.a(_clz.o)
 .debug_line    0x0000000000002623      0x1dd c:/intelfpga_lite/18.1/nios2eds/bin/gnu/h-x86_64-mingw32/bin/../lib/gcc/nios2-elf/5.3.0/../../../../../H-x86_64-mingw32/nios2-elf/lib\libc.a(lib_a-calloc.o)
 .debug_line    0x0000000000002800      0x1a8 c:/intelfpga_lite/18.1/nios2eds/bin/gnu/h-x86_64-mingw32/bin/../lib/gcc/nios2-elf/5.3.0/../../../../../H-x86_64-mingw32/nios2-elf/lib\libc.a(lib_a-callocr.o)
 .debug_line    0x00000000000029a8      0x208 c:/intelfpga_lite/18.1/nios2eds/bin/gnu/h-x86_64-mingw32/bin/../lib/gcc/nios2-elf/5.3.0/../../../../../H-x86_64-mingw32/nios2-elf/lib\libc.a(lib_a-fprintf.o)
 .debug_line    0x0000000000002bb0      0x23a c:/intelfpga_lite/18.1/nios2eds/bin/gnu/h-x86_64-mingw32/bin/../lib/gcc/nios2-elf/5.3.0/../../../../../H-x86_64-mingw32/nios2-elf/lib\libc.a(lib_a-fwrite.o)
 .debug_line    0x0000000000002dea      0x15d c:/intelfpga_lite/18.1/nios2eds/bin/gnu/h-x86_64-mingw32/bin/../lib/gcc/nios2-elf/5.3.0/../../../../../H-x86_64-mingw32/nios2-elf/lib\libc.a(lib_a-impure.o)
 .debug_line    0x0000000000002f47      0x1f0 c:/intelfpga_lite/18.1/nios2eds/bin/gnu/h-x86_64-mingw32/bin/../lib/gcc/nios2-elf/5.3.0/../../../../../H-x86_64-mingw32/nios2-elf/lib\libc.a(lib_a-malloc.o)
 .debug_line    0x0000000000003137      0x3f9 c:/intelfpga_lite/18.1/nios2eds/bin/gnu/h-x86_64-mingw32/bin/../lib/gcc/nios2-elf/5.3.0/../../../../../H-x86_64-mingw32/nios2-elf/lib\libc.a(lib_a-mallocr.o)
 .debug_line    0x0000000000003530      0x189 c:/intelfpga_lite/18.1/nios2eds/bin/gnu/h-x86_64-mingw32/bin/../lib/gcc/nios2-elf/5.3.0/../../../../../H-x86_64-mingw32/nios2-elf/lib\libc.a(lib_a-memcpy.o)
 .debug_line    0x00000000000036b9      0x18c c:/intelfpga_lite/18.1/nios2eds/bin/gnu/h-x86_64-mingw32/bin/../lib/gcc/nios2-elf/5.3.0/../../../../../H-x86_64-mingw32/nios2-elf/lib\libc.a(lib_a-memset.o)
 .debug_line    0x0000000000003845      0x209 c:/intelfpga_lite/18.1/nios2eds/bin/gnu/h-x86_64-mingw32/bin/../lib/gcc/nios2-elf/5.3.0/../../../../../H-x86_64-mingw32/nios2-elf/lib\libc.a(lib_a-perror.o)
 .debug_line    0x0000000000003a4e      0x208 c:/intelfpga_lite/18.1/nios2eds/bin/gnu/h-x86_64-mingw32/bin/../lib/gcc/nios2-elf/5.3.0/../../../../../H-x86_64-mingw32/nios2-elf/lib\libc.a(lib_a-printf.o)
 .debug_line    0x0000000000003c56      0x245 c:/intelfpga_lite/18.1/nios2eds/bin/gnu/h-x86_64-mingw32/bin/../lib/gcc/nios2-elf/5.3.0/../../../../../H-x86_64-mingw32/nios2-elf/lib\libc.a(lib_a-puts.o)
 .debug_line    0x0000000000003e9b      0x1e6 c:/intelfpga_lite/18.1/nios2eds/bin/gnu/h-x86_64-mingw32/bin/../lib/gcc/nios2-elf/5.3.0/../../../../../H-x86_64-mingw32/nios2-elf/lib\libc.a(lib_a-sbrkr.o)
 .debug_line    0x0000000000004081      0x225 c:/intelfpga_lite/18.1/nios2eds/bin/gnu/h-x86_64-mingw32/bin/../lib/gcc/nios2-elf/5.3.0/../../../../../H-x86_64-mingw32/nios2-elf/lib\libc.a(lib_a-sprintf.o)
 .debug_line    0x00000000000042a6      0x11e c:/intelfpga_lite/18.1/nios2eds/bin/gnu/h-x86_64-mingw32/bin/../lib/gcc/nios2-elf/5.3.0/../../../../../H-x86_64-mingw32/nios2-elf/lib\libc.a(lib_a-strchr.o)
 .debug_line    0x00000000000043c4       0xfe c:/intelfpga_lite/18.1/nios2eds/bin/gnu/h-x86_64-mingw32/bin/../lib/gcc/nios2-elf/5.3.0/../../../../../H-x86_64-mingw32/nios2-elf/lib\libc.a(lib_a-strcmp.o)
 .debug_line    0x00000000000044c2      0x34c c:/intelfpga_lite/18.1/nios2eds/bin/gnu/h-x86_64-mingw32/bin/../lib/gcc/nios2-elf/5.3.0/../../../../../H-x86_64-mingw32/nios2-elf/lib\libc.a(lib_a-strerror.o)
 .debug_line    0x000000000000480e      0x16c c:/intelfpga_lite/18.1/nios2eds/bin/gnu/h-x86_64-mingw32/bin/../lib/gcc/nios2-elf/5.3.0/../../../../../H-x86_64-mingw32/nios2-elf/lib\libc.a(lib_a-strlen.o)
 .debug_line    0x000000000000497a      0xc11 c:/intelfpga_lite/18.1/nios2eds/bin/gnu/h-x86_64-mingw32/bin/../lib/gcc/nios2-elf/5.3.0/../../../../../H-x86_64-mingw32/nios2-elf/lib\libc.a(lib_a-svfprintf.o)
 .debug_line    0x000000000000558b       0x6a c:/intelfpga_lite/18.1/nios2eds/bin/gnu/h-x86_64-mingw32/bin/../lib/gcc/nios2-elf/5.3.0/../../../../../H-x86_64-mingw32/nios2-elf/lib\libc.a(lib_a-u_strerr.o)
 .debug_line    0x00000000000055f5      0xc98 c:/intelfpga_lite/18.1/nios2eds/bin/gnu/h-x86_64-mingw32/bin/../lib/gcc/nios2-elf/5.3.0/../../../../../H-x86_64-mingw32/nios2-elf/lib\libc.a(lib_a-vfprintf.o)
 .debug_line    0x000000000000628d      0x263 c:/intelfpga_lite/18.1/nios2eds/bin/gnu/h-x86_64-mingw32/bin/../lib/gcc/nios2-elf/5.3.0/../../../../../H-x86_64-mingw32/nios2-elf/lib\libc.a(lib_a-wsetup.o)
 .debug_line    0x00000000000064f0      0x7ca c:/intelfpga_lite/18.1/nios2eds/bin/gnu/h-x86_64-mingw32/bin/../lib/gcc/nios2-elf/5.3.0/../../../../../H-x86_64-mingw32/nios2-elf/lib\libc.a(lib_a-dtoa.o)
 .debug_line    0x0000000000006cba      0x2e7 c:/intelfpga_lite/18.1/nios2eds/bin/gnu/h-x86_64-mingw32/bin/../lib/gcc/nios2-elf/5.3.0/../../../../../H-x86_64-mingw32/nios2-elf/lib\libc.a(lib_a-fflush.o)
 .debug_line    0x0000000000006fa1      0x36f c:/intelfpga_lite/18.1/nios2eds/bin/gnu/h-x86_64-mingw32/bin/../lib/gcc/nios2-elf/5.3.0/../../../../../H-x86_64-mingw32/nios2-elf/lib\libc.a(lib_a-findfp.o)
 .debug_line    0x0000000000007310      0x21d c:/intelfpga_lite/18.1/nios2eds/bin/gnu/h-x86_64-mingw32/bin/../lib/gcc/nios2-elf/5.3.0/../../../../../H-x86_64-mingw32/nios2-elf/lib\libc.a(lib_a-fputc.o)
 .debug_line    0x000000000000752d      0x238 c:/intelfpga_lite/18.1/nios2eds/bin/gnu/h-x86_64-mingw32/bin/../lib/gcc/nios2-elf/5.3.0/../../../../../H-x86_64-mingw32/nios2-elf/lib\libc.a(lib_a-fputs.o)
 .debug_line    0x0000000000007765      0x2f4 c:/intelfpga_lite/18.1/nios2eds/bin/gnu/h-x86_64-mingw32/bin/../lib/gcc/nios2-elf/5.3.0/../../../../../H-x86_64-mingw32/nios2-elf/lib\libc.a(lib_a-freer.o)
 .debug_line    0x0000000000007a59      0x342 c:/intelfpga_lite/18.1/nios2eds/bin/gnu/h-x86_64-mingw32/bin/../lib/gcc/nios2-elf/5.3.0/../../../../../H-x86_64-mingw32/nios2-elf/lib\libc.a(lib_a-fvwrite.o)
 .debug_line    0x0000000000007d9b      0x237 c:/intelfpga_lite/18.1/nios2eds/bin/gnu/h-x86_64-mingw32/bin/../lib/gcc/nios2-elf/5.3.0/../../../../../H-x86_64-mingw32/nios2-elf/lib\libc.a(lib_a-fwalk.o)
 .debug_line    0x0000000000007fd2       0x5c c:/intelfpga_lite/18.1/nios2eds/bin/gnu/h-x86_64-mingw32/bin/../lib/gcc/nios2-elf/5.3.0/../../../../../H-x86_64-mingw32/nios2-elf/lib\libc.a(lib_a-int_errno.o)
 .debug_line    0x000000000000802e      0x28b c:/intelfpga_lite/18.1/nios2eds/bin/gnu/h-x86_64-mingw32/bin/../lib/gcc/nios2-elf/5.3.0/../../../../../H-x86_64-mingw32/nios2-elf/lib\libc.a(lib_a-locale.o)
 .debug_line    0x00000000000082b9      0x271 c:/intelfpga_lite/18.1/nios2eds/bin/gnu/h-x86_64-mingw32/bin/../lib/gcc/nios2-elf/5.3.0/../../../../../H-x86_64-mingw32/nios2-elf/lib\libc.a(lib_a-makebuf.o)
 .debug_line    0x000000000000852a      0x18a c:/intelfpga_lite/18.1/nios2eds/bin/gnu/h-x86_64-mingw32/bin/../lib/gcc/nios2-elf/5.3.0/../../../../../H-x86_64-mingw32/nios2-elf/lib\libc.a(lib_a-memchr.o)
 .debug_line    0x00000000000086b4      0x18a c:/intelfpga_lite/18.1/nios2eds/bin/gnu/h-x86_64-mingw32/bin/../lib/gcc/nios2-elf/5.3.0/../../../../../H-x86_64-mingw32/nios2-elf/lib\libc.a(lib_a-memmove.o)
 .debug_line    0x000000000000883e      0x787 c:/intelfpga_lite/18.1/nios2eds/bin/gnu/h-x86_64-mingw32/bin/../lib/gcc/nios2-elf/5.3.0/../../../../../H-x86_64-mingw32/nios2-elf/lib\libc.a(lib_a-mprec.o)
 .debug_line    0x0000000000008fc5      0x272 c:/intelfpga_lite/18.1/nios2eds/bin/gnu/h-x86_64-mingw32/bin/../lib/gcc/nios2-elf/5.3.0/../../../../../H-x86_64-mingw32/nios2-elf/lib\libc.a(lib_a-putc.o)
 .debug_line    0x0000000000009237      0x2f2 c:/intelfpga_lite/18.1/nios2eds/bin/gnu/h-x86_64-mingw32/bin/../lib/gcc/nios2-elf/5.3.0/../../../../../H-x86_64-mingw32/nios2-elf/lib\libc.a(lib_a-reallocr.o)
 .debug_line    0x0000000000009529      0x16c c:/intelfpga_lite/18.1/nios2eds/bin/gnu/h-x86_64-mingw32/bin/../lib/gcc/nios2-elf/5.3.0/../../../../../H-x86_64-mingw32/nios2-elf/lib\libc.a(lib_a-s_fpclassify.o)
 .debug_line    0x0000000000009695      0x267 c:/intelfpga_lite/18.1/nios2eds/bin/gnu/h-x86_64-mingw32/bin/../lib/gcc/nios2-elf/5.3.0/../../../../../H-x86_64-mingw32/nios2-elf/lib\libc.a(lib_a-stdio.o)
 .debug_line    0x00000000000098fc      0x891 c:/intelfpga_lite/18.1/nios2eds/bin/gnu/h-x86_64-mingw32/bin/../lib/gcc/nios2-elf/5.3.0/../../../../../H-x86_64-mingw32/nios2-elf/lib\libc.a(lib_a-svfiprintf.o)
 .debug_line    0x000000000000a18d      0x956 c:/intelfpga_lite/18.1/nios2eds/bin/gnu/h-x86_64-mingw32/bin/../lib/gcc/nios2-elf/5.3.0/../../../../../H-x86_64-mingw32/nios2-elf/lib\libc.a(lib_a-vfiprintf.o)
 .debug_line    0x000000000000aae3      0x26e c:/intelfpga_lite/18.1/nios2eds/bin/gnu/h-x86_64-mingw32/bin/../lib/gcc/nios2-elf/5.3.0/../../../../../H-x86_64-mingw32/nios2-elf/lib\libc.a(lib_a-wbuf.o)
 .debug_line    0x000000000000ad51      0x1f3 c:/intelfpga_lite/18.1/nios2eds/bin/gnu/h-x86_64-mingw32/bin/../lib/gcc/nios2-elf/5.3.0/../../../../../H-x86_64-mingw32/nios2-elf/lib\libc.a(lib_a-writer.o)
 .debug_line    0x000000000000af44      0x1f3 c:/intelfpga_lite/18.1/nios2eds/bin/gnu/h-x86_64-mingw32/bin/../lib/gcc/nios2-elf/5.3.0/../../../../../H-x86_64-mingw32/nios2-elf/lib\libc.a(closer.o)
 .debug_line    0x000000000000b137      0x236 c:/intelfpga_lite/18.1/nios2eds/bin/gnu/h-x86_64-mingw32/bin/../lib/gcc/nios2-elf/5.3.0/../../../../../H-x86_64-mingw32/nios2-elf/lib\libc.a(lib_a-fclose.o)
 .debug_line    0x000000000000b36d      0x2a2 c:/intelfpga_lite/18.1/nios2eds/bin/gnu/h-x86_64-mingw32/bin/../lib/gcc/nios2-elf/5.3.0/../../../../../H-x86_64-mingw32/nios2-elf/lib\libc.a(lib_a-fputwc.o)
 .debug_line    0x000000000000b60f      0x1fc c:/intelfpga_lite/18.1/nios2eds/bin/gnu/h-x86_64-mingw32/bin/../lib/gcc/nios2-elf/5.3.0/../../../../../H-x86_64-mingw32/nios2-elf/lib\libc.a(lib_a-fstatr.o)
 .debug_line    0x000000000000b80b      0x1f4 c:/intelfpga_lite/18.1/nios2eds/bin/gnu/h-x86_64-mingw32/bin/../lib/gcc/nios2-elf/5.3.0/../../../../../H-x86_64-mingw32/nios2-elf/lib\libc.a(lib_a-isattyr.o)
 .debug_line    0x000000000000b9ff      0x1f3 c:/intelfpga_lite/18.1/nios2eds/bin/gnu/h-x86_64-mingw32/bin/../lib/gcc/nios2-elf/5.3.0/../../../../../H-x86_64-mingw32/nios2-elf/lib\libc.a(lib_a-lseekr.o)
 .debug_line    0x000000000000bbf2      0x1f2 c:/intelfpga_lite/18.1/nios2eds/bin/gnu/h-x86_64-mingw32/bin/../lib/gcc/nios2-elf/5.3.0/../../../../../H-x86_64-mingw32/nios2-elf/lib\libc.a(lib_a-readr.o)
 .debug_line    0x000000000000bde4      0x223 c:/intelfpga_lite/18.1/nios2eds/bin/gnu/h-x86_64-mingw32/bin/../lib/gcc/nios2-elf/5.3.0/../../../../../H-x86_64-mingw32/nios2-elf/lib\libc.a(lib_a-wcrtomb.o)
 .debug_line    0x000000000000c007      0x217 c:/intelfpga_lite/18.1/nios2eds/bin/gnu/h-x86_64-mingw32/bin/../lib/gcc/nios2-elf/5.3.0/../../../../../H-x86_64-mingw32/nios2-elf/lib\libc.a(lib_a-wctomb_r.o)
 .debug_line    0x000000000000c21e      0x12a c:/intelfpga_lite/18.1/nios2eds/bin/gnu/h-x86_64-mingw32/bin/../lib/gcc/nios2-elf/5.3.0\libgcc.a(_udivdi3.o)
 .debug_line    0x000000000000c348      0x13a c:/intelfpga_lite/18.1/nios2eds/bin/gnu/h-x86_64-mingw32/bin/../lib/gcc/nios2-elf/5.3.0\libgcc.a(_umoddi3.o)
 .debug_line    0x000000000000c482       0xaa c:/intelfpga_lite/18.1/nios2eds/bin/gnu/h-x86_64-mingw32/bin/../lib/gcc/nios2-elf/5.3.0\libgcc.a(eqdf2.o)
 .debug_line    0x000000000000c52c       0xcb c:/intelfpga_lite/18.1/nios2eds/bin/gnu/h-x86_64-mingw32/bin/../lib/gcc/nios2-elf/5.3.0\libgcc.a(gedf2.o)
 .debug_line    0x000000000000c5f7       0xe3 c:/intelfpga_lite/18.1/nios2eds/bin/gnu/h-x86_64-mingw32/bin/../lib/gcc/nios2-elf/5.3.0\libgcc.a(ledf2.o)
 .debug_line    0x000000000000c6da      0x3a8 c:/intelfpga_lite/18.1/nios2eds/bin/gnu/h-x86_64-mingw32/bin/../lib/gcc/nios2-elf/5.3.0\libgcc.a(subdf3.o)
 .debug_line    0x000000000000ca82       0x98 c:/intelfpga_lite/18.1/nios2eds/bin/gnu/h-x86_64-mingw32/bin/../lib/gcc/nios2-elf/5.3.0\libgcc.a(fixdfsi.o)
 .debug_line    0x000000000000cb1a      0x16d ../candy_avb_sss_bsp/\libucosii_bsp.a(alt_fstat.o)
 .debug_line    0x000000000000cc87      0x171 ../candy_avb_sss_bsp/\libucosii_bsp.a(alt_isatty.o)
 .debug_line    0x000000000000cdf8      0x172 ../candy_avb_sss_bsp/\libucosii_bsp.a(alt_lseek.o)
 .debug_line    0x000000000000cf6a      0x12f ../candy_avb_sss_bsp/\libucosii_bsp.a(alt_main.o)
 .debug_line    0x000000000000d099       0xf3 ../candy_avb_sss_bsp/\libucosii_bsp.a(alt_sbrk.o)
 .debug_line    0x000000000000d18c      0x141 ../candy_avb_sss_bsp/\libucosii_bsp.a(alt_usleep.o)
 .debug_line    0x000000000000d2cd      0x1aa ../candy_avb_sss_bsp/\libucosii_bsp.a(alt_env_lock.o)
 .debug_line    0x000000000000d477      0x20e ../candy_avb_sss_bsp/\libucosii_bsp.a(alt_malloc_lock.o)
 .debug_line    0x000000000000d685      0x68b ../candy_avb_sss_bsp/\libucosii_bsp.a(os_core.o)
 .debug_line    0x000000000000dd10       0xd2 ../candy_avb_sss_bsp/\libucosii_bsp.a(os_dbg.o)
 .debug_line    0x000000000000dde2      0x4ff ../candy_avb_sss_bsp/\libucosii_bsp.a(os_flag.o)
 .debug_line    0x000000000000e2e1      0x23e ../candy_avb_sss_bsp/\libucosii_bsp.a(os_mem.o)
 .debug_line    0x000000000000e51f      0x3fb ../candy_avb_sss_bsp/\libucosii_bsp.a(os_q.o)
 .debug_line    0x000000000000e91a      0x2e0 ../candy_avb_sss_bsp/\libucosii_bsp.a(os_sem.o)
 .debug_line    0x000000000000ebfa      0x52d ../candy_avb_sss_bsp/\libucosii_bsp.a(os_task.o)
 .debug_line    0x000000000000f127      0x1a7 ../candy_avb_sss_bsp/\libucosii_bsp.a(os_time.o)
 .debug_line    0x000000000000f2ce      0x343 ../candy_avb_sss_bsp/\libucosii_bsp.a(alt_sys_init.o)
 .debug_line    0x000000000000f611      0x155 ../candy_avb_sss_bsp/\libucosii_bsp.a(altera_avalon_jtag_uart_fd.o)
 .debug_line    0x000000000000f766      0x225 ../candy_avb_sss_bsp/\libucosii_bsp.a(altera_avalon_jtag_uart_init.o)
 .debug_line    0x000000000000f98b      0x157 ../candy_avb_sss_bsp/\libucosii_bsp.a(altera_avalon_jtag_uart_ioctl.o)
 .debug_line    0x000000000000fae2      0x1db ../candy_avb_sss_bsp/\libucosii_bsp.a(altera_avalon_jtag_uart_read.o)
 .debug_line    0x000000000000fcbd      0x1dc ../candy_avb_sss_bsp/\libucosii_bsp.a(altera_avalon_jtag_uart_write.o)
 .debug_line    0x000000000000fe99       0xfd ../candy_avb_sss_bsp/\libucosii_bsp.a(altera_avalon_timer_sc.o)
 .debug_line    0x000000000000ff96      0x132 ../candy_avb_sss_bsp/\libucosii_bsp.a(altera_avalon_uart_fd.o)
 .debug_line    0x00000000000100c8      0x22f ../candy_avb_sss_bsp/\libucosii_bsp.a(altera_avalon_uart_init.o)
 .debug_line    0x00000000000102f7      0x1f8 ../candy_avb_sss_bsp/\libucosii_bsp.a(altera_avalon_uart_read.o)
 .debug_line    0x00000000000104ef      0x1e6 ../candy_avb_sss_bsp/\libucosii_bsp.a(altera_avalon_uart_write.o)
 .debug_line    0x00000000000106d5      0x252 ../candy_avb_sss_bsp/\libucosii_bsp.a(altera_modular_adc.o)
 .debug_line    0x0000000000010927      0x6ac ../candy_avb_sss_bsp/\libucosii_bsp.a(altera_msgdma.o)
 .debug_line    0x0000000000010fd3      0x2e3 ../candy_avb_sss_bsp/\libucosii_bsp.a(altera_onchip_flash.o)
 .debug_line    0x00000000000112b6      0x5c9 ../candy_avb_sss_bsp/\libucosii_bsp.a(ins_tse_mac.o)
 .debug_line    0x000000000001187f       0xf2 ../candy_avb_sss_bsp/\libucosii_bsp.a(alt_iniche_close.o)
 .debug_line    0x0000000000011971      0x171 ../candy_avb_sss_bsp/\libucosii_bsp.a(alt_iniche_dev.o)
 .debug_line    0x0000000000011ae2      0x15c ../candy_avb_sss_bsp/\libucosii_bsp.a(alt_iniche_read.o)
 .debug_line    0x0000000000011c3e      0x14b ../candy_avb_sss_bsp/\libucosii_bsp.a(alt_iniche_write.o)
 .debug_line    0x0000000000011d89      0x278 ../candy_avb_sss_bsp/\libucosii_bsp.a(ipnet.o)
 .debug_line    0x0000000000012001      0x17c ../candy_avb_sss_bsp/\libucosii_bsp.a(ipstart.o)
 .debug_line    0x000000000001217d      0x2d5 ../candy_avb_sss_bsp/\libucosii_bsp.a(igmp_cmn.o)
 .debug_line    0x0000000000012452      0x382 ../candy_avb_sss_bsp/\libucosii_bsp.a(bsdsock.o)
 .debug_line    0x00000000000127d4       0x9a ../candy_avb_sss_bsp/\libucosii_bsp.a(cksum.o)
 .debug_line    0x000000000001286e      0x2b5 ../candy_avb_sss_bsp/\libucosii_bsp.a(in_utils.o)
 .debug_line    0x0000000000012b23      0x15d ../candy_avb_sss_bsp/\libucosii_bsp.a(netmain.o)
 .debug_line    0x0000000000012c80      0x1c3 ../candy_avb_sss_bsp/\libucosii_bsp.a(tk_crnos.o)
 .debug_line    0x0000000000012e43      0x504 ../candy_avb_sss_bsp/\libucosii_bsp.a(dhcpclnt.o)
 .debug_line    0x0000000000013347       0x94 ../candy_avb_sss_bsp/\libucosii_bsp.a(dhcputil.o)
 .debug_line    0x00000000000133db      0x1f9 ../candy_avb_sss_bsp/\libucosii_bsp.a(pktalloc.o)
 .debug_line    0x00000000000135d4       0xe5 ../candy_avb_sss_bsp/\libucosii_bsp.a(q.o)
 .debug_line    0x00000000000136b9      0x141 ../candy_avb_sss_bsp/\libucosii_bsp.a(udp_open.o)
 .debug_line    0x00000000000137fa       0xaf ../candy_avb_sss_bsp/\libucosii_bsp.a(asm_cksum.o)
 .debug_line    0x00000000000138a9      0x1ea ../candy_avb_sss_bsp/\libucosii_bsp.a(brdutils.o)
 .debug_line    0x0000000000013a93      0x14b ../candy_avb_sss_bsp/\libucosii_bsp.a(osportco.o)
 .debug_line    0x0000000000013bde      0x21f ../candy_avb_sss_bsp/\libucosii_bsp.a(targnios.o)
 .debug_line    0x0000000000013dfd      0x4cf ../candy_avb_sss_bsp/\libucosii_bsp.a(nptcp.o)
 .debug_line    0x00000000000142cc      0x282 ../candy_avb_sss_bsp/\libucosii_bsp.a(rawsock.o)
 .debug_line    0x000000000001454e      0x517 ../candy_avb_sss_bsp/\libucosii_bsp.a(sockcall.o)
 .debug_line    0x0000000000014a65      0x627 ../candy_avb_sss_bsp/\libucosii_bsp.a(socket.o)
 .debug_line    0x000000000001508c      0x3b0 ../candy_avb_sss_bsp/\libucosii_bsp.a(socket2.o)
 .debug_line    0x000000000001543c      0x2d0 ../candy_avb_sss_bsp/\libucosii_bsp.a(soselect.o)
 .debug_line    0x000000000001570c      0x78e ../candy_avb_sss_bsp/\libucosii_bsp.a(tcp_in.o)
 .debug_line    0x0000000000015e9a      0x429 ../candy_avb_sss_bsp/\libucosii_bsp.a(tcp_out.o)
 .debug_line    0x00000000000162c3      0x2c2 ../candy_avb_sss_bsp/\libucosii_bsp.a(tcp_subr.o)
 .debug_line    0x0000000000016585      0x28d ../candy_avb_sss_bsp/\libucosii_bsp.a(tcp_timr.o)
 .debug_line    0x0000000000016812      0x2da ../candy_avb_sss_bsp/\libucosii_bsp.a(tcp_usr.o)
 .debug_line    0x0000000000016aec       0x86 ../candy_avb_sss_bsp/\libucosii_bsp.a(tcpport.o)
 .debug_line    0x0000000000016b72      0x2cb ../candy_avb_sss_bsp/\libucosii_bsp.a(udpsock.o)
 .debug_line    0x0000000000016e3d       0xf9 ../candy_avb_sss_bsp/\libucosii_bsp.a(alt_alarm_start.o)
 .debug_line    0x0000000000016f36       0xa0 ../candy_avb_sss_bsp/\libucosii_bsp.a(alt_busy_sleep.o)
 .debug_line    0x0000000000016fd6      0x119 ../candy_avb_sss_bsp/\libucosii_bsp.a(alt_close.o)
 .debug_line    0x00000000000170ef       0x7c ../candy_avb_sss_bsp/\libucosii_bsp.a(alt_dcache_flush.o)
 .debug_line    0x000000000001716b      0x13c ../candy_avb_sss_bsp/\libucosii_bsp.a(alt_dev.o)
 .debug_line    0x00000000000172a7       0xcf ../candy_avb_sss_bsp/\libucosii_bsp.a(alt_dev_llist_insert.o)
 .debug_line    0x0000000000017376       0x59 ../candy_avb_sss_bsp/\libucosii_bsp.a(alt_do_ctors.o)
 .debug_line    0x00000000000173cf       0x59 ../candy_avb_sss_bsp/\libucosii_bsp.a(alt_do_dtors.o)
 .debug_line    0x0000000000017428       0x51 ../candy_avb_sss_bsp/\libucosii_bsp.a(alt_errno.o)
 .debug_line    0x0000000000017479       0xc4 ../candy_avb_sss_bsp/\libucosii_bsp.a(alt_find_dev.o)
 .debug_line    0x000000000001753d       0xed ../candy_avb_sss_bsp/\libucosii_bsp.a(alt_flash_dev.o)
 .debug_line    0x000000000001762a       0xeb ../candy_avb_sss_bsp/\libucosii_bsp.a(alt_iic.o)
 .debug_line    0x0000000000017715       0xdb ../candy_avb_sss_bsp/\libucosii_bsp.a(alt_iic_isr_register.o)
 .debug_line    0x00000000000177f0      0x142 ../candy_avb_sss_bsp/\libucosii_bsp.a(alt_io_redirect.o)
 .debug_line    0x0000000000017932       0x6b ../candy_avb_sss_bsp/\libucosii_bsp.a(alt_irq_entry.o)
 .debug_line    0x000000000001799d       0xc8 ../candy_avb_sss_bsp/\libucosii_bsp.a(alt_irq_handler.o)
 .debug_line    0x0000000000017a65       0x50 ../candy_avb_sss_bsp/\libucosii_bsp.a(alt_irq_vars.o)
 .debug_line    0x0000000000017ab5      0x137 ../candy_avb_sss_bsp/\libucosii_bsp.a(alt_open.o)
 .debug_line    0x0000000000017bec       0xef ../candy_avb_sss_bsp/\libucosii_bsp.a(alt_printf.o)
 .debug_line    0x0000000000017cdb      0x120 ../candy_avb_sss_bsp/\libucosii_bsp.a(alt_putchar.o)
 .debug_line    0x0000000000017dfb      0x1df ../candy_avb_sss_bsp/\libucosii_bsp.a(alt_read.o)
 .debug_line    0x0000000000017fda       0xbd ../candy_avb_sss_bsp/\libucosii_bsp.a(alt_release_fd.o)
 .debug_line    0x0000000000018097       0x68 ../candy_avb_sss_bsp/\libucosii_bsp.a(alt_remap_cached.o)
 .debug_line    0x00000000000180ff       0xff ../candy_avb_sss_bsp/\libucosii_bsp.a(alt_tick.o)
 .debug_line    0x00000000000181fe       0x6a ../candy_avb_sss_bsp/\libucosii_bsp.a(alt_uncached_free.o)
 .debug_line    0x0000000000018268       0xd6 ../candy_avb_sss_bsp/\libucosii_bsp.a(alt_uncached_malloc.o)
 .debug_line    0x000000000001833e      0x1de ../candy_avb_sss_bsp/\libucosii_bsp.a(alt_write.o)
 .debug_line    0x000000000001851c       0x51 ../candy_avb_sss_bsp/\libucosii_bsp.a(altera_nios2_gen2_irq.o)
 .debug_line    0x000000000001856d       0x86 ../candy_avb_sss_bsp/\libucosii_bsp.a(os_cpu_a.o)
 .debug_line    0x00000000000185f3      0x1b3 ../candy_avb_sss_bsp/\libucosii_bsp.a(os_cpu_c.o)
 .debug_line    0x00000000000187a6      0xf18 ../candy_avb_sss_bsp/\libucosii_bsp.a(altera_avalon_tse.o)
 .debug_line    0x00000000000196be      0x17f ../candy_avb_sss_bsp/\libucosii_bsp.a(allports.o)
 .debug_line    0x000000000001983d      0x159 ../candy_avb_sss_bsp/\libucosii_bsp.a(timeouts.o)
 .debug_line    0x0000000000019996       0x98 ../candy_avb_sss_bsp/\libucosii_bsp.a(tk_misc.o)
 .debug_line    0x0000000000019a2e      0x15d ../candy_avb_sss_bsp/\libucosii_bsp.a(alt_iniche_fcntl.o)
 .debug_line    0x0000000000019b8b      0x365 ../candy_avb_sss_bsp/\libucosii_bsp.a(et_arp.o)
 .debug_line    0x0000000000019ef0      0x1c4 ../candy_avb_sss_bsp/\libucosii_bsp.a(iface.o)
 .debug_line    0x000000000001a0b4      0x4f2 ../candy_avb_sss_bsp/\libucosii_bsp.a(ip.o)
 .debug_line    0x000000000001a5a6      0x450 ../candy_avb_sss_bsp/\libucosii_bsp.a(ip_reasm.o)
 .debug_line    0x000000000001a9f6      0x285 ../candy_avb_sss_bsp/\libucosii_bsp.a(ipdemux.o)
 .debug_line    0x000000000001ac7b      0x124 ../candy_avb_sss_bsp/\libucosii_bsp.a(ipmc.o)
 .debug_line    0x000000000001ad9f       0xc5 ../candy_avb_sss_bsp/\libucosii_bsp.a(ipport.o)
 .debug_line    0x000000000001ae64      0x172 ../candy_avb_sss_bsp/\libucosii_bsp.a(ipraw.o)
 .debug_line    0x000000000001afd6      0x1b5 ../candy_avb_sss_bsp/\libucosii_bsp.a(iproute.o)
 .debug_line    0x000000000001b18b      0x311 ../candy_avb_sss_bsp/\libucosii_bsp.a(udp.o)
 .debug_line    0x000000000001b49c      0x10a ../candy_avb_sss_bsp/\libucosii_bsp.a(igmp.o)
 .debug_line    0x000000000001b5a6      0x1b0 ../candy_avb_sss_bsp/\libucosii_bsp.a(igmp2.o)
 .debug_line    0x000000000001b756      0x2b4 ../candy_avb_sss_bsp/\libucosii_bsp.a(ipopt.o)
 .debug_line    0x000000000001ba0a      0x198 ../candy_avb_sss_bsp/\libucosii_bsp.a(u_mctest.o)
 .debug_line    0x000000000001bba2      0x157 ../candy_avb_sss_bsp/\libucosii_bsp.a(dhcsetup.o)
 .debug_line    0x000000000001bcf9      0x111 ../candy_avb_sss_bsp/\libucosii_bsp.a(memdev.o)
 .debug_line    0x000000000001be0a      0x269 ../candy_avb_sss_bsp/\libucosii_bsp.a(parseip.o)
 .debug_line    0x000000000001c073       0xe0 ../candy_avb_sss_bsp/\libucosii_bsp.a(tcpcksum.o)
 .debug_line    0x000000000001c153      0x260 ../candy_avb_sss_bsp/\libucosii_bsp.a(in_pcb.o)
 .debug_line    0x000000000001c3b3      0x3fc ../candy_avb_sss_bsp/\libucosii_bsp.a(vfsfiles.o)
 .debug_line    0x000000000001c7af       0x85 ../candy_avb_sss_bsp/\libucosii_bsp.a(vfsport.o)
 .debug_line    0x000000000001c834       0xb3 ../candy_avb_sss_bsp/\libucosii_bsp.a(alt_exception_entry.o)
 .debug_line    0x000000000001c8e7      0x1e0 ../candy_avb_sss_bsp/\libucosii_bsp.a(alt_fcntl.o)
 .debug_line    0x000000000001cac7       0xe0 ../candy_avb_sss_bsp/\libucosii_bsp.a(alt_find_file.o)
 .debug_line    0x000000000001cba7      0x126 ../candy_avb_sss_bsp/\libucosii_bsp.a(alt_get_fd.o)
 .debug_line    0x000000000001cccd       0xba ../candy_avb_sss_bsp/\libucosii_bsp.a(alt_instruction_exception_entry.o)
 .debug_line    0x000000000001cd87      0x276 ../candy_avb_sss_bsp/\libucosii_bsp.a(icmp.o)
 .debug_line    0x000000000001cffd       0xe4 c:/intelfpga_lite/18.1/nios2eds/bin/gnu/h-x86_64-mingw32/bin/../lib/gcc/nios2-elf/5.3.0/../../../../../H-x86_64-mingw32/nios2-elf/lib\libc.a(lib_a-atexit.o)
 .debug_line    0x000000000001d0e1      0x1ee c:/intelfpga_lite/18.1/nios2eds/bin/gnu/h-x86_64-mingw32/bin/../lib/gcc/nios2-elf/5.3.0/../../../../../H-x86_64-mingw32/nios2-elf/lib\libc.a(lib_a-atoi.o)
 .debug_line    0x000000000001d2cf      0x1f9 c:/intelfpga_lite/18.1/nios2eds/bin/gnu/h-x86_64-mingw32/bin/../lib/gcc/nios2-elf/5.3.0/../../../../../H-x86_64-mingw32/nios2-elf/lib\libc.a(lib_a-exit.o)
 .debug_line    0x000000000001d4c8      0x24d c:/intelfpga_lite/18.1/nios2eds/bin/gnu/h-x86_64-mingw32/bin/../lib/gcc/nios2-elf/5.3.0/../../../../../H-x86_64-mingw32/nios2-elf/lib\libc.a(lib_a-getc.o)
 .debug_line    0x000000000001d715      0x1dd c:/intelfpga_lite/18.1/nios2eds/bin/gnu/h-x86_64-mingw32/bin/../lib/gcc/nios2-elf/5.3.0/../../../../../H-x86_64-mingw32/nios2-elf/lib\libc.a(lib_a-malign.o)
 .debug_line    0x000000000001d8f2      0x1c7 c:/intelfpga_lite/18.1/nios2eds/bin/gnu/h-x86_64-mingw32/bin/../lib/gcc/nios2-elf/5.3.0/../../../../../H-x86_64-mingw32/nios2-elf/lib\libc.a(lib_a-malignr.o)
 .debug_line    0x000000000001dab9      0x173 c:/intelfpga_lite/18.1/nios2eds/bin/gnu/h-x86_64-mingw32/bin/../lib/gcc/nios2-elf/5.3.0/../../../../../H-x86_64-mingw32/nios2-elf/lib\libc.a(lib_a-memcmp.o)
 .debug_line    0x000000000001dc2c      0x1f2 c:/intelfpga_lite/18.1/nios2eds/bin/gnu/h-x86_64-mingw32/bin/../lib/gcc/nios2-elf/5.3.0/../../../../../H-x86_64-mingw32/nios2-elf/lib\libc.a(lib_a-putchar.o)
 .debug_line    0x000000000001de1e      0x20b c:/intelfpga_lite/18.1/nios2eds/bin/gnu/h-x86_64-mingw32/bin/../lib/gcc/nios2-elf/5.3.0/../../../../../H-x86_64-mingw32/nios2-elf/lib\libc.a(lib_a-rget.o)
 .debug_line    0x000000000001e029       0xf1 c:/intelfpga_lite/18.1/nios2eds/bin/gnu/h-x86_64-mingw32/bin/../lib/gcc/nios2-elf/5.3.0/../../../../../H-x86_64-mingw32/nios2-elf/lib\libc.a(lib_a-strcpy.o)
 .debug_line    0x000000000001e11a      0x19a c:/intelfpga_lite/18.1/nios2eds/bin/gnu/h-x86_64-mingw32/bin/../lib/gcc/nios2-elf/5.3.0/../../../../../H-x86_64-mingw32/nios2-elf/lib\libc.a(lib_a-strncmp.o)
 .debug_line    0x000000000001e2b4      0x189 c:/intelfpga_lite/18.1/nios2eds/bin/gnu/h-x86_64-mingw32/bin/../lib/gcc/nios2-elf/5.3.0/../../../../../H-x86_64-mingw32/nios2-elf/lib\libc.a(lib_a-strncpy.o)
 .debug_line    0x000000000001e43d      0x284 c:/intelfpga_lite/18.1/nios2eds/bin/gnu/h-x86_64-mingw32/bin/../lib/gcc/nios2-elf/5.3.0/../../../../../H-x86_64-mingw32/nios2-elf/lib\libc.a(lib_a-strtol.o)
 .debug_line    0x000000000001e6c1      0x1fd c:/intelfpga_lite/18.1/nios2eds/bin/gnu/h-x86_64-mingw32/bin/../lib/gcc/nios2-elf/5.3.0/../../../../../H-x86_64-mingw32/nios2-elf/lib\libc.a(lib_a-vprintf.o)
 .debug_line    0x000000000001e8be      0x217 c:/intelfpga_lite/18.1/nios2eds/bin/gnu/h-x86_64-mingw32/bin/../lib/gcc/nios2-elf/5.3.0/../../../../../H-x86_64-mingw32/nios2-elf/lib\libc.a(lib_a-vsprintf.o)
 .debug_line    0x000000000001ead5      0x21c c:/intelfpga_lite/18.1/nios2eds/bin/gnu/h-x86_64-mingw32/bin/../lib/gcc/nios2-elf/5.3.0/../../../../../H-x86_64-mingw32/nios2-elf/lib\libc.a(lib_a-__atexit.o)
 .debug_line    0x000000000001ecf1      0x237 c:/intelfpga_lite/18.1/nios2eds/bin/gnu/h-x86_64-mingw32/bin/../lib/gcc/nios2-elf/5.3.0/../../../../../H-x86_64-mingw32/nios2-elf/lib\libc.a(lib_a-__call_atexit.o)
 .debug_line    0x000000000001ef28       0xc4 c:/intelfpga_lite/18.1/nios2eds/bin/gnu/h-x86_64-mingw32/bin/../lib/gcc/nios2-elf/5.3.0/../../../../../H-x86_64-mingw32/nios2-elf/lib\libc.a(lib_a-ctype_.o)
 .debug_line    0x000000000001efec      0x27c c:/intelfpga_lite/18.1/nios2eds/bin/gnu/h-x86_64-mingw32/bin/../lib/gcc/nios2-elf/5.3.0/../../../../../H-x86_64-mingw32/nios2-elf/lib\libc.a(lib_a-refill.o)
 .debug_line    0x000000000001f268      0x1f5 c:/intelfpga_lite/18.1/nios2eds/bin/gnu/h-x86_64-mingw32/bin/../lib/gcc/nios2-elf/5.3.0/../../../../../H-x86_64-mingw32/nios2-elf/lib\libc.a(lib_a-vfprintfr_1.o)
 .debug_line    0x000000000001f45d       0xce ../candy_avb_sss_bsp/\libucosii_bsp.a(alt_exit.o)

.debug_frame    0x0000000000000000     0x9a6c
 *(.debug_frame)
 .debug_frame   0x0000000000000000      0x19c obj/default/SigmaStudioFW.o
 .debug_frame   0x000000000000019c       0x88 obj/default/alt_error_handler.o
 .debug_frame   0x0000000000000224       0x98 obj/default/iniche_init.o
 .debug_frame   0x00000000000002bc       0x58 obj/default/network_utilities.o
 .debug_frame   0x0000000000000314      0x708 obj/default/osc.o
 .debug_frame   0x0000000000000a1c       0x80 obj/default/osc_server.o
 .debug_frame   0x0000000000000a9c       0xc0 obj/default/sigmadsp.o
 .debug_frame   0x0000000000000b5c       0x3c c:/intelfpga_lite/18.1/nios2eds/bin/gnu/h-x86_64-mingw32/bin/../lib/gcc/nios2-elf/5.3.0\libgcc.a(_floatdisf.o)
 .debug_frame   0x0000000000000b98       0x3c c:/intelfpga_lite/18.1/nios2eds/bin/gnu/h-x86_64-mingw32/bin/../lib/gcc/nios2-elf/5.3.0\libgcc.a(addsf3.o)
 .debug_frame   0x0000000000000bd4       0x58 c:/intelfpga_lite/18.1/nios2eds/bin/gnu/h-x86_64-mingw32/bin/../lib/gcc/nios2-elf/5.3.0\libgcc.a(mulsf3.o)
 .debug_frame   0x0000000000000c2c       0x20 c:/intelfpga_lite/18.1/nios2eds/bin/gnu/h-x86_64-mingw32/bin/../lib/gcc/nios2-elf/5.3.0\libgcc.a(fixsfsi.o)
 .debug_frame   0x0000000000000c4c       0x38 c:/intelfpga_lite/18.1/nios2eds/bin/gnu/h-x86_64-mingw32/bin/../lib/gcc/nios2-elf/5.3.0\libgcc.a(floatsisf.o)
 .debug_frame   0x0000000000000c84       0x40 c:/intelfpga_lite/18.1/nios2eds/bin/gnu/h-x86_64-mingw32/bin/../lib/gcc/nios2-elf/5.3.0\libgcc.a(adddf3.o)
 .debug_frame   0x0000000000000cc4       0x58 c:/intelfpga_lite/18.1/nios2eds/bin/gnu/h-x86_64-mingw32/bin/../lib/gcc/nios2-elf/5.3.0\libgcc.a(divdf3.o)
 .debug_frame   0x0000000000000d1c       0x58 c:/intelfpga_lite/18.1/nios2eds/bin/gnu/h-x86_64-mingw32/bin/../lib/gcc/nios2-elf/5.3.0\libgcc.a(muldf3.o)
 .debug_frame   0x0000000000000d74       0x38 c:/intelfpga_lite/18.1/nios2eds/bin/gnu/h-x86_64-mingw32/bin/../lib/gcc/nios2-elf/5.3.0\libgcc.a(floatsidf.o)
 .debug_frame   0x0000000000000dac       0x34 c:/intelfpga_lite/18.1/nios2eds/bin/gnu/h-x86_64-mingw32/bin/../lib/gcc/nios2-elf/5.3.0\libgcc.a(floatunsidf.o)
 .debug_frame   0x0000000000000de0       0x38 c:/intelfpga_lite/18.1/nios2eds/bin/gnu/h-x86_64-mingw32/bin/../lib/gcc/nios2-elf/5.3.0\libgcc.a(extendsfdf2.o)
 .debug_frame   0x0000000000000e18       0x20 c:/intelfpga_lite/18.1/nios2eds/bin/gnu/h-x86_64-mingw32/bin/../lib/gcc/nios2-elf/5.3.0\libgcc.a(truncdfsf2.o)
 .debug_frame   0x0000000000000e38       0x20 c:/intelfpga_lite/18.1/nios2eds/bin/gnu/h-x86_64-mingw32/bin/../lib/gcc/nios2-elf/5.3.0\libgcc.a(_clzsi2.o)
 .debug_frame   0x0000000000000e58       0x50 c:/intelfpga_lite/18.1/nios2eds/bin/gnu/h-x86_64-mingw32/bin/../lib/gcc/nios2-elf/5.3.0\libgcc.a(lib2-divmod.o)
 .debug_frame   0x0000000000000ea8       0x20 c:/intelfpga_lite/18.1/nios2eds/bin/gnu/h-x86_64-mingw32/bin/../lib/gcc/nios2-elf/5.3.0/../../../../../H-x86_64-mingw32/nios2-elf/lib\libc.a(lib_a-calloc.o)
 .debug_frame   0x0000000000000ec8       0x40 c:/intelfpga_lite/18.1/nios2eds/bin/gnu/h-x86_64-mingw32/bin/../lib/gcc/nios2-elf/5.3.0/../../../../../H-x86_64-mingw32/nios2-elf/lib\libc.a(lib_a-callocr.o)
 .debug_frame   0x0000000000000f08       0x48 c:/intelfpga_lite/18.1/nios2eds/bin/gnu/h-x86_64-mingw32/bin/../lib/gcc/nios2-elf/5.3.0/../../../../../H-x86_64-mingw32/nios2-elf/lib\libc.a(lib_a-fprintf.o)
 .debug_frame   0x0000000000000f50       0x5c c:/intelfpga_lite/18.1/nios2eds/bin/gnu/h-x86_64-mingw32/bin/../lib/gcc/nios2-elf/5.3.0/../../../../../H-x86_64-mingw32/nios2-elf/lib\libc.a(lib_a-fwrite.o)
 .debug_frame   0x0000000000000fac       0x30 c:/intelfpga_lite/18.1/nios2eds/bin/gnu/h-x86_64-mingw32/bin/../lib/gcc/nios2-elf/5.3.0/../../../../../H-x86_64-mingw32/nios2-elf/lib\libc.a(lib_a-malloc.o)
 .debug_frame   0x0000000000000fdc       0x54 c:/intelfpga_lite/18.1/nios2eds/bin/gnu/h-x86_64-mingw32/bin/../lib/gcc/nios2-elf/5.3.0/../../../../../H-x86_64-mingw32/nios2-elf/lib\libc.a(lib_a-mallocr.o)
 .debug_frame   0x0000000000001030       0x38 c:/intelfpga_lite/18.1/nios2eds/bin/gnu/h-x86_64-mingw32/bin/../lib/gcc/nios2-elf/5.3.0/../../../../../H-x86_64-mingw32/nios2-elf/lib\libc.a(lib_a-memcpy.o)
 .debug_frame   0x0000000000001068       0x20 c:/intelfpga_lite/18.1/nios2eds/bin/gnu/h-x86_64-mingw32/bin/../lib/gcc/nios2-elf/5.3.0/../../../../../H-x86_64-mingw32/nios2-elf/lib\libc.a(lib_a-memset.o)
 .debug_frame   0x0000000000001088       0x44 c:/intelfpga_lite/18.1/nios2eds/bin/gnu/h-x86_64-mingw32/bin/../lib/gcc/nios2-elf/5.3.0/../../../../../H-x86_64-mingw32/nios2-elf/lib\libc.a(lib_a-perror.o)
 .debug_frame   0x00000000000010cc       0x48 c:/intelfpga_lite/18.1/nios2eds/bin/gnu/h-x86_64-mingw32/bin/../lib/gcc/nios2-elf/5.3.0/../../../../../H-x86_64-mingw32/nios2-elf/lib\libc.a(lib_a-printf.o)
 .debug_frame   0x0000000000001114       0x48 c:/intelfpga_lite/18.1/nios2eds/bin/gnu/h-x86_64-mingw32/bin/../lib/gcc/nios2-elf/5.3.0/../../../../../H-x86_64-mingw32/nios2-elf/lib\libc.a(lib_a-puts.o)
 .debug_frame   0x000000000000115c       0x38 c:/intelfpga_lite/18.1/nios2eds/bin/gnu/h-x86_64-mingw32/bin/../lib/gcc/nios2-elf/5.3.0/../../../../../H-x86_64-mingw32/nios2-elf/lib\libc.a(lib_a-sbrkr.o)
 .debug_frame   0x0000000000001194       0x48 c:/intelfpga_lite/18.1/nios2eds/bin/gnu/h-x86_64-mingw32/bin/../lib/gcc/nios2-elf/5.3.0/../../../../../H-x86_64-mingw32/nios2-elf/lib\libc.a(lib_a-sprintf.o)
 .debug_frame   0x00000000000011dc       0x20 c:/intelfpga_lite/18.1/nios2eds/bin/gnu/h-x86_64-mingw32/bin/../lib/gcc/nios2-elf/5.3.0/../../../../../H-x86_64-mingw32/nios2-elf/lib\libc.a(lib_a-strchr.o)
 .debug_frame   0x00000000000011fc       0x20 c:/intelfpga_lite/18.1/nios2eds/bin/gnu/h-x86_64-mingw32/bin/../lib/gcc/nios2-elf/5.3.0/../../../../../H-x86_64-mingw32/nios2-elf/lib\libc.a(lib_a-strcmp.o)
 .debug_frame   0x000000000000121c       0x40 c:/intelfpga_lite/18.1/nios2eds/bin/gnu/h-x86_64-mingw32/bin/../lib/gcc/nios2-elf/5.3.0/../../../../../H-x86_64-mingw32/nios2-elf/lib\libc.a(lib_a-strerror.o)
 .debug_frame   0x000000000000125c       0x20 c:/intelfpga_lite/18.1/nios2eds/bin/gnu/h-x86_64-mingw32/bin/../lib/gcc/nios2-elf/5.3.0/../../../../../H-x86_64-mingw32/nios2-elf/lib\libc.a(lib_a-strlen.o)
 .debug_frame   0x000000000000127c       0x58 c:/intelfpga_lite/18.1/nios2eds/bin/gnu/h-x86_64-mingw32/bin/../lib/gcc/nios2-elf/5.3.0/../../../../../H-x86_64-mingw32/nios2-elf/lib\libc.a(lib_a-svfprintf.o)
 .debug_frame   0x00000000000012d4       0x20 c:/intelfpga_lite/18.1/nios2eds/bin/gnu/h-x86_64-mingw32/bin/../lib/gcc/nios2-elf/5.3.0/../../../../../H-x86_64-mingw32/nios2-elf/lib\libc.a(lib_a-u_strerr.o)
 .debug_frame   0x00000000000012f4       0x98 c:/intelfpga_lite/18.1/nios2eds/bin/gnu/h-x86_64-mingw32/bin/../lib/gcc/nios2-elf/5.3.0/../../../../../H-x86_64-mingw32/nios2-elf/lib\libc.a(lib_a-vfprintf.o)
 .debug_frame   0x000000000000138c       0x38 c:/intelfpga_lite/18.1/nios2eds/bin/gnu/h-x86_64-mingw32/bin/../lib/gcc/nios2-elf/5.3.0/../../../../../H-x86_64-mingw32/nios2-elf/lib\libc.a(lib_a-wsetup.o)
 .debug_frame   0x00000000000013c4       0x98 c:/intelfpga_lite/18.1/nios2eds/bin/gnu/h-x86_64-mingw32/bin/../lib/gcc/nios2-elf/5.3.0/../../../../../H-x86_64-mingw32/nios2-elf/lib\libc.a(lib_a-dtoa.o)
 .debug_frame   0x000000000000145c       0x7c c:/intelfpga_lite/18.1/nios2eds/bin/gnu/h-x86_64-mingw32/bin/../lib/gcc/nios2-elf/5.3.0/../../../../../H-x86_64-mingw32/nios2-elf/lib\libc.a(lib_a-fflush.o)
 .debug_frame   0x00000000000014d8      0x160 c:/intelfpga_lite/18.1/nios2eds/bin/gnu/h-x86_64-mingw32/bin/../lib/gcc/nios2-elf/5.3.0/../../../../../H-x86_64-mingw32/nios2-elf/lib\libc.a(lib_a-findfp.o)
 .debug_frame   0x0000000000001638       0x54 c:/intelfpga_lite/18.1/nios2eds/bin/gnu/h-x86_64-mingw32/bin/../lib/gcc/nios2-elf/5.3.0/../../../../../H-x86_64-mingw32/nios2-elf/lib\libc.a(lib_a-fputc.o)
 .debug_frame   0x000000000000168c       0x48 c:/intelfpga_lite/18.1/nios2eds/bin/gnu/h-x86_64-mingw32/bin/../lib/gcc/nios2-elf/5.3.0/../../../../../H-x86_64-mingw32/nios2-elf/lib\libc.a(lib_a-fputs.o)
 .debug_frame   0x00000000000016d4       0x70 c:/intelfpga_lite/18.1/nios2eds/bin/gnu/h-x86_64-mingw32/bin/../lib/gcc/nios2-elf/5.3.0/../../../../../H-x86_64-mingw32/nios2-elf/lib\libc.a(lib_a-freer.o)
 .debug_frame   0x0000000000001744       0x78 c:/intelfpga_lite/18.1/nios2eds/bin/gnu/h-x86_64-mingw32/bin/../lib/gcc/nios2-elf/5.3.0/../../../../../H-x86_64-mingw32/nios2-elf/lib\libc.a(lib_a-fvwrite.o)
 .debug_frame   0x00000000000017bc       0x90 c:/intelfpga_lite/18.1/nios2eds/bin/gnu/h-x86_64-mingw32/bin/../lib/gcc/nios2-elf/5.3.0/../../../../../H-x86_64-mingw32/nios2-elf/lib\libc.a(lib_a-fwalk.o)
 .debug_frame   0x000000000000184c       0xa8 c:/intelfpga_lite/18.1/nios2eds/bin/gnu/h-x86_64-mingw32/bin/../lib/gcc/nios2-elf/5.3.0/../../../../../H-x86_64-mingw32/nios2-elf/lib\libc.a(lib_a-locale.o)
 .debug_frame   0x00000000000018f4       0x4c c:/intelfpga_lite/18.1/nios2eds/bin/gnu/h-x86_64-mingw32/bin/../lib/gcc/nios2-elf/5.3.0/../../../../../H-x86_64-mingw32/nios2-elf/lib\libc.a(lib_a-makebuf.o)
 .debug_frame   0x0000000000001940       0x20 c:/intelfpga_lite/18.1/nios2eds/bin/gnu/h-x86_64-mingw32/bin/../lib/gcc/nios2-elf/5.3.0/../../../../../H-x86_64-mingw32/nios2-elf/lib\libc.a(lib_a-memchr.o)
 .debug_frame   0x0000000000001960       0x20 c:/intelfpga_lite/18.1/nios2eds/bin/gnu/h-x86_64-mingw32/bin/../lib/gcc/nios2-elf/5.3.0/../../../../../H-x86_64-mingw32/nios2-elf/lib\libc.a(lib_a-memmove.o)
 .debug_frame   0x0000000000001980      0x2e0 c:/intelfpga_lite/18.1/nios2eds/bin/gnu/h-x86_64-mingw32/bin/../lib/gcc/nios2-elf/5.3.0/../../../../../H-x86_64-mingw32/nios2-elf/lib\libc.a(lib_a-mprec.o)
 .debug_frame   0x0000000000001c60       0x70 c:/intelfpga_lite/18.1/nios2eds/bin/gnu/h-x86_64-mingw32/bin/../lib/gcc/nios2-elf/5.3.0/../../../../../H-x86_64-mingw32/nios2-elf/lib\libc.a(lib_a-putc.o)
 .debug_frame   0x0000000000001cd0       0x70 c:/intelfpga_lite/18.1/nios2eds/bin/gnu/h-x86_64-mingw32/bin/../lib/gcc/nios2-elf/5.3.0/../../../../../H-x86_64-mingw32/nios2-elf/lib\libc.a(lib_a-reallocr.o)
 .debug_frame   0x0000000000001d40       0x20 c:/intelfpga_lite/18.1/nios2eds/bin/gnu/h-x86_64-mingw32/bin/../lib/gcc/nios2-elf/5.3.0/../../../../../H-x86_64-mingw32/nios2-elf/lib\libc.a(lib_a-s_fpclassify.o)
 .debug_frame   0x0000000000001d60       0xb4 c:/intelfpga_lite/18.1/nios2eds/bin/gnu/h-x86_64-mingw32/bin/../lib/gcc/nios2-elf/5.3.0/../../../../../H-x86_64-mingw32/nios2-elf/lib\libc.a(lib_a-stdio.o)
 .debug_frame   0x0000000000001e14       0x9c c:/intelfpga_lite/18.1/nios2eds/bin/gnu/h-x86_64-mingw32/bin/../lib/gcc/nios2-elf/5.3.0/../../../../../H-x86_64-mingw32/nios2-elf/lib\libc.a(lib_a-svfiprintf.o)
 .debug_frame   0x0000000000001eb0       0xec c:/intelfpga_lite/18.1/nios2eds/bin/gnu/h-x86_64-mingw32/bin/../lib/gcc/nios2-elf/5.3.0/../../../../../H-x86_64-mingw32/nios2-elf/lib\libc.a(lib_a-vfiprintf.o)
 .debug_frame   0x0000000000001f9c       0x50 c:/intelfpga_lite/18.1/nios2eds/bin/gnu/h-x86_64-mingw32/bin/../lib/gcc/nios2-elf/5.3.0/../../../../../H-x86_64-mingw32/nios2-elf/lib\libc.a(lib_a-wbuf.o)
 .debug_frame   0x0000000000001fec       0x38 c:/intelfpga_lite/18.1/nios2eds/bin/gnu/h-x86_64-mingw32/bin/../lib/gcc/nios2-elf/5.3.0/../../../../../H-x86_64-mingw32/nios2-elf/lib\libc.a(lib_a-writer.o)
 .debug_frame   0x0000000000002024       0x38 c:/intelfpga_lite/18.1/nios2eds/bin/gnu/h-x86_64-mingw32/bin/../lib/gcc/nios2-elf/5.3.0/../../../../../H-x86_64-mingw32/nios2-elf/lib\libc.a(closer.o)
 .debug_frame   0x000000000000205c       0x54 c:/intelfpga_lite/18.1/nios2eds/bin/gnu/h-x86_64-mingw32/bin/../lib/gcc/nios2-elf/5.3.0/../../../../../H-x86_64-mingw32/nios2-elf/lib\libc.a(lib_a-fclose.o)
 .debug_frame   0x00000000000020b0       0x80 c:/intelfpga_lite/18.1/nios2eds/bin/gnu/h-x86_64-mingw32/bin/../lib/gcc/nios2-elf/5.3.0/../../../../../H-x86_64-mingw32/nios2-elf/lib\libc.a(lib_a-fputwc.o)
 .debug_frame   0x0000000000002130       0x38 c:/intelfpga_lite/18.1/nios2eds/bin/gnu/h-x86_64-mingw32/bin/../lib/gcc/nios2-elf/5.3.0/../../../../../H-x86_64-mingw32/nios2-elf/lib\libc.a(lib_a-fstatr.o)
 .debug_frame   0x0000000000002168       0x38 c:/intelfpga_lite/18.1/nios2eds/bin/gnu/h-x86_64-mingw32/bin/../lib/gcc/nios2-elf/5.3.0/../../../../../H-x86_64-mingw32/nios2-elf/lib\libc.a(lib_a-isattyr.o)
 .debug_frame   0x00000000000021a0       0x38 c:/intelfpga_lite/18.1/nios2eds/bin/gnu/h-x86_64-mingw32/bin/../lib/gcc/nios2-elf/5.3.0/../../../../../H-x86_64-mingw32/nios2-elf/lib\libc.a(lib_a-lseekr.o)
 .debug_frame   0x00000000000021d8       0x38 c:/intelfpga_lite/18.1/nios2eds/bin/gnu/h-x86_64-mingw32/bin/../lib/gcc/nios2-elf/5.3.0/../../../../../H-x86_64-mingw32/nios2-elf/lib\libc.a(lib_a-readr.o)
 .debug_frame   0x0000000000002210       0x70 c:/intelfpga_lite/18.1/nios2eds/bin/gnu/h-x86_64-mingw32/bin/../lib/gcc/nios2-elf/5.3.0/../../../../../H-x86_64-mingw32/nios2-elf/lib\libc.a(lib_a-wcrtomb.o)
 .debug_frame   0x0000000000002280       0x44 c:/intelfpga_lite/18.1/nios2eds/bin/gnu/h-x86_64-mingw32/bin/../lib/gcc/nios2-elf/5.3.0/../../../../../H-x86_64-mingw32/nios2-elf/lib\libc.a(lib_a-wctomb_r.o)
 .debug_frame   0x00000000000022c4       0x54 c:/intelfpga_lite/18.1/nios2eds/bin/gnu/h-x86_64-mingw32/bin/../lib/gcc/nios2-elf/5.3.0\libgcc.a(_udivdi3.o)
 .debug_frame   0x0000000000002318       0x54 c:/intelfpga_lite/18.1/nios2eds/bin/gnu/h-x86_64-mingw32/bin/../lib/gcc/nios2-elf/5.3.0\libgcc.a(_umoddi3.o)
 .debug_frame   0x000000000000236c       0x20 c:/intelfpga_lite/18.1/nios2eds/bin/gnu/h-x86_64-mingw32/bin/../lib/gcc/nios2-elf/5.3.0\libgcc.a(eqdf2.o)
 .debug_frame   0x000000000000238c       0x20 c:/intelfpga_lite/18.1/nios2eds/bin/gnu/h-x86_64-mingw32/bin/../lib/gcc/nios2-elf/5.3.0\libgcc.a(gedf2.o)
 .debug_frame   0x00000000000023ac       0x20 c:/intelfpga_lite/18.1/nios2eds/bin/gnu/h-x86_64-mingw32/bin/../lib/gcc/nios2-elf/5.3.0\libgcc.a(ledf2.o)
 .debug_frame   0x00000000000023cc       0x44 c:/intelfpga_lite/18.1/nios2eds/bin/gnu/h-x86_64-mingw32/bin/../lib/gcc/nios2-elf/5.3.0\libgcc.a(subdf3.o)
 .debug_frame   0x0000000000002410       0x20 c:/intelfpga_lite/18.1/nios2eds/bin/gnu/h-x86_64-mingw32/bin/../lib/gcc/nios2-elf/5.3.0\libgcc.a(fixdfsi.o)
 .debug_frame   0x0000000000002430       0x60 ../candy_avb_sss_bsp/\libucosii_bsp.a(alt_fstat.o)
 .debug_frame   0x0000000000002490       0x60 ../candy_avb_sss_bsp/\libucosii_bsp.a(alt_isatty.o)
 .debug_frame   0x00000000000024f0       0x60 ../candy_avb_sss_bsp/\libucosii_bsp.a(alt_lseek.o)
 .debug_frame   0x0000000000002550       0x2c ../candy_avb_sss_bsp/\libucosii_bsp.a(alt_main.o)
 .debug_frame   0x000000000000257c       0x34 ../candy_avb_sss_bsp/\libucosii_bsp.a(alt_sbrk.o)
 .debug_frame   0x00000000000025b0       0x3c ../candy_avb_sss_bsp/\libucosii_bsp.a(alt_usleep.o)
 .debug_frame   0x00000000000025ec       0x60 ../candy_avb_sss_bsp/\libucosii_bsp.a(alt_env_lock.o)
 .debug_frame   0x000000000000264c       0x64 ../candy_avb_sss_bsp/\libucosii_bsp.a(alt_malloc_lock.o)
 .debug_frame   0x00000000000026b0      0x530 ../candy_avb_sss_bsp/\libucosii_bsp.a(os_core.o)
 .debug_frame   0x0000000000002be0       0x34 ../candy_avb_sss_bsp/\libucosii_bsp.a(os_dbg.o)
 .debug_frame   0x0000000000002c14      0x200 ../candy_avb_sss_bsp/\libucosii_bsp.a(os_flag.o)
 .debug_frame   0x0000000000002e14      0x118 ../candy_avb_sss_bsp/\libucosii_bsp.a(os_mem.o)
 .debug_frame   0x0000000000002f2c      0x1bc ../candy_avb_sss_bsp/\libucosii_bsp.a(os_q.o)
 .debug_frame   0x00000000000030e8      0x144 ../candy_avb_sss_bsp/\libucosii_bsp.a(os_sem.o)
 .debug_frame   0x000000000000322c      0x1e4 ../candy_avb_sss_bsp/\libucosii_bsp.a(os_task.o)
 .debug_frame   0x0000000000003410       0xd8 ../candy_avb_sss_bsp/\libucosii_bsp.a(os_time.o)
 .debug_frame   0x00000000000034e8       0x88 ../candy_avb_sss_bsp/\libucosii_bsp.a(alt_sys_init.o)
 .debug_frame   0x0000000000003570       0xb0 ../candy_avb_sss_bsp/\libucosii_bsp.a(altera_avalon_jtag_uart_fd.o)
 .debug_frame   0x0000000000003620       0xac ../candy_avb_sss_bsp/\libucosii_bsp.a(altera_avalon_jtag_uart_init.o)
 .debug_frame   0x00000000000036cc       0x34 ../candy_avb_sss_bsp/\libucosii_bsp.a(altera_avalon_jtag_uart_ioctl.o)
 .debug_frame   0x0000000000003700       0x38 ../candy_avb_sss_bsp/\libucosii_bsp.a(altera_avalon_jtag_uart_read.o)
 .debug_frame   0x0000000000003738       0x38 ../candy_avb_sss_bsp/\libucosii_bsp.a(altera_avalon_jtag_uart_write.o)
 .debug_frame   0x0000000000003770       0x60 ../candy_avb_sss_bsp/\libucosii_bsp.a(altera_avalon_timer_sc.o)
 .debug_frame   0x00000000000037d0       0x88 ../candy_avb_sss_bsp/\libucosii_bsp.a(altera_avalon_uart_fd.o)
 .debug_frame   0x0000000000003858       0xd4 ../candy_avb_sss_bsp/\libucosii_bsp.a(altera_avalon_uart_init.o)
 .debug_frame   0x000000000000392c       0x60 ../candy_avb_sss_bsp/\libucosii_bsp.a(altera_avalon_uart_read.o)
 .debug_frame   0x000000000000398c       0x60 ../candy_avb_sss_bsp/\libucosii_bsp.a(altera_avalon_uart_write.o)
 .debug_frame   0x00000000000039ec      0x240 ../candy_avb_sss_bsp/\libucosii_bsp.a(altera_modular_adc.o)
 .debug_frame   0x0000000000003c2c      0x59c ../candy_avb_sss_bsp/\libucosii_bsp.a(altera_msgdma.o)
 .debug_frame   0x00000000000041c8      0x1a4 ../candy_avb_sss_bsp/\libucosii_bsp.a(altera_onchip_flash.o)
 .debug_frame   0x000000000000436c      0x214 ../candy_avb_sss_bsp/\libucosii_bsp.a(ins_tse_mac.o)
 .debug_frame   0x0000000000004580       0x38 ../candy_avb_sss_bsp/\libucosii_bsp.a(alt_iniche_close.o)
 .debug_frame   0x00000000000045b8       0x38 ../candy_avb_sss_bsp/\libucosii_bsp.a(alt_iniche_dev.o)
 .debug_frame   0x00000000000045f0       0x38 ../candy_avb_sss_bsp/\libucosii_bsp.a(alt_iniche_read.o)
 .debug_frame   0x0000000000004628       0x38 ../candy_avb_sss_bsp/\libucosii_bsp.a(alt_iniche_write.o)
 .debug_frame   0x0000000000004660       0xfc ../candy_avb_sss_bsp/\libucosii_bsp.a(ipnet.o)
 .debug_frame   0x000000000000475c       0xb0 ../candy_avb_sss_bsp/\libucosii_bsp.a(ipstart.o)
 .debug_frame   0x000000000000480c      0x150 ../candy_avb_sss_bsp/\libucosii_bsp.a(igmp_cmn.o)
 .debug_frame   0x000000000000495c      0x19c ../candy_avb_sss_bsp/\libucosii_bsp.a(bsdsock.o)
 .debug_frame   0x0000000000004af8       0x5c ../candy_avb_sss_bsp/\libucosii_bsp.a(cksum.o)
 .debug_frame   0x0000000000004b54      0x1f0 ../candy_avb_sss_bsp/\libucosii_bsp.a(in_utils.o)
 .debug_frame   0x0000000000004d44       0x70 ../candy_avb_sss_bsp/\libucosii_bsp.a(netmain.o)
 .debug_frame   0x0000000000004db4      0x128 ../candy_avb_sss_bsp/\libucosii_bsp.a(tk_crnos.o)
 .debug_frame   0x0000000000004edc      0x32c ../candy_avb_sss_bsp/\libucosii_bsp.a(dhcpclnt.o)
 .debug_frame   0x0000000000005208       0x34 ../candy_avb_sss_bsp/\libucosii_bsp.a(dhcputil.o)
 .debug_frame   0x000000000000523c       0xfc ../candy_avb_sss_bsp/\libucosii_bsp.a(pktalloc.o)
 .debug_frame   0x0000000000005338       0x88 ../candy_avb_sss_bsp/\libucosii_bsp.a(q.o)
 .debug_frame   0x00000000000053c0       0x60 ../candy_avb_sss_bsp/\libucosii_bsp.a(udp_open.o)
 .debug_frame   0x0000000000005420      0x13c ../candy_avb_sss_bsp/\libucosii_bsp.a(brdutils.o)
 .debug_frame   0x000000000000555c       0xd8 ../candy_avb_sss_bsp/\libucosii_bsp.a(osportco.o)
 .debug_frame   0x0000000000005634      0x198 ../candy_avb_sss_bsp/\libucosii_bsp.a(targnios.o)
 .debug_frame   0x00000000000057cc      0x2cc ../candy_avb_sss_bsp/\libucosii_bsp.a(nptcp.o)
 .debug_frame   0x0000000000005a98       0x8c ../candy_avb_sss_bsp/\libucosii_bsp.a(rawsock.o)
 .debug_frame   0x0000000000005b24      0x308 ../candy_avb_sss_bsp/\libucosii_bsp.a(sockcall.o)
 .debug_frame   0x0000000000005e2c      0x290 ../candy_avb_sss_bsp/\libucosii_bsp.a(socket.o)
 .debug_frame   0x00000000000060bc      0x398 ../candy_avb_sss_bsp/\libucosii_bsp.a(socket2.o)
 .debug_frame   0x0000000000006454      0x178 ../candy_avb_sss_bsp/\libucosii_bsp.a(soselect.o)
 .debug_frame   0x00000000000065cc      0x130 ../candy_avb_sss_bsp/\libucosii_bsp.a(tcp_in.o)
 .debug_frame   0x00000000000066fc       0x88 ../candy_avb_sss_bsp/\libucosii_bsp.a(tcp_out.o)
 .debug_frame   0x0000000000006784      0x168 ../candy_avb_sss_bsp/\libucosii_bsp.a(tcp_subr.o)
 .debug_frame   0x00000000000068ec       0x84 ../candy_avb_sss_bsp/\libucosii_bsp.a(tcp_timr.o)
 .debug_frame   0x0000000000006970       0xb0 ../candy_avb_sss_bsp/\libucosii_bsp.a(tcp_usr.o)
 .debug_frame   0x0000000000006a20       0x38 ../candy_avb_sss_bsp/\libucosii_bsp.a(tcpport.o)
 .debug_frame   0x0000000000006a58      0x104 ../candy_avb_sss_bsp/\libucosii_bsp.a(udpsock.o)
 .debug_frame   0x0000000000006b5c       0x34 ../candy_avb_sss_bsp/\libucosii_bsp.a(alt_alarm_start.o)
 .debug_frame   0x0000000000006b90       0x38 ../candy_avb_sss_bsp/\libucosii_bsp.a(alt_busy_sleep.o)
 .debug_frame   0x0000000000006bc8       0x60 ../candy_avb_sss_bsp/\libucosii_bsp.a(alt_close.o)
 .debug_frame   0x0000000000006c28       0x34 ../candy_avb_sss_bsp/\libucosii_bsp.a(alt_dcache_flush.o)
 .debug_frame   0x0000000000006c5c       0x34 ../candy_avb_sss_bsp/\libucosii_bsp.a(alt_dev.o)
 .debug_frame   0x0000000000006c90       0x60 ../candy_avb_sss_bsp/\libucosii_bsp.a(alt_dev_llist_insert.o)
 .debug_frame   0x0000000000006cf0       0x38 ../candy_avb_sss_bsp/\libucosii_bsp.a(alt_do_ctors.o)
 .debug_frame   0x0000000000006d28       0x38 ../candy_avb_sss_bsp/\libucosii_bsp.a(alt_do_dtors.o)
 .debug_frame   0x0000000000006d60       0x38 ../candy_avb_sss_bsp/\libucosii_bsp.a(alt_find_dev.o)
 .debug_frame   0x0000000000006d98       0x60 ../candy_avb_sss_bsp/\libucosii_bsp.a(alt_flash_dev.o)
 .debug_frame   0x0000000000006df8       0xa4 ../candy_avb_sss_bsp/\libucosii_bsp.a(alt_iic.o)
 .debug_frame   0x0000000000006e9c       0x38 ../candy_avb_sss_bsp/\libucosii_bsp.a(alt_iic_isr_register.o)
 .debug_frame   0x0000000000006ed4       0x60 ../candy_avb_sss_bsp/\libucosii_bsp.a(alt_io_redirect.o)
 .debug_frame   0x0000000000006f34       0x38 ../candy_avb_sss_bsp/\libucosii_bsp.a(alt_irq_handler.o)
 .debug_frame   0x0000000000006f6c       0x84 ../candy_avb_sss_bsp/\libucosii_bsp.a(alt_open.o)
 .debug_frame   0x0000000000006ff0       0x38 ../candy_avb_sss_bsp/\libucosii_bsp.a(alt_printf.o)
 .debug_frame   0x0000000000007028       0x38 ../candy_avb_sss_bsp/\libucosii_bsp.a(alt_putchar.o)
 .debug_frame   0x0000000000007060       0x60 ../candy_avb_sss_bsp/\libucosii_bsp.a(alt_read.o)
 .debug_frame   0x00000000000070c0       0x34 ../candy_avb_sss_bsp/\libucosii_bsp.a(alt_release_fd.o)
 .debug_frame   0x00000000000070f4       0x34 ../candy_avb_sss_bsp/\libucosii_bsp.a(alt_remap_cached.o)
 .debug_frame   0x0000000000007128       0x5c ../candy_avb_sss_bsp/\libucosii_bsp.a(alt_tick.o)
 .debug_frame   0x0000000000007184       0x38 ../candy_avb_sss_bsp/\libucosii_bsp.a(alt_uncached_free.o)
 .debug_frame   0x00000000000071bc       0x38 ../candy_avb_sss_bsp/\libucosii_bsp.a(alt_uncached_malloc.o)
 .debug_frame   0x00000000000071f4       0x60 ../candy_avb_sss_bsp/\libucosii_bsp.a(alt_write.o)
 .debug_frame   0x0000000000007254       0x34 ../candy_avb_sss_bsp/\libucosii_bsp.a(altera_nios2_gen2_irq.o)
 .debug_frame   0x0000000000007288      0x180 ../candy_avb_sss_bsp/\libucosii_bsp.a(os_cpu_c.o)
 .debug_frame   0x0000000000007408      0x718 ../candy_avb_sss_bsp/\libucosii_bsp.a(altera_avalon_tse.o)
 .debug_frame   0x0000000000007b20      0x134 ../candy_avb_sss_bsp/\libucosii_bsp.a(allports.o)
 .debug_frame   0x0000000000007c54       0xb0 ../candy_avb_sss_bsp/\libucosii_bsp.a(timeouts.o)
 .debug_frame   0x0000000000007d04       0x5c ../candy_avb_sss_bsp/\libucosii_bsp.a(tk_misc.o)
 .debug_frame   0x0000000000007d60       0x38 ../candy_avb_sss_bsp/\libucosii_bsp.a(alt_iniche_fcntl.o)
 .debug_frame   0x0000000000007d98      0x1f0 ../candy_avb_sss_bsp/\libucosii_bsp.a(et_arp.o)
 .debug_frame   0x0000000000007f88       0xac ../candy_avb_sss_bsp/\libucosii_bsp.a(iface.o)
 .debug_frame   0x0000000000008034      0x1f0 ../candy_avb_sss_bsp/\libucosii_bsp.a(ip.o)
 .debug_frame   0x0000000000008224      0x280 ../candy_avb_sss_bsp/\libucosii_bsp.a(ip_reasm.o)
 .debug_frame   0x00000000000084a4       0x90 ../candy_avb_sss_bsp/\libucosii_bsp.a(ipdemux.o)
 .debug_frame   0x0000000000008534       0x84 ../candy_avb_sss_bsp/\libucosii_bsp.a(ipmc.o)
 .debug_frame   0x00000000000085b8       0x78 ../candy_avb_sss_bsp/\libucosii_bsp.a(ipport.o)
 .debug_frame   0x0000000000008630       0xfc ../candy_avb_sss_bsp/\libucosii_bsp.a(ipraw.o)
 .debug_frame   0x000000000000872c       0x84 ../candy_avb_sss_bsp/\libucosii_bsp.a(iproute.o)
 .debug_frame   0x00000000000087b0      0x11c ../candy_avb_sss_bsp/\libucosii_bsp.a(udp.o)
 .debug_frame   0x00000000000088cc       0x38 ../candy_avb_sss_bsp/\libucosii_bsp.a(igmp.o)
 .debug_frame   0x0000000000008904       0xd4 ../candy_avb_sss_bsp/\libucosii_bsp.a(igmp2.o)
 .debug_frame   0x00000000000089d8       0xb0 ../candy_avb_sss_bsp/\libucosii_bsp.a(ipopt.o)
 .debug_frame   0x0000000000008a88       0x64 ../candy_avb_sss_bsp/\libucosii_bsp.a(u_mctest.o)
 .debug_frame   0x0000000000008aec       0x60 ../candy_avb_sss_bsp/\libucosii_bsp.a(dhcsetup.o)
 .debug_frame   0x0000000000008b4c      0x158 ../candy_avb_sss_bsp/\libucosii_bsp.a(memdev.o)
 .debug_frame   0x0000000000008ca4      0x16c ../candy_avb_sss_bsp/\libucosii_bsp.a(parseip.o)
 .debug_frame   0x0000000000008e10       0x38 ../candy_avb_sss_bsp/\libucosii_bsp.a(tcpcksum.o)
 .debug_frame   0x0000000000008e48      0x14c ../candy_avb_sss_bsp/\libucosii_bsp.a(in_pcb.o)
 .debug_frame   0x0000000000008f94      0x460 ../candy_avb_sss_bsp/\libucosii_bsp.a(vfsfiles.o)
 .debug_frame   0x00000000000093f4       0x34 ../candy_avb_sss_bsp/\libucosii_bsp.a(vfsport.o)
 .debug_frame   0x0000000000009428       0x60 ../candy_avb_sss_bsp/\libucosii_bsp.a(alt_fcntl.o)
 .debug_frame   0x0000000000009488       0x38 ../candy_avb_sss_bsp/\libucosii_bsp.a(alt_find_file.o)
 .debug_frame   0x00000000000094c0       0x38 ../candy_avb_sss_bsp/\libucosii_bsp.a(alt_get_fd.o)
 .debug_frame   0x00000000000094f8       0x5c ../candy_avb_sss_bsp/\libucosii_bsp.a(alt_instruction_exception_entry.o)
 .debug_frame   0x0000000000009554       0xbc ../candy_avb_sss_bsp/\libucosii_bsp.a(icmp.o)
 .debug_frame   0x0000000000009610       0x20 c:/intelfpga_lite/18.1/nios2eds/bin/gnu/h-x86_64-mingw32/bin/../lib/gcc/nios2-elf/5.3.0/../../../../../H-x86_64-mingw32/nios2-elf/lib\libc.a(lib_a-atexit.o)
 .debug_frame   0x0000000000009630       0x30 c:/intelfpga_lite/18.1/nios2eds/bin/gnu/h-x86_64-mingw32/bin/../lib/gcc/nios2-elf/5.3.0/../../../../../H-x86_64-mingw32/nios2-elf/lib\libc.a(lib_a-atoi.o)
 .debug_frame   0x0000000000009660       0x28 c:/intelfpga_lite/18.1/nios2eds/bin/gnu/h-x86_64-mingw32/bin/../lib/gcc/nios2-elf/5.3.0/../../../../../H-x86_64-mingw32/nios2-elf/lib\libc.a(lib_a-exit.o)
 .debug_frame   0x0000000000009688       0x6c c:/intelfpga_lite/18.1/nios2eds/bin/gnu/h-x86_64-mingw32/bin/../lib/gcc/nios2-elf/5.3.0/../../../../../H-x86_64-mingw32/nios2-elf/lib\libc.a(lib_a-getc.o)
 .debug_frame   0x00000000000096f4       0x20 c:/intelfpga_lite/18.1/nios2eds/bin/gnu/h-x86_64-mingw32/bin/../lib/gcc/nios2-elf/5.3.0/../../../../../H-x86_64-mingw32/nios2-elf/lib\libc.a(lib_a-malign.o)
 .debug_frame   0x0000000000009714       0x5c c:/intelfpga_lite/18.1/nios2eds/bin/gnu/h-x86_64-mingw32/bin/../lib/gcc/nios2-elf/5.3.0/../../../../../H-x86_64-mingw32/nios2-elf/lib\libc.a(lib_a-malignr.o)
 .debug_frame   0x0000000000009770       0x20 c:/intelfpga_lite/18.1/nios2eds/bin/gnu/h-x86_64-mingw32/bin/../lib/gcc/nios2-elf/5.3.0/../../../../../H-x86_64-mingw32/nios2-elf/lib\libc.a(lib_a-memcmp.o)
 .debug_frame   0x0000000000009790       0x30 c:/intelfpga_lite/18.1/nios2eds/bin/gnu/h-x86_64-mingw32/bin/../lib/gcc/nios2-elf/5.3.0/../../../../../H-x86_64-mingw32/nios2-elf/lib\libc.a(lib_a-putchar.o)
 .debug_frame   0x00000000000097c0       0x48 c:/intelfpga_lite/18.1/nios2eds/bin/gnu/h-x86_64-mingw32/bin/../lib/gcc/nios2-elf/5.3.0/../../../../../H-x86_64-mingw32/nios2-elf/lib\libc.a(lib_a-rget.o)
 .debug_frame   0x0000000000009808       0x20 c:/intelfpga_lite/18.1/nios2eds/bin/gnu/h-x86_64-mingw32/bin/../lib/gcc/nios2-elf/5.3.0/../../../../../H-x86_64-mingw32/nios2-elf/lib\libc.a(lib_a-strcpy.o)
 .debug_frame   0x0000000000009828       0x20 c:/intelfpga_lite/18.1/nios2eds/bin/gnu/h-x86_64-mingw32/bin/../lib/gcc/nios2-elf/5.3.0/../../../../../H-x86_64-mingw32/nios2-elf/lib\libc.a(lib_a-strncmp.o)
 .debug_frame   0x0000000000009848       0x20 c:/intelfpga_lite/18.1/nios2eds/bin/gnu/h-x86_64-mingw32/bin/../lib/gcc/nios2-elf/5.3.0/../../../../../H-x86_64-mingw32/nios2-elf/lib\libc.a(lib_a-strncpy.o)
 .debug_frame   0x0000000000009868       0x68 c:/intelfpga_lite/18.1/nios2eds/bin/gnu/h-x86_64-mingw32/bin/../lib/gcc/nios2-elf/5.3.0/../../../../../H-x86_64-mingw32/nios2-elf/lib\libc.a(lib_a-strtol.o)
 .debug_frame   0x00000000000098d0       0x30 c:/intelfpga_lite/18.1/nios2eds/bin/gnu/h-x86_64-mingw32/bin/../lib/gcc/nios2-elf/5.3.0/../../../../../H-x86_64-mingw32/nios2-elf/lib\libc.a(lib_a-vprintf.o)
 .debug_frame   0x0000000000009900       0x3c c:/intelfpga_lite/18.1/nios2eds/bin/gnu/h-x86_64-mingw32/bin/../lib/gcc/nios2-elf/5.3.0/../../../../../H-x86_64-mingw32/nios2-elf/lib\libc.a(lib_a-vsprintf.o)
 .debug_frame   0x000000000000993c       0x38 c:/intelfpga_lite/18.1/nios2eds/bin/gnu/h-x86_64-mingw32/bin/../lib/gcc/nios2-elf/5.3.0/../../../../../H-x86_64-mingw32/nios2-elf/lib\libc.a(lib_a-__atexit.o)
 .debug_frame   0x0000000000009974       0x54 c:/intelfpga_lite/18.1/nios2eds/bin/gnu/h-x86_64-mingw32/bin/../lib/gcc/nios2-elf/5.3.0/../../../../../H-x86_64-mingw32/nios2-elf/lib\libc.a(lib_a-__call_atexit.o)
 .debug_frame   0x00000000000099c8       0x4c c:/intelfpga_lite/18.1/nios2eds/bin/gnu/h-x86_64-mingw32/bin/../lib/gcc/nios2-elf/5.3.0/../../../../../H-x86_64-mingw32/nios2-elf/lib\libc.a(lib_a-refill.o)
 .debug_frame   0x0000000000009a14       0x2c c:/intelfpga_lite/18.1/nios2eds/bin/gnu/h-x86_64-mingw32/bin/../lib/gcc/nios2-elf/5.3.0/../../../../../H-x86_64-mingw32/nios2-elf/lib\libc.a(lib_a-vfprintfr_1.o)
 .debug_frame   0x0000000000009a40       0x2c ../candy_avb_sss_bsp/\libucosii_bsp.a(alt_exit.o)

.debug_str      0x0000000000000000     0xdbd1
 *(.debug_str)
 .debug_str     0x0000000000000000      0x280 obj/default/SigmaStudioFW.o
                                        0x2de (size before relaxing)
 .debug_str     0x0000000000000280      0x414 obj/default/alt_error_handler.o
                                        0x5e1 (size before relaxing)
 .debug_str     0x0000000000000694      0xadf obj/default/iniche_init.o
                                        0xc9d (size before relaxing)
 .debug_str     0x0000000000001173      0x3d1 obj/default/network_utilities.o
                                        0x58a (size before relaxing)
 .debug_str     0x0000000000001544      0x5de obj/default/osc.o
                                        0x790 (size before relaxing)
 .debug_str     0x0000000000001b22      0x1e0 obj/default/osc_server.o
                                        0x389 (size before relaxing)
 .debug_str     0x0000000000001d02       0xb1 obj/default/sigmadsp.o
                                        0x39e (size before relaxing)
 .debug_str     0x0000000000001db3      0x6fc obj/default/tse_my_system.o
                                        0x942 (size before relaxing)
 .debug_str     0x00000000000024af      0x156 c:/intelfpga_lite/18.1/nios2eds/bin/gnu/h-x86_64-mingw32/bin/../lib/gcc/nios2-elf/5.3.0\libgcc.a(_floatdisf.o)
                                        0x1e6 (size before relaxing)
 .debug_str     0x0000000000002605       0xea c:/intelfpga_lite/18.1/nios2eds/bin/gnu/h-x86_64-mingw32/bin/../lib/gcc/nios2-elf/5.3.0\libgcc.a(addsf3.o)
                                        0x269 (size before relaxing)
 .debug_str     0x00000000000026ef       0xce c:/intelfpga_lite/18.1/nios2eds/bin/gnu/h-x86_64-mingw32/bin/../lib/gcc/nios2-elf/5.3.0\libgcc.a(mulsf3.o)
                                        0x286 (size before relaxing)
 .debug_str     0x00000000000027bd       0x4b c:/intelfpga_lite/18.1/nios2eds/bin/gnu/h-x86_64-mingw32/bin/../lib/gcc/nios2-elf/5.3.0\libgcc.a(fixsfsi.o)
                                        0x1ff (size before relaxing)
 .debug_str     0x0000000000002808       0x69 c:/intelfpga_lite/18.1/nios2eds/bin/gnu/h-x86_64-mingw32/bin/../lib/gcc/nios2-elf/5.3.0\libgcc.a(floatsisf.o)
                                        0x234 (size before relaxing)
 .debug_str     0x0000000000002871       0x94 c:/intelfpga_lite/18.1/nios2eds/bin/gnu/h-x86_64-mingw32/bin/../lib/gcc/nios2-elf/5.3.0\libgcc.a(adddf3.o)
                                        0x28f (size before relaxing)
 .debug_str     0x0000000000002905      0x103 c:/intelfpga_lite/18.1/nios2eds/bin/gnu/h-x86_64-mingw32/bin/../lib/gcc/nios2-elf/5.3.0\libgcc.a(divdf3.o)
                                        0x347 (size before relaxing)
 .debug_str     0x0000000000002a08      0x15b c:/intelfpga_lite/18.1/nios2eds/bin/gnu/h-x86_64-mingw32/bin/../lib/gcc/nios2-elf/5.3.0\libgcc.a(muldf3.o)
                                        0x3a8 (size before relaxing)
 .debug_str     0x0000000000002b63       0x3c c:/intelfpga_lite/18.1/nios2eds/bin/gnu/h-x86_64-mingw32/bin/../lib/gcc/nios2-elf/5.3.0\libgcc.a(floatsidf.o)
                                        0x228 (size before relaxing)
 .debug_str     0x0000000000002b9f       0x40 c:/intelfpga_lite/18.1/nios2eds/bin/gnu/h-x86_64-mingw32/bin/../lib/gcc/nios2-elf/5.3.0\libgcc.a(floatunsidf.o)
                                        0x225 (size before relaxing)
 .debug_str     0x0000000000002bdf       0x4d c:/intelfpga_lite/18.1/nios2eds/bin/gnu/h-x86_64-mingw32/bin/../lib/gcc/nios2-elf/5.3.0\libgcc.a(extendsfdf2.o)
                                        0x235 (size before relaxing)
 .debug_str     0x0000000000002c2c       0x3e c:/intelfpga_lite/18.1/nios2eds/bin/gnu/h-x86_64-mingw32/bin/../lib/gcc/nios2-elf/5.3.0\libgcc.a(truncdfsf2.o)
                                        0x23f (size before relaxing)
 .debug_str     0x0000000000002c6a       0x20 c:/intelfpga_lite/18.1/nios2eds/bin/gnu/h-x86_64-mingw32/bin/../lib/gcc/nios2-elf/5.3.0\libgcc.a(_clzsi2.o)
                                        0x1e6 (size before relaxing)
 .debug_str     0x0000000000002c8a       0x7c c:/intelfpga_lite/18.1/nios2eds/bin/gnu/h-x86_64-mingw32/bin/../lib/gcc/nios2-elf/5.3.0\libgcc.a(lib2-divmod.o)
                                        0x1b8 (size before relaxing)
 .debug_str     0x0000000000002d06      0x1c9 c:/intelfpga_lite/18.1/nios2eds/bin/gnu/h-x86_64-mingw32/bin/../lib/gcc/nios2-elf/5.3.0\libgcc.a(_clz.o)
 .debug_str     0x0000000000002d06      0x12f c:/intelfpga_lite/18.1/nios2eds/bin/gnu/h-x86_64-mingw32/bin/../lib/gcc/nios2-elf/5.3.0/../../../../../H-x86_64-mingw32/nios2-elf/lib\libc.a(lib_a-calloc.o)
                                        0x59b (size before relaxing)
 .debug_str     0x0000000000002e35       0x86 c:/intelfpga_lite/18.1/nios2eds/bin/gnu/h-x86_64-mingw32/bin/../lib/gcc/nios2-elf/5.3.0/../../../../../H-x86_64-mingw32/nios2-elf/lib\libc.a(lib_a-callocr.o)
                                        0x5d4 (size before relaxing)
 .debug_str     0x0000000000002ebb       0xe4 c:/intelfpga_lite/18.1/nios2eds/bin/gnu/h-x86_64-mingw32/bin/../lib/gcc/nios2-elf/5.3.0/../../../../../H-x86_64-mingw32/nios2-elf/lib\libc.a(lib_a-fprintf.o)
                                        0x5c6 (size before relaxing)
 .debug_str     0x0000000000002f9f       0xa4 c:/intelfpga_lite/18.1/nios2eds/bin/gnu/h-x86_64-mingw32/bin/../lib/gcc/nios2-elf/5.3.0/../../../../../H-x86_64-mingw32/nios2-elf/lib\libc.a(lib_a-fwrite.o)
                                        0x605 (size before relaxing)
 .debug_str     0x0000000000003043       0xdb c:/intelfpga_lite/18.1/nios2eds/bin/gnu/h-x86_64-mingw32/bin/../lib/gcc/nios2-elf/5.3.0/../../../../../H-x86_64-mingw32/nios2-elf/lib\libc.a(lib_a-impure.o)
                                        0x59b (size before relaxing)
 .debug_str     0x000000000000311e       0x4e c:/intelfpga_lite/18.1/nios2eds/bin/gnu/h-x86_64-mingw32/bin/../lib/gcc/nios2-elf/5.3.0/../../../../../H-x86_64-mingw32/nios2-elf/lib\libc.a(lib_a-malloc.o)
                                        0x5af (size before relaxing)
 .debug_str     0x000000000000316c      0x1b7 c:/intelfpga_lite/18.1/nios2eds/bin/gnu/h-x86_64-mingw32/bin/../lib/gcc/nios2-elf/5.3.0/../../../../../H-x86_64-mingw32/nios2-elf/lib\libc.a(lib_a-mallocr.o)
                                        0x7a0 (size before relaxing)
 .debug_str     0x0000000000003323       0xec c:/intelfpga_lite/18.1/nios2eds/bin/gnu/h-x86_64-mingw32/bin/../lib/gcc/nios2-elf/5.3.0/../../../../../H-x86_64-mingw32/nios2-elf/lib\libc.a(lib_a-memcpy.o)
                                        0x1f1 (size before relaxing)
 .debug_str     0x000000000000340f       0x47 c:/intelfpga_lite/18.1/nios2eds/bin/gnu/h-x86_64-mingw32/bin/../lib/gcc/nios2-elf/5.3.0/../../../../../H-x86_64-mingw32/nios2-elf/lib\libc.a(lib_a-memset.o)
                                        0x1de (size before relaxing)
 .debug_str     0x0000000000003456       0x68 c:/intelfpga_lite/18.1/nios2eds/bin/gnu/h-x86_64-mingw32/bin/../lib/gcc/nios2-elf/5.3.0/../../../../../H-x86_64-mingw32/nios2-elf/lib\libc.a(lib_a-perror.o)
                                        0x5b1 (size before relaxing)
 .debug_str     0x00000000000034be       0x5a c:/intelfpga_lite/18.1/nios2eds/bin/gnu/h-x86_64-mingw32/bin/../lib/gcc/nios2-elf/5.3.0/../../../../../H-x86_64-mingw32/nios2-elf/lib\libc.a(lib_a-printf.o)
                                        0x5e1 (size before relaxing)
 .debug_str     0x0000000000003518       0x46 c:/intelfpga_lite/18.1/nios2eds/bin/gnu/h-x86_64-mingw32/bin/../lib/gcc/nios2-elf/5.3.0/../../../../../H-x86_64-mingw32/nios2-elf/lib\libc.a(lib_a-puts.o)
                                        0x602 (size before relaxing)
 .debug_str     0x000000000000355e       0x4c c:/intelfpga_lite/18.1/nios2eds/bin/gnu/h-x86_64-mingw32/bin/../lib/gcc/nios2-elf/5.3.0/../../../../../H-x86_64-mingw32/nios2-elf/lib\libc.a(lib_a-sbrkr.o)
                                        0x591 (size before relaxing)
 .debug_str     0x00000000000035aa       0x5d c:/intelfpga_lite/18.1/nios2eds/bin/gnu/h-x86_64-mingw32/bin/../lib/gcc/nios2-elf/5.3.0/../../../../../H-x86_64-mingw32/nios2-elf/lib\libc.a(lib_a-sprintf.o)
                                        0x5d6 (size before relaxing)
 .debug_str     0x0000000000003607       0x41 c:/intelfpga_lite/18.1/nios2eds/bin/gnu/h-x86_64-mingw32/bin/../lib/gcc/nios2-elf/5.3.0/../../../../../H-x86_64-mingw32/nios2-elf/lib\libc.a(lib_a-strchr.o)
                                        0x1d5 (size before relaxing)
 .debug_str     0x0000000000003648       0x41 c:/intelfpga_lite/18.1/nios2eds/bin/gnu/h-x86_64-mingw32/bin/../lib/gcc/nios2-elf/5.3.0/../../../../../H-x86_64-mingw32/nios2-elf/lib\libc.a(lib_a-strcmp.o)
                                        0x1c3 (size before relaxing)
 .debug_str     0x0000000000003689       0x59 c:/intelfpga_lite/18.1/nios2eds/bin/gnu/h-x86_64-mingw32/bin/../lib/gcc/nios2-elf/5.3.0/../../../../../H-x86_64-mingw32/nios2-elf/lib\libc.a(lib_a-strerror.o)
                                        0x5c1 (size before relaxing)
 .debug_str     0x00000000000036e2       0x3a c:/intelfpga_lite/18.1/nios2eds/bin/gnu/h-x86_64-mingw32/bin/../lib/gcc/nios2-elf/5.3.0/../../../../../H-x86_64-mingw32/nios2-elf/lib\libc.a(lib_a-strlen.o)
                                        0x1dd (size before relaxing)
 .debug_str     0x000000000000371c      0x1d0 c:/intelfpga_lite/18.1/nios2eds/bin/gnu/h-x86_64-mingw32/bin/../lib/gcc/nios2-elf/5.3.0/../../../../../H-x86_64-mingw32/nios2-elf/lib\libc.a(lib_a-svfprintf.o)
                                        0x7c5 (size before relaxing)
 .debug_str     0x00000000000038ec       0x3c c:/intelfpga_lite/18.1/nios2eds/bin/gnu/h-x86_64-mingw32/bin/../lib/gcc/nios2-elf/5.3.0/../../../../../H-x86_64-mingw32/nios2-elf/lib\libc.a(lib_a-u_strerr.o)
                                        0x14b (size before relaxing)
 .debug_str     0x0000000000003928       0x31 c:/intelfpga_lite/18.1/nios2eds/bin/gnu/h-x86_64-mingw32/bin/../lib/gcc/nios2-elf/5.3.0/../../../../../H-x86_64-mingw32/nios2-elf/lib\libc.a(lib_a-vfprintf.o)
                                        0x823 (size before relaxing)
 .debug_str     0x0000000000003959       0x46 c:/intelfpga_lite/18.1/nios2eds/bin/gnu/h-x86_64-mingw32/bin/../lib/gcc/nios2-elf/5.3.0/../../../../../H-x86_64-mingw32/nios2-elf/lib\libc.a(lib_a-wsetup.o)
                                        0x5ba (size before relaxing)
 .debug_str     0x000000000000399f      0x156 c:/intelfpga_lite/18.1/nios2eds/bin/gnu/h-x86_64-mingw32/bin/../lib/gcc/nios2-elf/5.3.0/../../../../../H-x86_64-mingw32/nios2-elf/lib\libc.a(lib_a-dtoa.o)
                                        0x6da (size before relaxing)
 .debug_str     0x0000000000003af5       0x62 c:/intelfpga_lite/18.1/nios2eds/bin/gnu/h-x86_64-mingw32/bin/../lib/gcc/nios2-elf/5.3.0/../../../../../H-x86_64-mingw32/nios2-elf/lib\libc.a(lib_a-fflush.o)
                                        0x5fb (size before relaxing)
 .debug_str     0x0000000000003b57      0x10c c:/intelfpga_lite/18.1/nios2eds/bin/gnu/h-x86_64-mingw32/bin/../lib/gcc/nios2-elf/5.3.0/../../../../../H-x86_64-mingw32/nios2-elf/lib\libc.a(lib_a-findfp.o)
                                        0x6b1 (size before relaxing)
 .debug_str     0x0000000000003c63       0x49 c:/intelfpga_lite/18.1/nios2eds/bin/gnu/h-x86_64-mingw32/bin/../lib/gcc/nios2-elf/5.3.0/../../../../../H-x86_64-mingw32/nios2-elf/lib\libc.a(lib_a-fputc.o)
                                        0x5c1 (size before relaxing)
 .debug_str     0x0000000000003cac       0x41 c:/intelfpga_lite/18.1/nios2eds/bin/gnu/h-x86_64-mingw32/bin/../lib/gcc/nios2-elf/5.3.0/../../../../../H-x86_64-mingw32/nios2-elf/lib\libc.a(lib_a-fputs.o)
                                        0x605 (size before relaxing)
 .debug_str     0x0000000000003ced       0x34 c:/intelfpga_lite/18.1/nios2eds/bin/gnu/h-x86_64-mingw32/bin/../lib/gcc/nios2-elf/5.3.0/../../../../../H-x86_64-mingw32/nios2-elf/lib\libc.a(lib_a-freer.o)
                                        0x6ea (size before relaxing)
 .debug_str     0x0000000000003d21       0x6b c:/intelfpga_lite/18.1/nios2eds/bin/gnu/h-x86_64-mingw32/bin/../lib/gcc/nios2-elf/5.3.0/../../../../../H-x86_64-mingw32/nios2-elf/lib\libc.a(lib_a-fvwrite.o)
                                        0x62d (size before relaxing)
 .debug_str     0x0000000000003d8c       0x47 c:/intelfpga_lite/18.1/nios2eds/bin/gnu/h-x86_64-mingw32/bin/../lib/gcc/nios2-elf/5.3.0/../../../../../H-x86_64-mingw32/nios2-elf/lib\libc.a(lib_a-fwalk.o)
                                        0x5a0 (size before relaxing)
 .debug_str     0x0000000000003dd3       0x3c c:/intelfpga_lite/18.1/nios2eds/bin/gnu/h-x86_64-mingw32/bin/../lib/gcc/nios2-elf/5.3.0/../../../../../H-x86_64-mingw32/nios2-elf/lib\libc.a(lib_a-int_errno.o)
                                        0x1c3 (size before relaxing)
 .debug_str     0x0000000000003e0f      0x28b c:/intelfpga_lite/18.1/nios2eds/bin/gnu/h-x86_64-mingw32/bin/../lib/gcc/nios2-elf/5.3.0/../../../../../H-x86_64-mingw32/nios2-elf/lib\libc.a(lib_a-locale.o)
                                        0x7f8 (size before relaxing)
 .debug_str     0x000000000000409a      0x119 c:/intelfpga_lite/18.1/nios2eds/bin/gnu/h-x86_64-mingw32/bin/../lib/gcc/nios2-elf/5.3.0/../../../../../H-x86_64-mingw32/nios2-elf/lib\libc.a(lib_a-makebuf.o)
                                        0x69d (size before relaxing)
 .debug_str     0x00000000000041b3       0x48 c:/intelfpga_lite/18.1/nios2eds/bin/gnu/h-x86_64-mingw32/bin/../lib/gcc/nios2-elf/5.3.0/../../../../../H-x86_64-mingw32/nios2-elf/lib\libc.a(lib_a-memchr.o)
                                        0x1e4 (size before relaxing)
 .debug_str     0x00000000000041fb       0x44 c:/intelfpga_lite/18.1/nios2eds/bin/gnu/h-x86_64-mingw32/bin/../lib/gcc/nios2-elf/5.3.0/../../../../../H-x86_64-mingw32/nios2-elf/lib\libc.a(lib_a-memmove.o)
                                        0x1fd (size before relaxing)
 .debug_str     0x000000000000423f       0x9a c:/intelfpga_lite/18.1/nios2eds/bin/gnu/h-x86_64-mingw32/bin/../lib/gcc/nios2-elf/5.3.0/../../../../../H-x86_64-mingw32/nios2-elf/lib\libc.a(lib_a-mprec.o)
                                        0x694 (size before relaxing)
 .debug_str     0x00000000000042d9       0x41 c:/intelfpga_lite/18.1/nios2eds/bin/gnu/h-x86_64-mingw32/bin/../lib/gcc/nios2-elf/5.3.0/../../../../../H-x86_64-mingw32/nios2-elf/lib\libc.a(lib_a-putc.o)
                                        0x5bb (size before relaxing)
 .debug_str     0x000000000000431a       0x49 c:/intelfpga_lite/18.1/nios2eds/bin/gnu/h-x86_64-mingw32/bin/../lib/gcc/nios2-elf/5.3.0/../../../../../H-x86_64-mingw32/nios2-elf/lib\libc.a(lib_a-reallocr.o)
                                        0x67c (size before relaxing)
 .debug_str     0x0000000000004363       0xc4 c:/intelfpga_lite/18.1/nios2eds/bin/gnu/h-x86_64-mingw32/bin/../lib/gcc/nios2-elf/5.3.0/../../../../../H-x86_64-mingw32/nios2-elf/lib\libc.a(lib_a-s_fpclassify.o)
                                        0x1e8 (size before relaxing)
 .debug_str     0x0000000000004427       0x98 c:/intelfpga_lite/18.1/nios2eds/bin/gnu/h-x86_64-mingw32/bin/../lib/gcc/nios2-elf/5.3.0/../../../../../H-x86_64-mingw32/nios2-elf/lib\libc.a(lib_a-stdio.o)
                                        0x5ef (size before relaxing)
 .debug_str     0x00000000000044bf       0x19 c:/intelfpga_lite/18.1/nios2eds/bin/gnu/h-x86_64-mingw32/bin/../lib/gcc/nios2-elf/5.3.0/../../../../../H-x86_64-mingw32/nios2-elf/lib\libc.a(lib_a-svfiprintf.o)
                                        0x72a (size before relaxing)
 .debug_str     0x00000000000044d8       0x3f c:/intelfpga_lite/18.1/nios2eds/bin/gnu/h-x86_64-mingw32/bin/../lib/gcc/nios2-elf/5.3.0/../../../../../H-x86_64-mingw32/nios2-elf/lib\libc.a(lib_a-vfiprintf.o)
                                        0x777 (size before relaxing)
 .debug_str     0x0000000000004517       0x3f c:/intelfpga_lite/18.1/nios2eds/bin/gnu/h-x86_64-mingw32/bin/../lib/gcc/nios2-elf/5.3.0/../../../../../H-x86_64-mingw32/nios2-elf/lib\libc.a(lib_a-wbuf.o)
                                        0x5bf (size before relaxing)
 .debug_str     0x0000000000004556       0x39 c:/intelfpga_lite/18.1/nios2eds/bin/gnu/h-x86_64-mingw32/bin/../lib/gcc/nios2-elf/5.3.0/../../../../../H-x86_64-mingw32/nios2-elf/lib\libc.a(lib_a-writer.o)
                                        0x595 (size before relaxing)
 .debug_str     0x000000000000458f       0x39 c:/intelfpga_lite/18.1/nios2eds/bin/gnu/h-x86_64-mingw32/bin/../lib/gcc/nios2-elf/5.3.0/../../../../../H-x86_64-mingw32/nios2-elf/lib\libc.a(closer.o)
                                        0x585 (size before relaxing)
 .debug_str     0x00000000000045c8       0x43 c:/intelfpga_lite/18.1/nios2eds/bin/gnu/h-x86_64-mingw32/bin/../lib/gcc/nios2-elf/5.3.0/../../../../../H-x86_64-mingw32/nios2-elf/lib\libc.a(lib_a-fclose.o)
                                        0x5e8 (size before relaxing)
 .debug_str     0x000000000000460b       0x4d c:/intelfpga_lite/18.1/nios2eds/bin/gnu/h-x86_64-mingw32/bin/../lib/gcc/nios2-elf/5.3.0/../../../../../H-x86_64-mingw32/nios2-elf/lib\libc.a(lib_a-fputwc.o)
                                        0x5ec (size before relaxing)
 .debug_str     0x0000000000004658       0x3f c:/intelfpga_lite/18.1/nios2eds/bin/gnu/h-x86_64-mingw32/bin/../lib/gcc/nios2-elf/5.3.0/../../../../../H-x86_64-mingw32/nios2-elf/lib\libc.a(lib_a-fstatr.o)
                                        0x671 (size before relaxing)
 .debug_str     0x0000000000004697       0x41 c:/intelfpga_lite/18.1/nios2eds/bin/gnu/h-x86_64-mingw32/bin/../lib/gcc/nios2-elf/5.3.0/../../../../../H-x86_64-mingw32/nios2-elf/lib\libc.a(lib_a-isattyr.o)
                                        0x588 (size before relaxing)
 .debug_str     0x00000000000046d8       0x3f c:/intelfpga_lite/18.1/nios2eds/bin/gnu/h-x86_64-mingw32/bin/../lib/gcc/nios2-elf/5.3.0/../../../../../H-x86_64-mingw32/nios2-elf/lib\libc.a(lib_a-lseekr.o)
                                        0x58c (size before relaxing)
 .debug_str     0x0000000000004717       0x38 c:/intelfpga_lite/18.1/nios2eds/bin/gnu/h-x86_64-mingw32/bin/../lib/gcc/nios2-elf/5.3.0/../../../../../H-x86_64-mingw32/nios2-elf/lib\libc.a(lib_a-readr.o)
                                        0x592 (size before relaxing)
 .debug_str     0x000000000000474f       0x53 c:/intelfpga_lite/18.1/nios2eds/bin/gnu/h-x86_64-mingw32/bin/../lib/gcc/nios2-elf/5.3.0/../../../../../H-x86_64-mingw32/nios2-elf/lib\libc.a(lib_a-wcrtomb.o)
                                        0x5d2 (size before relaxing)
 .debug_str     0x00000000000047a2       0x5c c:/intelfpga_lite/18.1/nios2eds/bin/gnu/h-x86_64-mingw32/bin/../lib/gcc/nios2-elf/5.3.0/../../../../../H-x86_64-mingw32/nios2-elf/lib\libc.a(lib_a-wctomb_r.o)
                                        0x5db (size before relaxing)
 .debug_str     0x00000000000047fe       0xbf c:/intelfpga_lite/18.1/nios2eds/bin/gnu/h-x86_64-mingw32/bin/../lib/gcc/nios2-elf/5.3.0\libgcc.a(_udivdi3.o)
                                        0x282 (size before relaxing)
 .debug_str     0x00000000000048bd        0xa c:/intelfpga_lite/18.1/nios2eds/bin/gnu/h-x86_64-mingw32/bin/../lib/gcc/nios2-elf/5.3.0\libgcc.a(_umoddi3.o)
                                        0x282 (size before relaxing)
 .debug_str     0x00000000000048c7       0x34 c:/intelfpga_lite/18.1/nios2eds/bin/gnu/h-x86_64-mingw32/bin/../lib/gcc/nios2-elf/5.3.0\libgcc.a(eqdf2.o)
                                        0x1f5 (size before relaxing)
 .debug_str     0x00000000000048fb       0x58 c:/intelfpga_lite/18.1/nios2eds/bin/gnu/h-x86_64-mingw32/bin/../lib/gcc/nios2-elf/5.3.0\libgcc.a(gedf2.o)
                                        0x219 (size before relaxing)
 .debug_str     0x0000000000004953       0x34 c:/intelfpga_lite/18.1/nios2eds/bin/gnu/h-x86_64-mingw32/bin/../lib/gcc/nios2-elf/5.3.0\libgcc.a(ledf2.o)
                                        0x219 (size before relaxing)
 .debug_str     0x0000000000004987       0x36 c:/intelfpga_lite/18.1/nios2eds/bin/gnu/h-x86_64-mingw32/bin/../lib/gcc/nios2-elf/5.3.0\libgcc.a(subdf3.o)
                                        0x28f (size before relaxing)
 .debug_str     0x00000000000049bd       0x38 c:/intelfpga_lite/18.1/nios2eds/bin/gnu/h-x86_64-mingw32/bin/../lib/gcc/nios2-elf/5.3.0\libgcc.a(fixdfsi.o)
                                        0x211 (size before relaxing)
 .debug_str     0x00000000000049f5       0xbe ../candy_avb_sss_bsp/\libucosii_bsp.a(alt_fstat.o)
                                        0x335 (size before relaxing)
 .debug_str     0x0000000000004ab3       0x15 ../candy_avb_sss_bsp/\libucosii_bsp.a(alt_isatty.o)
                                        0x33d (size before relaxing)
 .debug_str     0x0000000000004ac8       0x14 ../candy_avb_sss_bsp/\libucosii_bsp.a(alt_lseek.o)
                                        0x25a (size before relaxing)
 .debug_str     0x0000000000004adc       0x6e ../candy_avb_sss_bsp/\libucosii_bsp.a(alt_main.o)
                                        0x279 (size before relaxing)
 .debug_str     0x0000000000004b4a       0x98 ../candy_avb_sss_bsp/\libucosii_bsp.a(alt_sbrk.o)
                                        0x1ed (size before relaxing)
 .debug_str     0x0000000000004be2       0x31 ../candy_avb_sss_bsp/\libucosii_bsp.a(alt_usleep.o)
                                        0x1cf (size before relaxing)
 .debug_str     0x0000000000004c13      0x236 ../candy_avb_sss_bsp/\libucosii_bsp.a(alt_env_lock.o)
                                        0x7e1 (size before relaxing)
 .debug_str     0x0000000000004e49       0x24 ../candy_avb_sss_bsp/\libucosii_bsp.a(alt_malloc_lock.o)
                                        0x843 (size before relaxing)
 .debug_str     0x0000000000004e6d      0x4ed ../candy_avb_sss_bsp/\libucosii_bsp.a(os_core.o)
                                        0x96f (size before relaxing)
 .debug_str     0x000000000000535a      0x2e5 ../candy_avb_sss_bsp/\libucosii_bsp.a(os_dbg.o)
                                        0x8de (size before relaxing)
 .debug_str     0x000000000000563f      0x136 ../candy_avb_sss_bsp/\libucosii_bsp.a(os_flag.o)
                                        0x60b (size before relaxing)
 .debug_str     0x0000000000005775       0xcf ../candy_avb_sss_bsp/\libucosii_bsp.a(os_mem.o)
                                        0x314 (size before relaxing)
 .debug_str     0x0000000000005844       0xc0 ../candy_avb_sss_bsp/\libucosii_bsp.a(os_q.o)
                                        0x58e (size before relaxing)
 .debug_str     0x0000000000005904       0x77 ../candy_avb_sss_bsp/\libucosii_bsp.a(os_sem.o)
                                        0x517 (size before relaxing)
 .debug_str     0x000000000000597b       0xfa ../candy_avb_sss_bsp/\libucosii_bsp.a(os_task.o)
                                        0x61a (size before relaxing)
 .debug_str     0x0000000000005a75       0x5d ../candy_avb_sss_bsp/\libucosii_bsp.a(os_time.o)
                                        0x4ba (size before relaxing)
 .debug_str     0x0000000000005ad2      0x6f8 ../candy_avb_sss_bsp/\libucosii_bsp.a(alt_sys_init.o)
                                        0xe5d (size before relaxing)
 .debug_str     0x00000000000061ca       0xac ../candy_avb_sss_bsp/\libucosii_bsp.a(altera_avalon_jtag_uart_fd.o)
                                        0x4ad (size before relaxing)
 .debug_str     0x0000000000006276       0xd9 ../candy_avb_sss_bsp/\libucosii_bsp.a(altera_avalon_jtag_uart_init.o)
                                        0x474 (size before relaxing)
 .debug_str     0x000000000000634f       0x4a ../candy_avb_sss_bsp/\libucosii_bsp.a(altera_avalon_jtag_uart_ioctl.o)
                                        0x39c (size before relaxing)
 .debug_str     0x0000000000006399       0x63 ../candy_avb_sss_bsp/\libucosii_bsp.a(altera_avalon_jtag_uart_read.o)
                                        0x40f (size before relaxing)
 .debug_str     0x00000000000063fc       0x4a ../candy_avb_sss_bsp/\libucosii_bsp.a(altera_avalon_jtag_uart_write.o)
                                        0x410 (size before relaxing)
 .debug_str     0x0000000000006446       0x66 ../candy_avb_sss_bsp/\libucosii_bsp.a(altera_avalon_timer_sc.o)
                                        0x264 (size before relaxing)
 .debug_str     0x00000000000064ac       0x77 ../candy_avb_sss_bsp/\libucosii_bsp.a(altera_avalon_uart_fd.o)
                                        0x419 (size before relaxing)
 .debug_str     0x0000000000006523       0xa0 ../candy_avb_sss_bsp/\libucosii_bsp.a(altera_avalon_uart_init.o)
                                        0x40e (size before relaxing)
 .debug_str     0x00000000000065c3       0x4f ../candy_avb_sss_bsp/\libucosii_bsp.a(altera_avalon_uart_read.o)
                                        0x3e2 (size before relaxing)
 .debug_str     0x0000000000006612       0x49 ../candy_avb_sss_bsp/\libucosii_bsp.a(altera_avalon_uart_write.o)
                                        0x3d6 (size before relaxing)
 .debug_str     0x000000000000665b      0x1ae ../candy_avb_sss_bsp/\libucosii_bsp.a(altera_modular_adc.o)
                                        0x577 (size before relaxing)
 .debug_str     0x0000000000006809      0x94b ../candy_avb_sss_bsp/\libucosii_bsp.a(altera_msgdma.o)
                                        0xe06 (size before relaxing)
 .debug_str     0x0000000000007154      0x2c2 ../candy_avb_sss_bsp/\libucosii_bsp.a(altera_onchip_flash.o)
                                        0x704 (size before relaxing)
 .debug_str     0x0000000000007416      0xaaf ../candy_avb_sss_bsp/\libucosii_bsp.a(ins_tse_mac.o)
                                       0x1b18 (size before relaxing)
 .debug_str     0x0000000000007ec5       0x1e ../candy_avb_sss_bsp/\libucosii_bsp.a(alt_iniche_close.o)
                                        0x18e (size before relaxing)
 .debug_str     0x0000000000007ee3       0x48 ../candy_avb_sss_bsp/\libucosii_bsp.a(alt_iniche_dev.o)
                                        0x5b9 (size before relaxing)
 .debug_str     0x0000000000007f2b       0x1d ../candy_avb_sss_bsp/\libucosii_bsp.a(alt_iniche_read.o)
                                        0x193 (size before relaxing)
 .debug_str     0x0000000000007f48       0x1e ../candy_avb_sss_bsp/\libucosii_bsp.a(alt_iniche_write.o)
                                        0x195 (size before relaxing)
 .debug_str     0x0000000000007f66       0x92 ../candy_avb_sss_bsp/\libucosii_bsp.a(ipnet.o)
                                        0x59d (size before relaxing)
 .debug_str     0x0000000000007ff8       0x77 ../candy_avb_sss_bsp/\libucosii_bsp.a(ipstart.o)
                                        0x57d (size before relaxing)
 .debug_str     0x000000000000806f      0x580 ../candy_avb_sss_bsp/\libucosii_bsp.a(igmp_cmn.o)
                                        0xab3 (size before relaxing)
 .debug_str     0x00000000000085ef      0x270 ../candy_avb_sss_bsp/\libucosii_bsp.a(bsdsock.o)
                                        0x828 (size before relaxing)
 .debug_str     0x000000000000885f       0x35 ../candy_avb_sss_bsp/\libucosii_bsp.a(cksum.o)
                                        0x1b0 (size before relaxing)
 .debug_str     0x0000000000008894      0x11b ../candy_avb_sss_bsp/\libucosii_bsp.a(in_utils.o)
                                        0x2fb (size before relaxing)
 .debug_str     0x00000000000089af       0x81 ../candy_avb_sss_bsp/\libucosii_bsp.a(netmain.o)
                                        0x2ec (size before relaxing)
 .debug_str     0x0000000000008a30      0x102 ../candy_avb_sss_bsp/\libucosii_bsp.a(tk_crnos.o)
                                        0x4fb (size before relaxing)
 .debug_str     0x0000000000008b32      0x2e0 ../candy_avb_sss_bsp/\libucosii_bsp.a(dhcpclnt.o)
                                        0x806 (size before relaxing)
 .debug_str     0x0000000000008e12       0x2a ../candy_avb_sss_bsp/\libucosii_bsp.a(dhcputil.o)
                                        0x199 (size before relaxing)
 .debug_str     0x0000000000008e3c       0xcd ../candy_avb_sss_bsp/\libucosii_bsp.a(pktalloc.o)
                                        0x5c9 (size before relaxing)
 .debug_str     0x0000000000008f09       0x2d ../candy_avb_sss_bsp/\libucosii_bsp.a(q.o)
                                        0x1d0 (size before relaxing)
 .debug_str     0x0000000000008f36       0x51 ../candy_avb_sss_bsp/\libucosii_bsp.a(udp_open.o)
                                        0x56b (size before relaxing)
 .debug_str     0x0000000000008f87       0xb2 ../candy_avb_sss_bsp/\libucosii_bsp.a(brdutils.o)
                                        0x638 (size before relaxing)
 .debug_str     0x0000000000009039       0xd0 ../candy_avb_sss_bsp/\libucosii_bsp.a(osportco.o)
                                        0x383 (size before relaxing)
 .debug_str     0x0000000000009109       0xe0 ../candy_avb_sss_bsp/\libucosii_bsp.a(targnios.o)
                                        0x364 (size before relaxing)
 .debug_str     0x00000000000091e9      0x804 ../candy_avb_sss_bsp/\libucosii_bsp.a(nptcp.o)
                                        0xfc4 (size before relaxing)
 .debug_str     0x00000000000099ed       0x92 ../candy_avb_sss_bsp/\libucosii_bsp.a(rawsock.o)
                                        0x7e7 (size before relaxing)
 .debug_str     0x0000000000009a7f      0x10e ../candy_avb_sss_bsp/\libucosii_bsp.a(sockcall.o)
                                        0x9cc (size before relaxing)
 .debug_str     0x0000000000009b8d      0x161 ../candy_avb_sss_bsp/\libucosii_bsp.a(socket.o)
                                        0xa0b (size before relaxing)
 .debug_str     0x0000000000009cee      0x150 ../candy_avb_sss_bsp/\libucosii_bsp.a(socket2.o)
                                        0x835 (size before relaxing)
 .debug_str     0x0000000000009e3e       0x95 ../candy_avb_sss_bsp/\libucosii_bsp.a(soselect.o)
                                        0x7c3 (size before relaxing)
 .debug_str     0x0000000000009ed3      0x143 ../candy_avb_sss_bsp/\libucosii_bsp.a(tcp_in.o)
                                        0xea4 (size before relaxing)
 .debug_str     0x000000000000a016       0x99 ../candy_avb_sss_bsp/\libucosii_bsp.a(tcp_out.o)
                                        0xdec (size before relaxing)
 .debug_str     0x000000000000a0af       0x8c ../candy_avb_sss_bsp/\libucosii_bsp.a(tcp_subr.o)
                                        0xdd9 (size before relaxing)
 .debug_str     0x000000000000a13b       0x72 ../candy_avb_sss_bsp/\libucosii_bsp.a(tcp_timr.o)
                                        0xdb8 (size before relaxing)
 .debug_str     0x000000000000a1ad       0x51 ../candy_avb_sss_bsp/\libucosii_bsp.a(tcp_usr.o)
                                        0xd80 (size before relaxing)
 .debug_str     0x000000000000a1fe       0x21 ../candy_avb_sss_bsp/\libucosii_bsp.a(tcpport.o)
                                        0x18b (size before relaxing)
 .debug_str     0x000000000000a21f       0x99 ../candy_avb_sss_bsp/\libucosii_bsp.a(udpsock.o)
                                        0x80c (size before relaxing)
 .debug_str     0x000000000000a2b8       0x48 ../candy_avb_sss_bsp/\libucosii_bsp.a(alt_alarm_start.o)
                                        0x297 (size before relaxing)
 .debug_str     0x000000000000a300       0x42 ../candy_avb_sss_bsp/\libucosii_bsp.a(alt_busy_sleep.o)
                                        0x184 (size before relaxing)
 .debug_str     0x000000000000a342       0x25 ../candy_avb_sss_bsp/\libucosii_bsp.a(alt_close.o)
                                        0x25e (size before relaxing)
 .debug_str     0x000000000000a367       0x2c ../candy_avb_sss_bsp/\libucosii_bsp.a(alt_dcache_flush.o)
                                        0x174 (size before relaxing)
 .debug_str     0x000000000000a393       0x49 ../candy_avb_sss_bsp/\libucosii_bsp.a(alt_dev.o)
                                        0x3c2 (size before relaxing)
 .debug_str     0x000000000000a3dc       0x34 ../candy_avb_sss_bsp/\libucosii_bsp.a(alt_dev_llist_insert.o)
                                        0x1e5 (size before relaxing)
 .debug_str     0x000000000000a410       0x48 ../candy_avb_sss_bsp/\libucosii_bsp.a(alt_do_ctors.o)
                                         0xe9 (size before relaxing)
 .debug_str     0x000000000000a458       0x4c ../candy_avb_sss_bsp/\libucosii_bsp.a(alt_do_dtors.o)
                                         0xe8 (size before relaxing)
 .debug_str     0x000000000000a4a4       0x14 ../candy_avb_sss_bsp/\libucosii_bsp.a(alt_errno.o)
                                        0x15e (size before relaxing)
 .debug_str     0x000000000000a4b8       0x24 ../candy_avb_sss_bsp/\libucosii_bsp.a(alt_find_dev.o)
                                        0x235 (size before relaxing)
 .debug_str     0x000000000000a4dc       0x3f ../candy_avb_sss_bsp/\libucosii_bsp.a(alt_flash_dev.o)
                                        0x34c (size before relaxing)
 .debug_str     0x000000000000a51b       0xb7 ../candy_avb_sss_bsp/\libucosii_bsp.a(alt_iic.o)
                                        0x257 (size before relaxing)
 .debug_str     0x000000000000a5d2       0x4c ../candy_avb_sss_bsp/\libucosii_bsp.a(alt_iic_isr_register.o)
                                        0x201 (size before relaxing)
 .debug_str     0x000000000000a61e       0x56 ../candy_avb_sss_bsp/\libucosii_bsp.a(alt_io_redirect.o)
                                        0x35f (size before relaxing)
 .debug_str     0x000000000000a674       0x3a ../candy_avb_sss_bsp/\libucosii_bsp.a(alt_irq_handler.o)
                                        0x1d8 (size before relaxing)
 .debug_str     0x000000000000a6ae       0x17 ../candy_avb_sss_bsp/\libucosii_bsp.a(alt_irq_vars.o)
                                        0x153 (size before relaxing)
 .debug_str     0x000000000000a6c5       0x29 ../candy_avb_sss_bsp/\libucosii_bsp.a(alt_open.o)
                                        0x28c (size before relaxing)
 .debug_str     0x000000000000a6ee       0x2c ../candy_avb_sss_bsp/\libucosii_bsp.a(alt_printf.o)
                                        0x113 (size before relaxing)
 .debug_str     0x000000000000a71a       0x22 ../candy_avb_sss_bsp/\libucosii_bsp.a(alt_putchar.o)
                                        0x51e (size before relaxing)
 .debug_str     0x000000000000a73c       0x1c ../candy_avb_sss_bsp/\libucosii_bsp.a(alt_read.o)
                                        0x349 (size before relaxing)
 .debug_str     0x000000000000a758       0x28 ../candy_avb_sss_bsp/\libucosii_bsp.a(alt_release_fd.o)
                                        0x23e (size before relaxing)
 .debug_str     0x000000000000a780       0x2c ../candy_avb_sss_bsp/\libucosii_bsp.a(alt_remap_cached.o)
                                        0x16e (size before relaxing)
 .debug_str     0x000000000000a7ac       0x4a ../candy_avb_sss_bsp/\libucosii_bsp.a(alt_tick.o)
                                        0x278 (size before relaxing)
 .debug_str     0x000000000000a7f6       0x2e ../candy_avb_sss_bsp/\libucosii_bsp.a(alt_uncached_free.o)
                                        0x170 (size before relaxing)
 .debug_str     0x000000000000a824       0x49 ../candy_avb_sss_bsp/\libucosii_bsp.a(alt_uncached_malloc.o)
                                        0x197 (size before relaxing)
 .debug_str     0x000000000000a86d       0x1e ../candy_avb_sss_bsp/\libucosii_bsp.a(alt_write.o)
                                        0x34b (size before relaxing)
 .debug_str     0x000000000000a88b       0x3b ../candy_avb_sss_bsp/\libucosii_bsp.a(altera_nios2_gen2_irq.o)
                                        0x175 (size before relaxing)
 .debug_str     0x000000000000a8c6       0xd5 ../candy_avb_sss_bsp/\libucosii_bsp.a(os_cpu_c.o)
                                        0x856 (size before relaxing)
 .debug_str     0x000000000000a99b      0xeff ../candy_avb_sss_bsp/\libucosii_bsp.a(altera_avalon_tse.o)
                                       0x1ee8 (size before relaxing)
 .debug_str     0x000000000000b89a       0xb8 ../candy_avb_sss_bsp/\libucosii_bsp.a(allports.o)
                                        0x636 (size before relaxing)
 .debug_str     0x000000000000b952       0xa6 ../candy_avb_sss_bsp/\libucosii_bsp.a(timeouts.o)
                                        0x243 (size before relaxing)
 .debug_str     0x000000000000b9f8       0x39 ../candy_avb_sss_bsp/\libucosii_bsp.a(tk_misc.o)
                                        0x1bf (size before relaxing)
 .debug_str     0x000000000000ba31       0x1e ../candy_avb_sss_bsp/\libucosii_bsp.a(alt_iniche_fcntl.o)
                                        0x1c7 (size before relaxing)
 .debug_str     0x000000000000ba4f      0x1e8 ../candy_avb_sss_bsp/\libucosii_bsp.a(et_arp.o)
                                        0x729 (size before relaxing)
 .debug_str     0x000000000000bc37       0x44 ../candy_avb_sss_bsp/\libucosii_bsp.a(iface.o)
                                        0x722 (size before relaxing)
 .debug_str     0x000000000000bc7b      0x292 ../candy_avb_sss_bsp/\libucosii_bsp.a(ip.o)
                                        0x9bd (size before relaxing)
 .debug_str     0x000000000000bf0d      0x420 ../candy_avb_sss_bsp/\libucosii_bsp.a(ip_reasm.o)
                                        0xaa0 (size before relaxing)
 .debug_str     0x000000000000c32d       0x65 ../candy_avb_sss_bsp/\libucosii_bsp.a(ipdemux.o)
                                        0x698 (size before relaxing)
 .debug_str     0x000000000000c392       0x43 ../candy_avb_sss_bsp/\libucosii_bsp.a(ipmc.o)
                                        0x4fd (size before relaxing)
 .debug_str     0x000000000000c3d5       0x48 ../candy_avb_sss_bsp/\libucosii_bsp.a(ipport.o)
                                        0x205 (size before relaxing)
 .debug_str     0x000000000000c41d       0xa1 ../candy_avb_sss_bsp/\libucosii_bsp.a(ipraw.o)
                                        0x73f (size before relaxing)
 .debug_str     0x000000000000c4be       0xa4 ../candy_avb_sss_bsp/\libucosii_bsp.a(iproute.o)
                                        0x77b (size before relaxing)
 .debug_str     0x000000000000c562       0xe0 ../candy_avb_sss_bsp/\libucosii_bsp.a(udp.o)
                                        0x80f (size before relaxing)
 .debug_str     0x000000000000c642       0x24 ../candy_avb_sss_bsp/\libucosii_bsp.a(igmp.o)
                                        0x99e (size before relaxing)
 .debug_str     0x000000000000c666       0xbc ../candy_avb_sss_bsp/\libucosii_bsp.a(igmp2.o)
                                        0xa49 (size before relaxing)
 .debug_str     0x000000000000c722       0x79 ../candy_avb_sss_bsp/\libucosii_bsp.a(ipopt.o)
                                        0x786 (size before relaxing)
 .debug_str     0x000000000000c79b       0x87 ../candy_avb_sss_bsp/\libucosii_bsp.a(u_mctest.o)
                                        0x5ca (size before relaxing)
 .debug_str     0x000000000000c822       0x5a ../candy_avb_sss_bsp/\libucosii_bsp.a(dhcsetup.o)
                                        0x4e6 (size before relaxing)
 .debug_str     0x000000000000c87c      0x141 ../candy_avb_sss_bsp/\libucosii_bsp.a(memdev.o)
                                        0x2fa (size before relaxing)
 .debug_str     0x000000000000c9bd       0xba ../candy_avb_sss_bsp/\libucosii_bsp.a(parseip.o)
                                        0x2c0 (size before relaxing)
 .debug_str     0x000000000000ca77       0x4d ../candy_avb_sss_bsp/\libucosii_bsp.a(tcpcksum.o)
                                        0x278 (size before relaxing)
 .debug_str     0x000000000000cac4       0xdb ../candy_avb_sss_bsp/\libucosii_bsp.a(in_pcb.o)
                                        0x812 (size before relaxing)
 .debug_str     0x000000000000cb9f      0x22c ../candy_avb_sss_bsp/\libucosii_bsp.a(vfsfiles.o)
                                        0x4ae (size before relaxing)
 .debug_str     0x000000000000cdcb       0x22 ../candy_avb_sss_bsp/\libucosii_bsp.a(vfsport.o)
                                        0x18c (size before relaxing)
 .debug_str     0x000000000000cded       0x1e ../candy_avb_sss_bsp/\libucosii_bsp.a(alt_fcntl.o)
                                        0x373 (size before relaxing)
 .debug_str     0x000000000000ce0b       0x26 ../candy_avb_sss_bsp/\libucosii_bsp.a(alt_find_file.o)
                                        0x243 (size before relaxing)
 .debug_str     0x000000000000ce31       0x30 ../candy_avb_sss_bsp/\libucosii_bsp.a(alt_get_fd.o)
                                        0x2e1 (size before relaxing)
 .debug_str     0x000000000000ce61      0x48b ../candy_avb_sss_bsp/\libucosii_bsp.a(alt_instruction_exception_entry.o)
                                        0x5b9 (size before relaxing)
 .debug_str     0x000000000000d2ec      0x26e ../candy_avb_sss_bsp/\libucosii_bsp.a(icmp.o)
                                        0x7f4 (size before relaxing)
 .debug_str     0x000000000000d55a       0x7e c:/intelfpga_lite/18.1/nios2eds/bin/gnu/h-x86_64-mingw32/bin/../lib/gcc/nios2-elf/5.3.0/../../../../../H-x86_64-mingw32/nios2-elf/lib\libc.a(lib_a-atexit.o)
                                        0x207 (size before relaxing)
 .debug_str     0x000000000000d5d8       0x56 c:/intelfpga_lite/18.1/nios2eds/bin/gnu/h-x86_64-mingw32/bin/../lib/gcc/nios2-elf/5.3.0/../../../../../H-x86_64-mingw32/nios2-elf/lib\libc.a(lib_a-atoi.o)
                                        0x58e (size before relaxing)
 .debug_str     0x000000000000d62e       0x49 c:/intelfpga_lite/18.1/nios2eds/bin/gnu/h-x86_64-mingw32/bin/../lib/gcc/nios2-elf/5.3.0/../../../../../H-x86_64-mingw32/nios2-elf/lib\libc.a(lib_a-exit.o)
                                        0x5a4 (size before relaxing)
 .debug_str     0x000000000000d677       0x49 c:/intelfpga_lite/18.1/nios2eds/bin/gnu/h-x86_64-mingw32/bin/../lib/gcc/nios2-elf/5.3.0/../../../../../H-x86_64-mingw32/nios2-elf/lib\libc.a(lib_a-getc.o)
                                        0x5bb (size before relaxing)
 .debug_str     0x000000000000d6c0       0x4f c:/intelfpga_lite/18.1/nios2eds/bin/gnu/h-x86_64-mingw32/bin/../lib/gcc/nios2-elf/5.3.0/../../../../../H-x86_64-mingw32/nios2-elf/lib\libc.a(lib_a-malign.o)
                                        0x5a7 (size before relaxing)
 .debug_str     0x000000000000d70f       0x13 c:/intelfpga_lite/18.1/nios2eds/bin/gnu/h-x86_64-mingw32/bin/../lib/gcc/nios2-elf/5.3.0/../../../../../H-x86_64-mingw32/nios2-elf/lib\libc.a(lib_a-malignr.o)
                                        0x625 (size before relaxing)
 .debug_str     0x000000000000d722       0x41 c:/intelfpga_lite/18.1/nios2eds/bin/gnu/h-x86_64-mingw32/bin/../lib/gcc/nios2-elf/5.3.0/../../../../../H-x86_64-mingw32/nios2-elf/lib\libc.a(lib_a-memcmp.o)
                                        0x1ca (size before relaxing)
 .debug_str     0x000000000000d763       0x45 c:/intelfpga_lite/18.1/nios2eds/bin/gnu/h-x86_64-mingw32/bin/../lib/gcc/nios2-elf/5.3.0/../../../../../H-x86_64-mingw32/nios2-elf/lib\libc.a(lib_a-putchar.o)
                                        0x59e (size before relaxing)
 .debug_str     0x000000000000d7a8       0x4b c:/intelfpga_lite/18.1/nios2eds/bin/gnu/h-x86_64-mingw32/bin/../lib/gcc/nios2-elf/5.3.0/../../../../../H-x86_64-mingw32/nios2-elf/lib\libc.a(lib_a-rget.o)
                                        0x5b5 (size before relaxing)
 .debug_str     0x000000000000d7f3       0x41 c:/intelfpga_lite/18.1/nios2eds/bin/gnu/h-x86_64-mingw32/bin/../lib/gcc/nios2-elf/5.3.0/../../../../../H-x86_64-mingw32/nios2-elf/lib\libc.a(lib_a-strcpy.o)
                                        0x1e5 (size before relaxing)
 .debug_str     0x000000000000d834       0x43 c:/intelfpga_lite/18.1/nios2eds/bin/gnu/h-x86_64-mingw32/bin/../lib/gcc/nios2-elf/5.3.0/../../../../../H-x86_64-mingw32/nios2-elf/lib\libc.a(lib_a-strncmp.o)
                                        0x1cc (size before relaxing)
 .debug_str     0x000000000000d877       0x43 c:/intelfpga_lite/18.1/nios2eds/bin/gnu/h-x86_64-mingw32/bin/../lib/gcc/nios2-elf/5.3.0/../../../../../H-x86_64-mingw32/nios2-elf/lib\libc.a(lib_a-strncpy.o)
                                        0x1f4 (size before relaxing)
 .debug_str     0x000000000000d8ba       0x5d c:/intelfpga_lite/18.1/nios2eds/bin/gnu/h-x86_64-mingw32/bin/../lib/gcc/nios2-elf/5.3.0/../../../../../H-x86_64-mingw32/nios2-elf/lib\libc.a(lib_a-strtol.o)
                                        0x5c1 (size before relaxing)
 .debug_str     0x000000000000d917       0x59 c:/intelfpga_lite/18.1/nios2eds/bin/gnu/h-x86_64-mingw32/bin/../lib/gcc/nios2-elf/5.3.0/../../../../../H-x86_64-mingw32/nios2-elf/lib\libc.a(lib_a-vprintf.o)
                                        0x5cb (size before relaxing)
 .debug_str     0x000000000000d970       0x50 c:/intelfpga_lite/18.1/nios2eds/bin/gnu/h-x86_64-mingw32/bin/../lib/gcc/nios2-elf/5.3.0/../../../../../H-x86_64-mingw32/nios2-elf/lib\libc.a(lib_a-vsprintf.o)
                                        0x5d9 (size before relaxing)
 .debug_str     0x000000000000d9c0       0x3c c:/intelfpga_lite/18.1/nios2eds/bin/gnu/h-x86_64-mingw32/bin/../lib/gcc/nios2-elf/5.3.0/../../../../../H-x86_64-mingw32/nios2-elf/lib\libc.a(lib_a-__atexit.o)
                                        0x5dc (size before relaxing)
 .debug_str     0x000000000000d9fc       0x55 c:/intelfpga_lite/18.1/nios2eds/bin/gnu/h-x86_64-mingw32/bin/../lib/gcc/nios2-elf/5.3.0/../../../../../H-x86_64-mingw32/nios2-elf/lib\libc.a(lib_a-__call_atexit.o)
                                        0x5c8 (size before relaxing)
 .debug_str     0x000000000000da51       0xcd c:/intelfpga_lite/18.1/nios2eds/bin/gnu/h-x86_64-mingw32/bin/../lib/gcc/nios2-elf/5.3.0/../../../../../H-x86_64-mingw32/nios2-elf/lib\libc.a(lib_a-ctype_.o)
                                        0x149 (size before relaxing)
 .debug_str     0x000000000000db1e       0x4b c:/intelfpga_lite/18.1/nios2eds/bin/gnu/h-x86_64-mingw32/bin/../lib/gcc/nios2-elf/5.3.0/../../../../../H-x86_64-mingw32/nios2-elf/lib\libc.a(lib_a-refill.o)
                                        0x5f6 (size before relaxing)
 .debug_str     0x000000000000db69       0x3e c:/intelfpga_lite/18.1/nios2eds/bin/gnu/h-x86_64-mingw32/bin/../lib/gcc/nios2-elf/5.3.0/../../../../../H-x86_64-mingw32/nios2-elf/lib\libc.a(lib_a-vfprintfr_1.o)
                                        0x5cb (size before relaxing)
 .debug_str     0x000000000000dba7       0x2a ../candy_avb_sss_bsp/\libucosii_bsp.a(alt_exit.o)
                                        0x1ac (size before relaxing)

.debug_loc      0x0000000000000000    0x20207
 *(.debug_loc)
 .debug_loc     0x0000000000000000       0x60 c:/intelfpga_lite/18.1/nios2eds/bin/gnu/h-x86_64-mingw32/bin/../lib/gcc/nios2-elf/5.3.0\libgcc.a(_floatdisf.o)
 .debug_loc     0x0000000000000060      0xae0 c:/intelfpga_lite/18.1/nios2eds/bin/gnu/h-x86_64-mingw32/bin/../lib/gcc/nios2-elf/5.3.0\libgcc.a(addsf3.o)
 .debug_loc     0x0000000000000b40      0x740 c:/intelfpga_lite/18.1/nios2eds/bin/gnu/h-x86_64-mingw32/bin/../lib/gcc/nios2-elf/5.3.0\libgcc.a(mulsf3.o)
 .debug_loc     0x0000000000001280       0xc3 c:/intelfpga_lite/18.1/nios2eds/bin/gnu/h-x86_64-mingw32/bin/../lib/gcc/nios2-elf/5.3.0\libgcc.a(fixsfsi.o)
 .debug_loc     0x0000000000001343      0x187 c:/intelfpga_lite/18.1/nios2eds/bin/gnu/h-x86_64-mingw32/bin/../lib/gcc/nios2-elf/5.3.0\libgcc.a(floatsisf.o)
 .debug_loc     0x00000000000014ca     0x16f9 c:/intelfpga_lite/18.1/nios2eds/bin/gnu/h-x86_64-mingw32/bin/../lib/gcc/nios2-elf/5.3.0\libgcc.a(adddf3.o)
 .debug_loc     0x0000000000002bc3     0x1fc6 c:/intelfpga_lite/18.1/nios2eds/bin/gnu/h-x86_64-mingw32/bin/../lib/gcc/nios2-elf/5.3.0\libgcc.a(divdf3.o)
 .debug_loc     0x0000000000004b89     0x100d c:/intelfpga_lite/18.1/nios2eds/bin/gnu/h-x86_64-mingw32/bin/../lib/gcc/nios2-elf/5.3.0\libgcc.a(muldf3.o)
 .debug_loc     0x0000000000005b96      0x175 c:/intelfpga_lite/18.1/nios2eds/bin/gnu/h-x86_64-mingw32/bin/../lib/gcc/nios2-elf/5.3.0\libgcc.a(floatsidf.o)
 .debug_loc     0x0000000000005d0b      0x19e c:/intelfpga_lite/18.1/nios2eds/bin/gnu/h-x86_64-mingw32/bin/../lib/gcc/nios2-elf/5.3.0\libgcc.a(floatunsidf.o)
 .debug_loc     0x0000000000005ea9      0x26d c:/intelfpga_lite/18.1/nios2eds/bin/gnu/h-x86_64-mingw32/bin/../lib/gcc/nios2-elf/5.3.0\libgcc.a(extendsfdf2.o)
 .debug_loc     0x0000000000006116      0x359 c:/intelfpga_lite/18.1/nios2eds/bin/gnu/h-x86_64-mingw32/bin/../lib/gcc/nios2-elf/5.3.0\libgcc.a(truncdfsf2.o)
 .debug_loc     0x000000000000646f       0x6b c:/intelfpga_lite/18.1/nios2eds/bin/gnu/h-x86_64-mingw32/bin/../lib/gcc/nios2-elf/5.3.0\libgcc.a(_clzsi2.o)
 .debug_loc     0x00000000000064da      0x4ce c:/intelfpga_lite/18.1/nios2eds/bin/gnu/h-x86_64-mingw32/bin/../lib/gcc/nios2-elf/5.3.0\libgcc.a(lib2-divmod.o)
 .debug_loc     0x00000000000069a8       0x58 c:/intelfpga_lite/18.1/nios2eds/bin/gnu/h-x86_64-mingw32/bin/../lib/gcc/nios2-elf/5.3.0/../../../../../H-x86_64-mingw32/nios2-elf/lib\libc.a(lib_a-calloc.o)
 .debug_loc     0x0000000000006a00      0x1db c:/intelfpga_lite/18.1/nios2eds/bin/gnu/h-x86_64-mingw32/bin/../lib/gcc/nios2-elf/5.3.0/../../../../../H-x86_64-mingw32/nios2-elf/lib\libc.a(lib_a-callocr.o)
 .debug_loc     0x0000000000006bdb      0x115 c:/intelfpga_lite/18.1/nios2eds/bin/gnu/h-x86_64-mingw32/bin/../lib/gcc/nios2-elf/5.3.0/../../../../../H-x86_64-mingw32/nios2-elf/lib\libc.a(lib_a-fprintf.o)
 .debug_loc     0x0000000000006cf0      0x2b2 c:/intelfpga_lite/18.1/nios2eds/bin/gnu/h-x86_64-mingw32/bin/../lib/gcc/nios2-elf/5.3.0/../../../../../H-x86_64-mingw32/nios2-elf/lib\libc.a(lib_a-fwrite.o)
 .debug_loc     0x0000000000006fa2       0x58 c:/intelfpga_lite/18.1/nios2eds/bin/gnu/h-x86_64-mingw32/bin/../lib/gcc/nios2-elf/5.3.0/../../../../../H-x86_64-mingw32/nios2-elf/lib\libc.a(lib_a-malloc.o)
 .debug_loc     0x0000000000006ffa      0xb1b c:/intelfpga_lite/18.1/nios2eds/bin/gnu/h-x86_64-mingw32/bin/../lib/gcc/nios2-elf/5.3.0/../../../../../H-x86_64-mingw32/nios2-elf/lib\libc.a(lib_a-mallocr.o)
 .debug_loc     0x0000000000007b15      0x266 c:/intelfpga_lite/18.1/nios2eds/bin/gnu/h-x86_64-mingw32/bin/../lib/gcc/nios2-elf/5.3.0/../../../../../H-x86_64-mingw32/nios2-elf/lib\libc.a(lib_a-memcpy.o)
 .debug_loc     0x0000000000007d7b      0x1a6 c:/intelfpga_lite/18.1/nios2eds/bin/gnu/h-x86_64-mingw32/bin/../lib/gcc/nios2-elf/5.3.0/../../../../../H-x86_64-mingw32/nios2-elf/lib\libc.a(lib_a-memset.o)
 .debug_loc     0x0000000000007f21       0xbb c:/intelfpga_lite/18.1/nios2eds/bin/gnu/h-x86_64-mingw32/bin/../lib/gcc/nios2-elf/5.3.0/../../../../../H-x86_64-mingw32/nios2-elf/lib\libc.a(lib_a-perror.o)
 .debug_loc     0x0000000000007fdc       0xd3 c:/intelfpga_lite/18.1/nios2eds/bin/gnu/h-x86_64-mingw32/bin/../lib/gcc/nios2-elf/5.3.0/../../../../../H-x86_64-mingw32/nios2-elf/lib\libc.a(lib_a-printf.o)
 .debug_loc     0x00000000000080af      0x117 c:/intelfpga_lite/18.1/nios2eds/bin/gnu/h-x86_64-mingw32/bin/../lib/gcc/nios2-elf/5.3.0/../../../../../H-x86_64-mingw32/nios2-elf/lib\libc.a(lib_a-puts.o)
 .debug_loc     0x00000000000081c6       0x58 c:/intelfpga_lite/18.1/nios2eds/bin/gnu/h-x86_64-mingw32/bin/../lib/gcc/nios2-elf/5.3.0/../../../../../H-x86_64-mingw32/nios2-elf/lib\libc.a(lib_a-sbrkr.o)
 .debug_loc     0x000000000000821e      0x106 c:/intelfpga_lite/18.1/nios2eds/bin/gnu/h-x86_64-mingw32/bin/../lib/gcc/nios2-elf/5.3.0/../../../../../H-x86_64-mingw32/nios2-elf/lib\libc.a(lib_a-sprintf.o)
 .debug_loc     0x0000000000008324      0x140 c:/intelfpga_lite/18.1/nios2eds/bin/gnu/h-x86_64-mingw32/bin/../lib/gcc/nios2-elf/5.3.0/../../../../../H-x86_64-mingw32/nios2-elf/lib\libc.a(lib_a-strchr.o)
 .debug_loc     0x0000000000008464       0xc6 c:/intelfpga_lite/18.1/nios2eds/bin/gnu/h-x86_64-mingw32/bin/../lib/gcc/nios2-elf/5.3.0/../../../../../H-x86_64-mingw32/nios2-elf/lib\libc.a(lib_a-strcmp.o)
 .debug_loc     0x000000000000852a      0x638 c:/intelfpga_lite/18.1/nios2eds/bin/gnu/h-x86_64-mingw32/bin/../lib/gcc/nios2-elf/5.3.0/../../../../../H-x86_64-mingw32/nios2-elf/lib\libc.a(lib_a-strerror.o)
 .debug_loc     0x0000000000008b62       0x47 c:/intelfpga_lite/18.1/nios2eds/bin/gnu/h-x86_64-mingw32/bin/../lib/gcc/nios2-elf/5.3.0/../../../../../H-x86_64-mingw32/nios2-elf/lib\libc.a(lib_a-strlen.o)
 .debug_loc     0x0000000000008ba9     0x30a2 c:/intelfpga_lite/18.1/nios2eds/bin/gnu/h-x86_64-mingw32/bin/../lib/gcc/nios2-elf/5.3.0/../../../../../H-x86_64-mingw32/nios2-elf/lib\libc.a(lib_a-svfprintf.o)
 .debug_loc     0x000000000000bc4b     0x30cf c:/intelfpga_lite/18.1/nios2eds/bin/gnu/h-x86_64-mingw32/bin/../lib/gcc/nios2-elf/5.3.0/../../../../../H-x86_64-mingw32/nios2-elf/lib\libc.a(lib_a-vfprintf.o)
 .debug_loc     0x000000000000ed1a       0xa2 c:/intelfpga_lite/18.1/nios2eds/bin/gnu/h-x86_64-mingw32/bin/../lib/gcc/nios2-elf/5.3.0/../../../../../H-x86_64-mingw32/nios2-elf/lib\libc.a(lib_a-wsetup.o)
 .debug_loc     0x000000000000edbc     0x2855 c:/intelfpga_lite/18.1/nios2eds/bin/gnu/h-x86_64-mingw32/bin/../lib/gcc/nios2-elf/5.3.0/../../../../../H-x86_64-mingw32/nios2-elf/lib\libc.a(lib_a-dtoa.o)
 .debug_loc     0x0000000000011611      0x36f c:/intelfpga_lite/18.1/nios2eds/bin/gnu/h-x86_64-mingw32/bin/../lib/gcc/nios2-elf/5.3.0/../../../../../H-x86_64-mingw32/nios2-elf/lib\libc.a(lib_a-fflush.o)
 .debug_loc     0x0000000000011980      0x2ee c:/intelfpga_lite/18.1/nios2eds/bin/gnu/h-x86_64-mingw32/bin/../lib/gcc/nios2-elf/5.3.0/../../../../../H-x86_64-mingw32/nios2-elf/lib\libc.a(lib_a-findfp.o)
 .debug_loc     0x0000000000011c6e      0x126 c:/intelfpga_lite/18.1/nios2eds/bin/gnu/h-x86_64-mingw32/bin/../lib/gcc/nios2-elf/5.3.0/../../../../../H-x86_64-mingw32/nios2-elf/lib\libc.a(lib_a-fputc.o)
 .debug_loc     0x0000000000011d94      0x126 c:/intelfpga_lite/18.1/nios2eds/bin/gnu/h-x86_64-mingw32/bin/../lib/gcc/nios2-elf/5.3.0/../../../../../H-x86_64-mingw32/nios2-elf/lib\libc.a(lib_a-fputs.o)
 .debug_loc     0x0000000000011eba      0x4e7 c:/intelfpga_lite/18.1/nios2eds/bin/gnu/h-x86_64-mingw32/bin/../lib/gcc/nios2-elf/5.3.0/../../../../../H-x86_64-mingw32/nios2-elf/lib\libc.a(lib_a-freer.o)
 .debug_loc     0x00000000000123a1      0x5d7 c:/intelfpga_lite/18.1/nios2eds/bin/gnu/h-x86_64-mingw32/bin/../lib/gcc/nios2-elf/5.3.0/../../../../../H-x86_64-mingw32/nios2-elf/lib\libc.a(lib_a-fvwrite.o)
 .debug_loc     0x0000000000012978      0x25b c:/intelfpga_lite/18.1/nios2eds/bin/gnu/h-x86_64-mingw32/bin/../lib/gcc/nios2-elf/5.3.0/../../../../../H-x86_64-mingw32/nios2-elf/lib\libc.a(lib_a-fwalk.o)
 .debug_loc     0x0000000000012bd3      0x131 c:/intelfpga_lite/18.1/nios2eds/bin/gnu/h-x86_64-mingw32/bin/../lib/gcc/nios2-elf/5.3.0/../../../../../H-x86_64-mingw32/nios2-elf/lib\libc.a(lib_a-locale.o)
 .debug_loc     0x0000000000012d04      0x122 c:/intelfpga_lite/18.1/nios2eds/bin/gnu/h-x86_64-mingw32/bin/../lib/gcc/nios2-elf/5.3.0/../../../../../H-x86_64-mingw32/nios2-elf/lib\libc.a(lib_a-makebuf.o)
 .debug_loc     0x0000000000012e26      0x1a1 c:/intelfpga_lite/18.1/nios2eds/bin/gnu/h-x86_64-mingw32/bin/../lib/gcc/nios2-elf/5.3.0/../../../../../H-x86_64-mingw32/nios2-elf/lib\libc.a(lib_a-memchr.o)
 .debug_loc     0x0000000000012fc7      0x308 c:/intelfpga_lite/18.1/nios2eds/bin/gnu/h-x86_64-mingw32/bin/../lib/gcc/nios2-elf/5.3.0/../../../../../H-x86_64-mingw32/nios2-elf/lib\libc.a(lib_a-memmove.o)
 .debug_loc     0x00000000000132cf     0x1bee c:/intelfpga_lite/18.1/nios2eds/bin/gnu/h-x86_64-mingw32/bin/../lib/gcc/nios2-elf/5.3.0/../../../../../H-x86_64-mingw32/nios2-elf/lib\libc.a(lib_a-mprec.o)
 .debug_loc     0x0000000000014ebd      0x224 c:/intelfpga_lite/18.1/nios2eds/bin/gnu/h-x86_64-mingw32/bin/../lib/gcc/nios2-elf/5.3.0/../../../../../H-x86_64-mingw32/nios2-elf/lib\libc.a(lib_a-putc.o)
 .debug_loc     0x00000000000150e1      0xde4 c:/intelfpga_lite/18.1/nios2eds/bin/gnu/h-x86_64-mingw32/bin/../lib/gcc/nios2-elf/5.3.0/../../../../../H-x86_64-mingw32/nios2-elf/lib\libc.a(lib_a-reallocr.o)
 .debug_loc     0x0000000000015ec5       0x2f c:/intelfpga_lite/18.1/nios2eds/bin/gnu/h-x86_64-mingw32/bin/../lib/gcc/nios2-elf/5.3.0/../../../../../H-x86_64-mingw32/nios2-elf/lib\libc.a(lib_a-s_fpclassify.o)
 .debug_loc     0x0000000000015ef4      0x33a c:/intelfpga_lite/18.1/nios2eds/bin/gnu/h-x86_64-mingw32/bin/../lib/gcc/nios2-elf/5.3.0/../../../../../H-x86_64-mingw32/nios2-elf/lib\libc.a(lib_a-stdio.o)
 .debug_loc     0x000000000001622e     0x1b2f c:/intelfpga_lite/18.1/nios2eds/bin/gnu/h-x86_64-mingw32/bin/../lib/gcc/nios2-elf/5.3.0/../../../../../H-x86_64-mingw32/nios2-elf/lib\libc.a(lib_a-svfiprintf.o)
 .debug_loc     0x0000000000017d5d     0x2739 c:/intelfpga_lite/18.1/nios2eds/bin/gnu/h-x86_64-mingw32/bin/../lib/gcc/nios2-elf/5.3.0/../../../../../H-x86_64-mingw32/nios2-elf/lib\libc.a(lib_a-vfiprintf.o)
 .debug_loc     0x000000000001a496      0x1b2 c:/intelfpga_lite/18.1/nios2eds/bin/gnu/h-x86_64-mingw32/bin/../lib/gcc/nios2-elf/5.3.0/../../../../../H-x86_64-mingw32/nios2-elf/lib\libc.a(lib_a-wbuf.o)
 .debug_loc     0x000000000001a648       0xb0 c:/intelfpga_lite/18.1/nios2eds/bin/gnu/h-x86_64-mingw32/bin/../lib/gcc/nios2-elf/5.3.0/../../../../../H-x86_64-mingw32/nios2-elf/lib\libc.a(lib_a-writer.o)
 .debug_loc     0x000000000001a6f8       0x58 c:/intelfpga_lite/18.1/nios2eds/bin/gnu/h-x86_64-mingw32/bin/../lib/gcc/nios2-elf/5.3.0/../../../../../H-x86_64-mingw32/nios2-elf/lib\libc.a(closer.o)
 .debug_loc     0x000000000001a750      0x199 c:/intelfpga_lite/18.1/nios2eds/bin/gnu/h-x86_64-mingw32/bin/../lib/gcc/nios2-elf/5.3.0/../../../../../H-x86_64-mingw32/nios2-elf/lib\libc.a(lib_a-fclose.o)
 .debug_loc     0x000000000001a8e9      0x2a1 c:/intelfpga_lite/18.1/nios2eds/bin/gnu/h-x86_64-mingw32/bin/../lib/gcc/nios2-elf/5.3.0/../../../../../H-x86_64-mingw32/nios2-elf/lib\libc.a(lib_a-fputwc.o)
 .debug_loc     0x000000000001ab8a       0x84 c:/intelfpga_lite/18.1/nios2eds/bin/gnu/h-x86_64-mingw32/bin/../lib/gcc/nios2-elf/5.3.0/../../../../../H-x86_64-mingw32/nios2-elf/lib\libc.a(lib_a-fstatr.o)
 .debug_loc     0x000000000001ac0e       0x58 c:/intelfpga_lite/18.1/nios2eds/bin/gnu/h-x86_64-mingw32/bin/../lib/gcc/nios2-elf/5.3.0/../../../../../H-x86_64-mingw32/nios2-elf/lib\libc.a(lib_a-isattyr.o)
 .debug_loc     0x000000000001ac66       0xb0 c:/intelfpga_lite/18.1/nios2eds/bin/gnu/h-x86_64-mingw32/bin/../lib/gcc/nios2-elf/5.3.0/../../../../../H-x86_64-mingw32/nios2-elf/lib\libc.a(lib_a-lseekr.o)
 .debug_loc     0x000000000001ad16       0xb0 c:/intelfpga_lite/18.1/nios2eds/bin/gnu/h-x86_64-mingw32/bin/../lib/gcc/nios2-elf/5.3.0/../../../../../H-x86_64-mingw32/nios2-elf/lib\libc.a(lib_a-readr.o)
 .debug_loc     0x000000000001adc6      0x24e c:/intelfpga_lite/18.1/nios2eds/bin/gnu/h-x86_64-mingw32/bin/../lib/gcc/nios2-elf/5.3.0/../../../../../H-x86_64-mingw32/nios2-elf/lib\libc.a(lib_a-wcrtomb.o)
 .debug_loc     0x000000000001b014       0x8f c:/intelfpga_lite/18.1/nios2eds/bin/gnu/h-x86_64-mingw32/bin/../lib/gcc/nios2-elf/5.3.0/../../../../../H-x86_64-mingw32/nios2-elf/lib\libc.a(lib_a-wctomb_r.o)
 .debug_loc     0x000000000001b0a3     0x10ca c:/intelfpga_lite/18.1/nios2eds/bin/gnu/h-x86_64-mingw32/bin/../lib/gcc/nios2-elf/5.3.0\libgcc.a(_udivdi3.o)
 .debug_loc     0x000000000001c16d     0x10ad c:/intelfpga_lite/18.1/nios2eds/bin/gnu/h-x86_64-mingw32/bin/../lib/gcc/nios2-elf/5.3.0\libgcc.a(_umoddi3.o)
 .debug_loc     0x000000000001d21a       0x68 c:/intelfpga_lite/18.1/nios2eds/bin/gnu/h-x86_64-mingw32/bin/../lib/gcc/nios2-elf/5.3.0\libgcc.a(eqdf2.o)
 .debug_loc     0x000000000001d282       0xf9 c:/intelfpga_lite/18.1/nios2eds/bin/gnu/h-x86_64-mingw32/bin/../lib/gcc/nios2-elf/5.3.0\libgcc.a(gedf2.o)
 .debug_loc     0x000000000001d37b      0x163 c:/intelfpga_lite/18.1/nios2eds/bin/gnu/h-x86_64-mingw32/bin/../lib/gcc/nios2-elf/5.3.0\libgcc.a(ledf2.o)
 .debug_loc     0x000000000001d4de     0x1627 c:/intelfpga_lite/18.1/nios2eds/bin/gnu/h-x86_64-mingw32/bin/../lib/gcc/nios2-elf/5.3.0\libgcc.a(subdf3.o)
 .debug_loc     0x000000000001eb05      0x121 c:/intelfpga_lite/18.1/nios2eds/bin/gnu/h-x86_64-mingw32/bin/../lib/gcc/nios2-elf/5.3.0\libgcc.a(fixdfsi.o)
 .debug_loc     0x000000000001ec26       0x2c c:/intelfpga_lite/18.1/nios2eds/bin/gnu/h-x86_64-mingw32/bin/../lib/gcc/nios2-elf/5.3.0/../../../../../H-x86_64-mingw32/nios2-elf/lib\libc.a(lib_a-atexit.o)
 .debug_loc     0x000000000001ec52       0x63 c:/intelfpga_lite/18.1/nios2eds/bin/gnu/h-x86_64-mingw32/bin/../lib/gcc/nios2-elf/5.3.0/../../../../../H-x86_64-mingw32/nios2-elf/lib\libc.a(lib_a-atoi.o)
 .debug_loc     0x000000000001ecb5       0x1e c:/intelfpga_lite/18.1/nios2eds/bin/gnu/h-x86_64-mingw32/bin/../lib/gcc/nios2-elf/5.3.0/../../../../../H-x86_64-mingw32/nios2-elf/lib\libc.a(lib_a-exit.o)
 .debug_loc     0x000000000001ecd3      0x1a2 c:/intelfpga_lite/18.1/nios2eds/bin/gnu/h-x86_64-mingw32/bin/../lib/gcc/nios2-elf/5.3.0/../../../../../H-x86_64-mingw32/nios2-elf/lib\libc.a(lib_a-getc.o)
 .debug_loc     0x000000000001ee75       0x58 c:/intelfpga_lite/18.1/nios2eds/bin/gnu/h-x86_64-mingw32/bin/../lib/gcc/nios2-elf/5.3.0/../../../../../H-x86_64-mingw32/nios2-elf/lib\libc.a(lib_a-malign.o)
 .debug_loc     0x000000000001eecd      0x267 c:/intelfpga_lite/18.1/nios2eds/bin/gnu/h-x86_64-mingw32/bin/../lib/gcc/nios2-elf/5.3.0/../../../../../H-x86_64-mingw32/nios2-elf/lib\libc.a(lib_a-malignr.o)
 .debug_loc     0x000000000001f134      0x126 c:/intelfpga_lite/18.1/nios2eds/bin/gnu/h-x86_64-mingw32/bin/../lib/gcc/nios2-elf/5.3.0/../../../../../H-x86_64-mingw32/nios2-elf/lib\libc.a(lib_a-memcmp.o)
 .debug_loc     0x000000000001f25a       0x81 c:/intelfpga_lite/18.1/nios2eds/bin/gnu/h-x86_64-mingw32/bin/../lib/gcc/nios2-elf/5.3.0/../../../../../H-x86_64-mingw32/nios2-elf/lib\libc.a(lib_a-putchar.o)
 .debug_loc     0x000000000001f2db       0xf2 c:/intelfpga_lite/18.1/nios2eds/bin/gnu/h-x86_64-mingw32/bin/../lib/gcc/nios2-elf/5.3.0/../../../../../H-x86_64-mingw32/nios2-elf/lib\libc.a(lib_a-rget.o)
 .debug_loc     0x000000000001f3cd       0xe8 c:/intelfpga_lite/18.1/nios2eds/bin/gnu/h-x86_64-mingw32/bin/../lib/gcc/nios2-elf/5.3.0/../../../../../H-x86_64-mingw32/nios2-elf/lib\libc.a(lib_a-strcpy.o)
 .debug_loc     0x000000000001f4b5       0x9c c:/intelfpga_lite/18.1/nios2eds/bin/gnu/h-x86_64-mingw32/bin/../lib/gcc/nios2-elf/5.3.0/../../../../../H-x86_64-mingw32/nios2-elf/lib\libc.a(lib_a-strncmp.o)
 .debug_loc     0x000000000001f551      0x1f0 c:/intelfpga_lite/18.1/nios2eds/bin/gnu/h-x86_64-mingw32/bin/../lib/gcc/nios2-elf/5.3.0/../../../../../H-x86_64-mingw32/nios2-elf/lib\libc.a(lib_a-strncpy.o)
 .debug_loc     0x000000000001f741      0x3d1 c:/intelfpga_lite/18.1/nios2eds/bin/gnu/h-x86_64-mingw32/bin/../lib/gcc/nios2-elf/5.3.0/../../../../../H-x86_64-mingw32/nios2-elf/lib\libc.a(lib_a-strtol.o)
 .debug_loc     0x000000000001fb12       0xe4 c:/intelfpga_lite/18.1/nios2eds/bin/gnu/h-x86_64-mingw32/bin/../lib/gcc/nios2-elf/5.3.0/../../../../../H-x86_64-mingw32/nios2-elf/lib\libc.a(lib_a-vprintf.o)
 .debug_loc     0x000000000001fbf6      0x113 c:/intelfpga_lite/18.1/nios2eds/bin/gnu/h-x86_64-mingw32/bin/../lib/gcc/nios2-elf/5.3.0/../../../../../H-x86_64-mingw32/nios2-elf/lib\libc.a(lib_a-vsprintf.o)
 .debug_loc     0x000000000001fd09      0x185 c:/intelfpga_lite/18.1/nios2eds/bin/gnu/h-x86_64-mingw32/bin/../lib/gcc/nios2-elf/5.3.0/../../../../../H-x86_64-mingw32/nios2-elf/lib\libc.a(lib_a-__atexit.o)
 .debug_loc     0x000000000001fe8e      0x1ce c:/intelfpga_lite/18.1/nios2eds/bin/gnu/h-x86_64-mingw32/bin/../lib/gcc/nios2-elf/5.3.0/../../../../../H-x86_64-mingw32/nios2-elf/lib\libc.a(lib_a-__call_atexit.o)
 .debug_loc     0x000000000002005c      0x127 c:/intelfpga_lite/18.1/nios2eds/bin/gnu/h-x86_64-mingw32/bin/../lib/gcc/nios2-elf/5.3.0/../../../../../H-x86_64-mingw32/nios2-elf/lib\libc.a(lib_a-refill.o)
 .debug_loc     0x0000000000020183       0x84 c:/intelfpga_lite/18.1/nios2eds/bin/gnu/h-x86_64-mingw32/bin/../lib/gcc/nios2-elf/5.3.0/../../../../../H-x86_64-mingw32/nios2-elf/lib\libc.a(lib_a-vfprintfr_1.o)

.debug_macinfo
 *(.debug_macinfo)

.debug_weaknames
 *(.debug_weaknames)

.debug_funcnames
 *(.debug_funcnames)

.debug_typenames
 *(.debug_typenames)

.debug_varnames
 *(.debug_varnames)

.debug_alt_sim_info
                0x0000000000000000       0x50
 *(.debug_alt_sim_info)
 .debug_alt_sim_info
                0x0000000000000000       0x20 ../candy_avb_sss_bsp//obj/HAL/src/crt0.o
 .debug_alt_sim_info
                0x0000000000000020       0x30 ../candy_avb_sss_bsp/\libucosii_bsp.a(alt_busy_sleep.o)
                0x0000000001000000                __alt_data_end = 0x1000000
                0x0000000001000000                PROVIDE (__alt_stack_pointer, __alt_data_end)
                [!provide]                        PROVIDE (__alt_stack_limit, __alt_stack_base)
                0x0000000000868904                PROVIDE (__alt_heap_start, end)
                0x0000000001000000                PROVIDE (__alt_heap_limit, 0x1000000)
OUTPUT(candy_avb_sss.elf elf32-littlenios2)

.debug_ranges   0x0000000000000000     0x2118
 .debug_ranges  0x0000000000000000      0x188 c:/intelfpga_lite/18.1/nios2eds/bin/gnu/h-x86_64-mingw32/bin/../lib/gcc/nios2-elf/5.3.0\libgcc.a(addsf3.o)
 .debug_ranges  0x0000000000000188       0x68 c:/intelfpga_lite/18.1/nios2eds/bin/gnu/h-x86_64-mingw32/bin/../lib/gcc/nios2-elf/5.3.0\libgcc.a(mulsf3.o)
 .debug_ranges  0x00000000000001f0       0x30 c:/intelfpga_lite/18.1/nios2eds/bin/gnu/h-x86_64-mingw32/bin/../lib/gcc/nios2-elf/5.3.0\libgcc.a(fixsfsi.o)
 .debug_ranges  0x0000000000000220       0x38 c:/intelfpga_lite/18.1/nios2eds/bin/gnu/h-x86_64-mingw32/bin/../lib/gcc/nios2-elf/5.3.0\libgcc.a(floatsisf.o)
 .debug_ranges  0x0000000000000258      0x240 c:/intelfpga_lite/18.1/nios2eds/bin/gnu/h-x86_64-mingw32/bin/../lib/gcc/nios2-elf/5.3.0\libgcc.a(adddf3.o)
 .debug_ranges  0x0000000000000498      0x138 c:/intelfpga_lite/18.1/nios2eds/bin/gnu/h-x86_64-mingw32/bin/../lib/gcc/nios2-elf/5.3.0\libgcc.a(divdf3.o)
 .debug_ranges  0x00000000000005d0      0x1f0 c:/intelfpga_lite/18.1/nios2eds/bin/gnu/h-x86_64-mingw32/bin/../lib/gcc/nios2-elf/5.3.0\libgcc.a(muldf3.o)
 .debug_ranges  0x00000000000007c0       0x20 c:/intelfpga_lite/18.1/nios2eds/bin/gnu/h-x86_64-mingw32/bin/../lib/gcc/nios2-elf/5.3.0\libgcc.a(floatsidf.o)
 .debug_ranges  0x00000000000007e0       0x18 c:/intelfpga_lite/18.1/nios2eds/bin/gnu/h-x86_64-mingw32/bin/../lib/gcc/nios2-elf/5.3.0\libgcc.a(floatunsidf.o)
 .debug_ranges  0x00000000000007f8       0x48 c:/intelfpga_lite/18.1/nios2eds/bin/gnu/h-x86_64-mingw32/bin/../lib/gcc/nios2-elf/5.3.0\libgcc.a(extendsfdf2.o)
 .debug_ranges  0x0000000000000840       0x38 c:/intelfpga_lite/18.1/nios2eds/bin/gnu/h-x86_64-mingw32/bin/../lib/gcc/nios2-elf/5.3.0\libgcc.a(truncdfsf2.o)
 .debug_ranges  0x0000000000000878       0x18 c:/intelfpga_lite/18.1/nios2eds/bin/gnu/h-x86_64-mingw32/bin/../lib/gcc/nios2-elf/5.3.0\libgcc.a(_clzsi2.o)
 .debug_ranges  0x0000000000000890       0x60 c:/intelfpga_lite/18.1/nios2eds/bin/gnu/h-x86_64-mingw32/bin/../lib/gcc/nios2-elf/5.3.0\libgcc.a(lib2-divmod.o)
 .debug_ranges  0x00000000000008f0       0x10 c:/intelfpga_lite/18.1/nios2eds/bin/gnu/h-x86_64-mingw32/bin/../lib/gcc/nios2-elf/5.3.0/../../../../../H-x86_64-mingw32/nios2-elf/lib\libc.a(lib_a-calloc.o)
 .debug_ranges  0x0000000000000900       0x48 c:/intelfpga_lite/18.1/nios2eds/bin/gnu/h-x86_64-mingw32/bin/../lib/gcc/nios2-elf/5.3.0/../../../../../H-x86_64-mingw32/nios2-elf/lib\libc.a(lib_a-callocr.o)
 .debug_ranges  0x0000000000000948       0x18 c:/intelfpga_lite/18.1/nios2eds/bin/gnu/h-x86_64-mingw32/bin/../lib/gcc/nios2-elf/5.3.0/../../../../../H-x86_64-mingw32/nios2-elf/lib\libc.a(lib_a-fprintf.o)
 .debug_ranges  0x0000000000000960       0x30 c:/intelfpga_lite/18.1/nios2eds/bin/gnu/h-x86_64-mingw32/bin/../lib/gcc/nios2-elf/5.3.0/../../../../../H-x86_64-mingw32/nios2-elf/lib\libc.a(lib_a-fwrite.o)
 .debug_ranges  0x0000000000000990       0x18 c:/intelfpga_lite/18.1/nios2eds/bin/gnu/h-x86_64-mingw32/bin/../lib/gcc/nios2-elf/5.3.0/../../../../../H-x86_64-mingw32/nios2-elf/lib\libc.a(lib_a-malloc.o)
 .debug_ranges  0x00000000000009a8       0x48 c:/intelfpga_lite/18.1/nios2eds/bin/gnu/h-x86_64-mingw32/bin/../lib/gcc/nios2-elf/5.3.0/../../../../../H-x86_64-mingw32/nios2-elf/lib\libc.a(lib_a-mallocr.o)
 .debug_ranges  0x00000000000009f0       0x10 c:/intelfpga_lite/18.1/nios2eds/bin/gnu/h-x86_64-mingw32/bin/../lib/gcc/nios2-elf/5.3.0/../../../../../H-x86_64-mingw32/nios2-elf/lib\libc.a(lib_a-memcpy.o)
 .debug_ranges  0x0000000000000a00       0x10 c:/intelfpga_lite/18.1/nios2eds/bin/gnu/h-x86_64-mingw32/bin/../lib/gcc/nios2-elf/5.3.0/../../../../../H-x86_64-mingw32/nios2-elf/lib\libc.a(lib_a-memset.o)
 .debug_ranges  0x0000000000000a10       0x18 c:/intelfpga_lite/18.1/nios2eds/bin/gnu/h-x86_64-mingw32/bin/../lib/gcc/nios2-elf/5.3.0/../../../../../H-x86_64-mingw32/nios2-elf/lib\libc.a(lib_a-perror.o)
 .debug_ranges  0x0000000000000a28       0x18 c:/intelfpga_lite/18.1/nios2eds/bin/gnu/h-x86_64-mingw32/bin/../lib/gcc/nios2-elf/5.3.0/../../../../../H-x86_64-mingw32/nios2-elf/lib\libc.a(lib_a-printf.o)
 .debug_ranges  0x0000000000000a40       0x30 c:/intelfpga_lite/18.1/nios2eds/bin/gnu/h-x86_64-mingw32/bin/../lib/gcc/nios2-elf/5.3.0/../../../../../H-x86_64-mingw32/nios2-elf/lib\libc.a(lib_a-puts.o)
 .debug_ranges  0x0000000000000a70       0x10 c:/intelfpga_lite/18.1/nios2eds/bin/gnu/h-x86_64-mingw32/bin/../lib/gcc/nios2-elf/5.3.0/../../../../../H-x86_64-mingw32/nios2-elf/lib\libc.a(lib_a-sbrkr.o)
 .debug_ranges  0x0000000000000a80       0x18 c:/intelfpga_lite/18.1/nios2eds/bin/gnu/h-x86_64-mingw32/bin/../lib/gcc/nios2-elf/5.3.0/../../../../../H-x86_64-mingw32/nios2-elf/lib\libc.a(lib_a-sprintf.o)
 .debug_ranges  0x0000000000000a98       0x10 c:/intelfpga_lite/18.1/nios2eds/bin/gnu/h-x86_64-mingw32/bin/../lib/gcc/nios2-elf/5.3.0/../../../../../H-x86_64-mingw32/nios2-elf/lib\libc.a(lib_a-strchr.o)
 .debug_ranges  0x0000000000000aa8       0x10 c:/intelfpga_lite/18.1/nios2eds/bin/gnu/h-x86_64-mingw32/bin/../lib/gcc/nios2-elf/5.3.0/../../../../../H-x86_64-mingw32/nios2-elf/lib\libc.a(lib_a-strcmp.o)
 .debug_ranges  0x0000000000000ab8       0x18 c:/intelfpga_lite/18.1/nios2eds/bin/gnu/h-x86_64-mingw32/bin/../lib/gcc/nios2-elf/5.3.0/../../../../../H-x86_64-mingw32/nios2-elf/lib\libc.a(lib_a-strerror.o)
 .debug_ranges  0x0000000000000ad0       0x10 c:/intelfpga_lite/18.1/nios2eds/bin/gnu/h-x86_64-mingw32/bin/../lib/gcc/nios2-elf/5.3.0/../../../../../H-x86_64-mingw32/nios2-elf/lib\libc.a(lib_a-strlen.o)
 .debug_ranges  0x0000000000000ae0      0x158 c:/intelfpga_lite/18.1/nios2eds/bin/gnu/h-x86_64-mingw32/bin/../lib/gcc/nios2-elf/5.3.0/../../../../../H-x86_64-mingw32/nios2-elf/lib\libc.a(lib_a-svfprintf.o)
 .debug_ranges  0x0000000000000c38       0x10 c:/intelfpga_lite/18.1/nios2eds/bin/gnu/h-x86_64-mingw32/bin/../lib/gcc/nios2-elf/5.3.0/../../../../../H-x86_64-mingw32/nios2-elf/lib\libc.a(lib_a-u_strerr.o)
 .debug_ranges  0x0000000000000c48      0x178 c:/intelfpga_lite/18.1/nios2eds/bin/gnu/h-x86_64-mingw32/bin/../lib/gcc/nios2-elf/5.3.0/../../../../../H-x86_64-mingw32/nios2-elf/lib\libc.a(lib_a-vfprintf.o)
 .debug_ranges  0x0000000000000dc0       0x40 c:/intelfpga_lite/18.1/nios2eds/bin/gnu/h-x86_64-mingw32/bin/../lib/gcc/nios2-elf/5.3.0/../../../../../H-x86_64-mingw32/nios2-elf/lib\libc.a(lib_a-wsetup.o)
 .debug_ranges  0x0000000000000e00       0x18 c:/intelfpga_lite/18.1/nios2eds/bin/gnu/h-x86_64-mingw32/bin/../lib/gcc/nios2-elf/5.3.0/../../../../../H-x86_64-mingw32/nios2-elf/lib\libc.a(lib_a-dtoa.o)
 .debug_ranges  0x0000000000000e18       0x58 c:/intelfpga_lite/18.1/nios2eds/bin/gnu/h-x86_64-mingw32/bin/../lib/gcc/nios2-elf/5.3.0/../../../../../H-x86_64-mingw32/nios2-elf/lib\libc.a(lib_a-fflush.o)
 .debug_ranges  0x0000000000000e70       0xc8 c:/intelfpga_lite/18.1/nios2eds/bin/gnu/h-x86_64-mingw32/bin/../lib/gcc/nios2-elf/5.3.0/../../../../../H-x86_64-mingw32/nios2-elf/lib\libc.a(lib_a-findfp.o)
 .debug_ranges  0x0000000000000f38       0x18 c:/intelfpga_lite/18.1/nios2eds/bin/gnu/h-x86_64-mingw32/bin/../lib/gcc/nios2-elf/5.3.0/../../../../../H-x86_64-mingw32/nios2-elf/lib\libc.a(lib_a-fputc.o)
 .debug_ranges  0x0000000000000f50       0x30 c:/intelfpga_lite/18.1/nios2eds/bin/gnu/h-x86_64-mingw32/bin/../lib/gcc/nios2-elf/5.3.0/../../../../../H-x86_64-mingw32/nios2-elf/lib\libc.a(lib_a-fputs.o)
 .debug_ranges  0x0000000000000f80       0x18 c:/intelfpga_lite/18.1/nios2eds/bin/gnu/h-x86_64-mingw32/bin/../lib/gcc/nios2-elf/5.3.0/../../../../../H-x86_64-mingw32/nios2-elf/lib\libc.a(lib_a-freer.o)
 .debug_ranges  0x0000000000000f98       0x30 c:/intelfpga_lite/18.1/nios2eds/bin/gnu/h-x86_64-mingw32/bin/../lib/gcc/nios2-elf/5.3.0/../../../../../H-x86_64-mingw32/nios2-elf/lib\libc.a(lib_a-fvwrite.o)
 .debug_ranges  0x0000000000000fc8       0x18 c:/intelfpga_lite/18.1/nios2eds/bin/gnu/h-x86_64-mingw32/bin/../lib/gcc/nios2-elf/5.3.0/../../../../../H-x86_64-mingw32/nios2-elf/lib\libc.a(lib_a-fwalk.o)
 .debug_ranges  0x0000000000000fe0       0x60 c:/intelfpga_lite/18.1/nios2eds/bin/gnu/h-x86_64-mingw32/bin/../lib/gcc/nios2-elf/5.3.0/../../../../../H-x86_64-mingw32/nios2-elf/lib\libc.a(lib_a-locale.o)
 .debug_ranges  0x0000000000001040       0x10 c:/intelfpga_lite/18.1/nios2eds/bin/gnu/h-x86_64-mingw32/bin/../lib/gcc/nios2-elf/5.3.0/../../../../../H-x86_64-mingw32/nios2-elf/lib\libc.a(lib_a-makebuf.o)
 .debug_ranges  0x0000000000001050       0x10 c:/intelfpga_lite/18.1/nios2eds/bin/gnu/h-x86_64-mingw32/bin/../lib/gcc/nios2-elf/5.3.0/../../../../../H-x86_64-mingw32/nios2-elf/lib\libc.a(lib_a-memchr.o)
 .debug_ranges  0x0000000000001060       0x10 c:/intelfpga_lite/18.1/nios2eds/bin/gnu/h-x86_64-mingw32/bin/../lib/gcc/nios2-elf/5.3.0/../../../../../H-x86_64-mingw32/nios2-elf/lib\libc.a(lib_a-memmove.o)
 .debug_ranges  0x0000000000001070       0xe8 c:/intelfpga_lite/18.1/nios2eds/bin/gnu/h-x86_64-mingw32/bin/../lib/gcc/nios2-elf/5.3.0/../../../../../H-x86_64-mingw32/nios2-elf/lib\libc.a(lib_a-mprec.o)
 .debug_ranges  0x0000000000001158       0x48 c:/intelfpga_lite/18.1/nios2eds/bin/gnu/h-x86_64-mingw32/bin/../lib/gcc/nios2-elf/5.3.0/../../../../../H-x86_64-mingw32/nios2-elf/lib\libc.a(lib_a-putc.o)
 .debug_ranges  0x00000000000011a0      0x148 c:/intelfpga_lite/18.1/nios2eds/bin/gnu/h-x86_64-mingw32/bin/../lib/gcc/nios2-elf/5.3.0/../../../../../H-x86_64-mingw32/nios2-elf/lib\libc.a(lib_a-reallocr.o)
 .debug_ranges  0x00000000000012e8       0x10 c:/intelfpga_lite/18.1/nios2eds/bin/gnu/h-x86_64-mingw32/bin/../lib/gcc/nios2-elf/5.3.0/../../../../../H-x86_64-mingw32/nios2-elf/lib\libc.a(lib_a-s_fpclassify.o)
 .debug_ranges  0x00000000000012f8       0x30 c:/intelfpga_lite/18.1/nios2eds/bin/gnu/h-x86_64-mingw32/bin/../lib/gcc/nios2-elf/5.3.0/../../../../../H-x86_64-mingw32/nios2-elf/lib\libc.a(lib_a-stdio.o)
 .debug_ranges  0x0000000000001328       0x58 c:/intelfpga_lite/18.1/nios2eds/bin/gnu/h-x86_64-mingw32/bin/../lib/gcc/nios2-elf/5.3.0/../../../../../H-x86_64-mingw32/nios2-elf/lib\libc.a(lib_a-svfiprintf.o)
 .debug_ranges  0x0000000000001380      0x1b8 c:/intelfpga_lite/18.1/nios2eds/bin/gnu/h-x86_64-mingw32/bin/../lib/gcc/nios2-elf/5.3.0/../../../../../H-x86_64-mingw32/nios2-elf/lib\libc.a(lib_a-vfiprintf.o)
 .debug_ranges  0x0000000000001538       0x30 c:/intelfpga_lite/18.1/nios2eds/bin/gnu/h-x86_64-mingw32/bin/../lib/gcc/nios2-elf/5.3.0/../../../../../H-x86_64-mingw32/nios2-elf/lib\libc.a(lib_a-wbuf.o)
 .debug_ranges  0x0000000000001568       0x10 c:/intelfpga_lite/18.1/nios2eds/bin/gnu/h-x86_64-mingw32/bin/../lib/gcc/nios2-elf/5.3.0/../../../../../H-x86_64-mingw32/nios2-elf/lib\libc.a(lib_a-writer.o)
 .debug_ranges  0x0000000000001578       0x10 c:/intelfpga_lite/18.1/nios2eds/bin/gnu/h-x86_64-mingw32/bin/../lib/gcc/nios2-elf/5.3.0/../../../../../H-x86_64-mingw32/nios2-elf/lib\libc.a(closer.o)
 .debug_ranges  0x0000000000001588       0x48 c:/intelfpga_lite/18.1/nios2eds/bin/gnu/h-x86_64-mingw32/bin/../lib/gcc/nios2-elf/5.3.0/../../../../../H-x86_64-mingw32/nios2-elf/lib\libc.a(lib_a-fclose.o)
 .debug_ranges  0x00000000000015d0       0x50 c:/intelfpga_lite/18.1/nios2eds/bin/gnu/h-x86_64-mingw32/bin/../lib/gcc/nios2-elf/5.3.0/../../../../../H-x86_64-mingw32/nios2-elf/lib\libc.a(lib_a-fputwc.o)
 .debug_ranges  0x0000000000001620       0x10 c:/intelfpga_lite/18.1/nios2eds/bin/gnu/h-x86_64-mingw32/bin/../lib/gcc/nios2-elf/5.3.0/../../../../../H-x86_64-mingw32/nios2-elf/lib\libc.a(lib_a-fstatr.o)
 .debug_ranges  0x0000000000001630       0x10 c:/intelfpga_lite/18.1/nios2eds/bin/gnu/h-x86_64-mingw32/bin/../lib/gcc/nios2-elf/5.3.0/../../../../../H-x86_64-mingw32/nios2-elf/lib\libc.a(lib_a-isattyr.o)
 .debug_ranges  0x0000000000001640       0x10 c:/intelfpga_lite/18.1/nios2eds/bin/gnu/h-x86_64-mingw32/bin/../lib/gcc/nios2-elf/5.3.0/../../../../../H-x86_64-mingw32/nios2-elf/lib\libc.a(lib_a-lseekr.o)
 .debug_ranges  0x0000000000001650       0x10 c:/intelfpga_lite/18.1/nios2eds/bin/gnu/h-x86_64-mingw32/bin/../lib/gcc/nios2-elf/5.3.0/../../../../../H-x86_64-mingw32/nios2-elf/lib\libc.a(lib_a-readr.o)
 .debug_ranges  0x0000000000001660       0x18 c:/intelfpga_lite/18.1/nios2eds/bin/gnu/h-x86_64-mingw32/bin/../lib/gcc/nios2-elf/5.3.0/../../../../../H-x86_64-mingw32/nios2-elf/lib\libc.a(lib_a-wcrtomb.o)
 .debug_ranges  0x0000000000001678       0x18 c:/intelfpga_lite/18.1/nios2eds/bin/gnu/h-x86_64-mingw32/bin/../lib/gcc/nios2-elf/5.3.0/../../../../../H-x86_64-mingw32/nios2-elf/lib\libc.a(lib_a-wctomb_r.o)
 .debug_ranges  0x0000000000001690      0x158 c:/intelfpga_lite/18.1/nios2eds/bin/gnu/h-x86_64-mingw32/bin/../lib/gcc/nios2-elf/5.3.0\libgcc.a(_udivdi3.o)
 .debug_ranges  0x00000000000017e8      0x160 c:/intelfpga_lite/18.1/nios2eds/bin/gnu/h-x86_64-mingw32/bin/../lib/gcc/nios2-elf/5.3.0\libgcc.a(_umoddi3.o)
 .debug_ranges  0x0000000000001948       0x48 c:/intelfpga_lite/18.1/nios2eds/bin/gnu/h-x86_64-mingw32/bin/../lib/gcc/nios2-elf/5.3.0\libgcc.a(eqdf2.o)
 .debug_ranges  0x0000000000001990       0x88 c:/intelfpga_lite/18.1/nios2eds/bin/gnu/h-x86_64-mingw32/bin/../lib/gcc/nios2-elf/5.3.0\libgcc.a(gedf2.o)
 .debug_ranges  0x0000000000001a18       0xa8 c:/intelfpga_lite/18.1/nios2eds/bin/gnu/h-x86_64-mingw32/bin/../lib/gcc/nios2-elf/5.3.0\libgcc.a(ledf2.o)
 .debug_ranges  0x0000000000001ac0      0x268 c:/intelfpga_lite/18.1/nios2eds/bin/gnu/h-x86_64-mingw32/bin/../lib/gcc/nios2-elf/5.3.0\libgcc.a(subdf3.o)
 .debug_ranges  0x0000000000001d28       0x30 c:/intelfpga_lite/18.1/nios2eds/bin/gnu/h-x86_64-mingw32/bin/../lib/gcc/nios2-elf/5.3.0\libgcc.a(fixdfsi.o)
 .debug_ranges  0x0000000000001d58       0x30 ../candy_avb_sss_bsp/\libucosii_bsp.a(altera_avalon_jtag_uart_init.o)
 .debug_ranges  0x0000000000001d88       0x18 ../candy_avb_sss_bsp/\libucosii_bsp.a(altera_avalon_jtag_uart_read.o)
 .debug_ranges  0x0000000000001da0       0x30 ../candy_avb_sss_bsp/\libucosii_bsp.a(pktalloc.o)
 .debug_ranges  0x0000000000001dd0       0x18 ../candy_avb_sss_bsp/\libucosii_bsp.a(nptcp.o)
 .debug_ranges  0x0000000000001de8       0x48 ../candy_avb_sss_bsp/\libucosii_bsp.a(tcp_in.o)
 .debug_ranges  0x0000000000001e30       0x48 ../candy_avb_sss_bsp/\libucosii_bsp.a(tcp_out.o)
 .debug_ranges  0x0000000000001e78       0x28 ../candy_avb_sss_bsp/\libucosii_bsp.a(alt_irq_entry.o)
 .debug_ranges  0x0000000000001ea0       0x10 ../candy_avb_sss_bsp/\libucosii_bsp.a(alt_irq_handler.o)
 .debug_ranges  0x0000000000001eb0       0x30 ../candy_avb_sss_bsp/\libucosii_bsp.a(ipdemux.o)
 .debug_ranges  0x0000000000001ee0       0x30 ../candy_avb_sss_bsp/\libucosii_bsp.a(alt_exception_entry.o)
 .debug_ranges  0x0000000000001f10       0x18 ../candy_avb_sss_bsp/\libucosii_bsp.a(alt_instruction_exception_entry.o)
 .debug_ranges  0x0000000000001f28       0x10 c:/intelfpga_lite/18.1/nios2eds/bin/gnu/h-x86_64-mingw32/bin/../lib/gcc/nios2-elf/5.3.0/../../../../../H-x86_64-mingw32/nios2-elf/lib\libc.a(lib_a-atexit.o)
 .debug_ranges  0x0000000000001f38       0x18 c:/intelfpga_lite/18.1/nios2eds/bin/gnu/h-x86_64-mingw32/bin/../lib/gcc/nios2-elf/5.3.0/../../../../../H-x86_64-mingw32/nios2-elf/lib\libc.a(lib_a-atoi.o)
 .debug_ranges  0x0000000000001f50       0x10 c:/intelfpga_lite/18.1/nios2eds/bin/gnu/h-x86_64-mingw32/bin/../lib/gcc/nios2-elf/5.3.0/../../../../../H-x86_64-mingw32/nios2-elf/lib\libc.a(lib_a-exit.o)
 .debug_ranges  0x0000000000001f60       0x48 c:/intelfpga_lite/18.1/nios2eds/bin/gnu/h-x86_64-mingw32/bin/../lib/gcc/nios2-elf/5.3.0/../../../../../H-x86_64-mingw32/nios2-elf/lib\libc.a(lib_a-getc.o)
 .debug_ranges  0x0000000000001fa8       0x10 c:/intelfpga_lite/18.1/nios2eds/bin/gnu/h-x86_64-mingw32/bin/../lib/gcc/nios2-elf/5.3.0/../../../../../H-x86_64-mingw32/nios2-elf/lib\libc.a(lib_a-malign.o)
 .debug_ranges  0x0000000000001fb8       0x10 c:/intelfpga_lite/18.1/nios2eds/bin/gnu/h-x86_64-mingw32/bin/../lib/gcc/nios2-elf/5.3.0/../../../../../H-x86_64-mingw32/nios2-elf/lib\libc.a(lib_a-malignr.o)
 .debug_ranges  0x0000000000001fc8       0x10 c:/intelfpga_lite/18.1/nios2eds/bin/gnu/h-x86_64-mingw32/bin/../lib/gcc/nios2-elf/5.3.0/../../../../../H-x86_64-mingw32/nios2-elf/lib\libc.a(lib_a-memcmp.o)
 .debug_ranges  0x0000000000001fd8       0x18 c:/intelfpga_lite/18.1/nios2eds/bin/gnu/h-x86_64-mingw32/bin/../lib/gcc/nios2-elf/5.3.0/../../../../../H-x86_64-mingw32/nios2-elf/lib\libc.a(lib_a-putchar.o)
 .debug_ranges  0x0000000000001ff0       0x30 c:/intelfpga_lite/18.1/nios2eds/bin/gnu/h-x86_64-mingw32/bin/../lib/gcc/nios2-elf/5.3.0/../../../../../H-x86_64-mingw32/nios2-elf/lib\libc.a(lib_a-rget.o)
 .debug_ranges  0x0000000000002020       0x10 c:/intelfpga_lite/18.1/nios2eds/bin/gnu/h-x86_64-mingw32/bin/../lib/gcc/nios2-elf/5.3.0/../../../../../H-x86_64-mingw32/nios2-elf/lib\libc.a(lib_a-strcpy.o)
 .debug_ranges  0x0000000000002030       0x10 c:/intelfpga_lite/18.1/nios2eds/bin/gnu/h-x86_64-mingw32/bin/../lib/gcc/nios2-elf/5.3.0/../../../../../H-x86_64-mingw32/nios2-elf/lib\libc.a(lib_a-strncmp.o)
 .debug_ranges  0x0000000000002040       0x10 c:/intelfpga_lite/18.1/nios2eds/bin/gnu/h-x86_64-mingw32/bin/../lib/gcc/nios2-elf/5.3.0/../../../../../H-x86_64-mingw32/nios2-elf/lib\libc.a(lib_a-strncpy.o)
 .debug_ranges  0x0000000000002050       0x18 c:/intelfpga_lite/18.1/nios2eds/bin/gnu/h-x86_64-mingw32/bin/../lib/gcc/nios2-elf/5.3.0/../../../../../H-x86_64-mingw32/nios2-elf/lib\libc.a(lib_a-strtol.o)
 .debug_ranges  0x0000000000002068       0x18 c:/intelfpga_lite/18.1/nios2eds/bin/gnu/h-x86_64-mingw32/bin/../lib/gcc/nios2-elf/5.3.0/../../../../../H-x86_64-mingw32/nios2-elf/lib\libc.a(lib_a-vprintf.o)
 .debug_ranges  0x0000000000002080       0x18 c:/intelfpga_lite/18.1/nios2eds/bin/gnu/h-x86_64-mingw32/bin/../lib/gcc/nios2-elf/5.3.0/../../../../../H-x86_64-mingw32/nios2-elf/lib\libc.a(lib_a-vsprintf.o)
 .debug_ranges  0x0000000000002098       0x10 c:/intelfpga_lite/18.1/nios2eds/bin/gnu/h-x86_64-mingw32/bin/../lib/gcc/nios2-elf/5.3.0/../../../../../H-x86_64-mingw32/nios2-elf/lib\libc.a(lib_a-__atexit.o)
 .debug_ranges  0x00000000000020a8       0x30 c:/intelfpga_lite/18.1/nios2eds/bin/gnu/h-x86_64-mingw32/bin/../lib/gcc/nios2-elf/5.3.0/../../../../../H-x86_64-mingw32/nios2-elf/lib\libc.a(lib_a-__call_atexit.o)
 .debug_ranges  0x00000000000020d8       0x30 c:/intelfpga_lite/18.1/nios2eds/bin/gnu/h-x86_64-mingw32/bin/../lib/gcc/nios2-elf/5.3.0/../../../../../H-x86_64-mingw32/nios2-elf/lib\libc.a(lib_a-refill.o)
 .debug_ranges  0x0000000000002108       0x10 c:/intelfpga_lite/18.1/nios2eds/bin/gnu/h-x86_64-mingw32/bin/../lib/gcc/nios2-elf/5.3.0/../../../../../H-x86_64-mingw32/nios2-elf/lib\libc.a(lib_a-vfprintfr_1.o)
